

Microchip Technology PIC18 LITE Macro Assembler V1.34 build -361300703 
                                                                                               Fri Apr 24 23:45:58 2015

Microchip Technology Omniscient Code Generator (Lite mode) build 201502162209
     1                           	processor	18F4431
     2                           	fnconf	rparam,??,?,0
     3                           	opt	pw 120
     4                           	opt	lm
     5                           	psect	smallconst,global,reloc=2,class=SMALLCONST,delta=1
     6                           	psect	cinit,global,reloc=2,class=CODE,delta=1
     7                           	psect	bssCOMRAM,global,class=COMRAM,space=1,delta=1
     8                           	psect	bssBANK0,global,class=BANK0,space=1,delta=1
     9                           	psect	bssBANK1,global,class=BANK1,space=1,delta=1
    10                           	psect	cstackBANK0,global,class=BANK0,space=1,delta=1
    11                           	psect	cstackCOMRAM,global,class=COMRAM,space=1,delta=1
    12                           	psect	text0,global,reloc=2,class=CODE,delta=1
    13                           	psect	text1,global,reloc=2,class=CODE,delta=1
    14                           	psect	text2,global,reloc=2,class=CODE,delta=1
    15                           	psect	text3,global,reloc=2,class=CODE,delta=1
    16                           	psect	text4,global,reloc=2,class=CODE,delta=1
    17                           	psect	text5,global,reloc=2,class=CODE,delta=1
    18                           	psect	text6,global,reloc=2,class=CODE,delta=1
    19                           	psect	text7,global,reloc=2,class=CODE,delta=1
    20                           	psect	text8,global,reloc=2,class=CODE,delta=1
    21                           	psect	text9,global,reloc=2,class=CODE,delta=1
    22                           	psect	text10,global,reloc=2,class=CODE,delta=1
    23                           	psect	text11,global,reloc=2,class=CODE,delta=1
    24                           	psect	text12,global,reloc=2,class=CODE,delta=1
    25                           	psect	text13,global,reloc=2,class=CODE,delta=1
    26                           	psect	text14,global,reloc=2,class=CODE,delta=1
    27                           	psect	text15,global,reloc=2,class=CODE,delta=1
    28                           	psect	text16,global,reloc=2,class=CODE,delta=1
    29                           	psect	text17,global,reloc=2,class=CODE,delta=1
    30                           	psect	text18,global,reloc=2,class=CODE,delta=1
    31                           	psect	text19,global,reloc=2,class=CODE,delta=1
    32                           	psect	text20,global,reloc=2,class=CODE,delta=1
    33                           	psect	text21,global,reloc=2,class=CODE,delta=1
    34                           	psect	text22,global,reloc=2,class=CODE,delta=1
    35                           	psect	text23,global,reloc=2,class=CODE,delta=1
    36                           	psect	text24,global,reloc=2,class=CODE,delta=1
    37                           	psect	text25,global,reloc=2,class=CODE,delta=1
    38                           	psect	text26,global,reloc=2,class=CODE,delta=1
    39                           	psect	intcodelo,global,reloc=2,class=CODE,delta=1
    40                           	psect	text28,global,reloc=2,class=CODE,delta=1
    41                           	psect	text29,global,reloc=2,class=CODE,delta=1
    42                           	psect	text30,global,reloc=2,class=CODE,delta=1
    43                           	psect	text31,global,reloc=2,class=CODE,delta=1
    44                           	psect	text32,global,reloc=2,class=CODE,delta=1
    45                           	psect	text33,global,reloc=2,class=CODE,delta=1
    46                           	psect	text34,global,reloc=2,class=CODE,delta=1
    47                           	psect	text35,global,reloc=2,class=CODE,delta=1
    48                           	psect	text36,global,reloc=2,class=CODE,delta=1
    49                           	psect	intcode,global,reloc=2,class=CODE,delta=1
    50                           	psect	intcode_body,global,reloc=2,class=CODE,delta=1
    51                           	psect	text38,global,reloc=2,class=CODE,delta=1
    52                           	psect	text39,global,reloc=2,class=CODE,delta=1
    53                           	psect	text40,global,reloc=2,class=CODE,delta=1
    54                           	psect	text41,global,reloc=2,class=CODE,delta=1
    55                           	psect	text42,global,reloc=2,class=CODE,delta=1
    56                           	psect	text43,global,reloc=2,class=CODE,delta=1
    57                           	psect	text44,global,reloc=2,class=CODE,delta=1
    58                           	psect	text45,global,reloc=2,class=CODE,delta=1
    59                           	psect	text46,global,reloc=2,class=CODE,delta=1
    60                           	psect	intsave_regs,global,class=BIGRAM,space=1,delta=1
    61                           	psect	rparam,global,class=COMRAM,space=1,delta=1
    62  0000                     _TMR1	set	4046
    63  0000                     _ANSEL0	set	4024
    64  0000                     _BAUDCONbits	set	4010
    65  0000                     _CAP1CONbits	set	3939
    66  0000                     _DFLTCONbits	set	3936
    67  0000                     _INTCON2bits	set	4081
    68  0000                     _INTCON3bits	set	4080
    69  0000                     _INTCONbits	set	4082
    70  0000                     _IPR1bits	set	3999
    71  0000                     _IPR2bits	set	4002
    72  0000                     _IPR3bits	set	4005
    73  0000                     _LATCbits	set	3979
    74  0000                     _MAXCNTH	set	3941
    75  0000                     _MAXCNTL	set	3940
    76  0000                     _PDC0H	set	3960
    77  0000                     _PDC0L	set	3961
    78  0000                     _PDC1H	set	3958
    79  0000                     _PDC1L	set	3959
    80  0000                     _PDC2H	set	3956
    81  0000                     _PDC2L	set	3957
    82  0000                     _PDC3H	set	3954
    83  0000                     _PDC3L	set	3955
    84  0000                     _PIE1bits	set	3997
    85  0000                     _PIE2bits	set	4000
    86  0000                     _PIE3bits	set	4003
    87  0000                     _PIR1bits	set	3998
    88  0000                     _PIR2bits	set	4001
    89  0000                     _PIR3bits	set	4004
    90  0000                     _PORTBbits	set	3969
    91  0000                     _PORTCbits	set	3970
    92  0000                     _PORTDbits	set	3971
    93  0000                     _POSCNTH	set	3943
    94  0000                     _POSCNTL	set	3942
    95  0000                     _PTCON0bits	set	3967
    96  0000                     _PTCON1bits	set	3966
    97  0000                     _PTPERH	set	3962
    98  0000                     _PTPERL	set	3963
    99  0000                     _PWMCON0bits	set	3951
   100  0000                     _PWMCON1bits	set	3950
   101  0000                     _QEICONbits	set	4022
   102  0000                     _RCONbits	set	4048
   103  0000                     _RCREG	set	4014
   104  0000                     _RCSTAbits	set	4011
   105  0000                     _SPBRG	set	4015
   106  0000                     _T0CONbits	set	4053
   107  0000                     _T1CONbits	set	4045
   108  0000                     _TMR0L	set	4054
   109  0000                     _TRISAbits	set	3986
   110  0000                     _TRISBbits	set	3987
   111  0000                     _TRISCbits	set	3988
   112  0000                     _TRISDbits	set	3989
   113  0000                     _TRISEbits	set	3990
   114  0000                     _TXREG	set	4013
   115  0000                     _TXSTAbits	set	4012
   116  0000                     _LATA0	set	31816
   117  0000                     _LATA1	set	31817
   118  0000                     _LATA2	set	31818
   119  0000                     _LATA3	set	31819
   120  0000                     _LATA4	set	31820
   121  0000                     _LATA5	set	31821
   122  0000                     _LATA6	set	31822
   123  0000                     _LATA7	set	31823
   124  0000                     _LATB0	set	31824
   125  0000                     _LATB1	set	31825
   126  0000                     _LATB2	set	31826
   127  0000                     _LATB3	set	31827
   128  0000                     _LATB4	set	31828
   129  0000                     _LATB5	set	31829
   130  0000                     _LATB6	set	31830
   131  0000                     _LATB7	set	31831
   132  0000                     _LATC0	set	31832
   133  0000                     _LATC1	set	31833
   134  0000                     _LATC2	set	31834
   135  0000                     _LATC3	set	31835
   136  0000                     _LATC4	set	31836
   137  0000                     _LATC5	set	31837
   138  0000                     _LATC6	set	31838
   139  0000                     _LATC7	set	31839
   140  0000                     _LATD0	set	31840
   141  0000                     _LATD1	set	31841
   142  0000                     _LATD2	set	31842
   143  0000                     _LATD3	set	31843
   144  0000                     _LATD4	set	31844
   145  0000                     _LATD5	set	31845
   146  0000                     _LATD6	set	31846
   147  0000                     _LATD7	set	31847
   148  0000                     _LATE0	set	31848
   149  0000                     _LATE1	set	31849
   150  0000                     _LATE2	set	31850
   151  0000                     _TMR0ON	set	32431
   152  0000                     _TMR1ON	set	32360
   153                           
   154                           	psect	smallconst
   155  000300                     __psmallconst:
   156                           	opt stack 0
   157  000300  00                 	db	0
   158  000301                     STR_1:
   159                           
   160                           ; BSR set to: 1
   161  000301  42                 	db	66	;'B'
   162  000302  6F                 	db	111	;'o'
   163  000303  6E                 	db	110	;'n'
   164  000304  6A                 	db	106	;'j'
   165  000305  6F                 	db	111	;'o'
   166  000306  75                 	db	117	;'u'
   167  000307  72                 	db	114	;'r'
   168  000308  20                 	db	32
   169  000309  6C                 	db	108	;'l'
   170  00030A  65                 	db	101	;'e'
   171  00030B  73                 	db	115	;'s'
   172  00030C  20                 	db	32
   173  00030D  61                 	db	97	;'a'
   174  00030E  6D                 	db	109	;'m'
   175  00030F  69                 	db	105	;'i'
   176  000310  73                 	db	115	;'s'
   177  000311  20                 	db	32
   178  000312  21                 	db	33
   179  000313  21                 	db	33
   180  000314  21                 	db	33
   181  000315  20                 	db	32
   182  000316  3D                 	db	61	;'='
   183  000317  29                 	db	41
   184  000318  00                 	db	0
   185  000319                     STR_4:
   186                           
   187                           ; BSR set to: 1
   188  000319  20                 	db	32
   189  00031A  64                 	db	100	;'d'
   190  00031B  61                 	db	97	;'a'
   191  00031C  6E                 	db	110	;'n'
   192  00031D  73                 	db	115	;'s'
   193  00031E  20                 	db	32
   194  00031F  6C                 	db	108	;'l'
   195  000320  65                 	db	101	;'e'
   196  000321  20                 	db	32
   197  000322  62                 	db	98	;'b'
   198  000323  75                 	db	117	;'u'
   199  000324  66                 	db	102	;'f'
   200  000325  66                 	db	102	;'f'
   201  000326  65                 	db	101	;'e'
   202  000327  72                 	db	114	;'r'
   203  000328  20                 	db	32
   204  000329  0A                 	db	10
   205  00032A  0A                 	db	10
   206  00032B  0D                 	db	13
   207  00032C  00                 	db	0
   208  00032D                     
   209                           ; BSR set to: 1
   210  00032D  49                 	db	73	;'I'
   211  00032E  4C                 	db	76	;'L'
   212  00032F  20                 	db	32
   213  000330  79                 	db	121	;'y'
   214  000331  20                 	db	32
   215  000332  61                 	db	97	;'a'
   216  000333  20                 	db	32
   217  000334  00                 	db	0
   218  0000                     
   219                           ; #config settings
   220  000335  00                 	db	0	; dummy byte at the end
   221  0000                     
   222                           	psect	cinit
   223  0017D4                     __pcinit:
   224                           	opt stack 0
   225  0017D4                     start_initialization:
   226                           	opt stack 0
   227  0017D4                     __initialization:
   228                           	opt stack 0
   229                           
   230                           ; Clear objects allocated to BANK1 (103 bytes)
   231  0017D4  EE01  F000         	lfsr	0,__pbssBANK1
   232  0017D8  0E67               	movlw	103
   233  0017DA                     clear_0:
   234  0017DA  6AEE               	clrf	postinc0,c
   235  0017DC  06E8               	decf	wreg,f,c
   236  0017DE  E1FD               	bnz	clear_0
   237                           
   238                           ; Clear objects allocated to BANK0 (33 bytes)
   239  0017E0  EE00  F08F         	lfsr	0,__pbssBANK0
   240  0017E4  0E21               	movlw	33
   241  0017E6                     clear_1:
   242  0017E6  6AEE               	clrf	postinc0,c
   243  0017E8  06E8               	decf	wreg,f,c
   244  0017EA  E1FD               	bnz	clear_1
   245                           
   246                           ; Clear objects allocated to COMRAM (35 bytes)
   247  0017EC  EE00  F026         	lfsr	0,__pbssCOMRAM
   248  0017F0  0E23               	movlw	35
   249  0017F2                     clear_2:
   250  0017F2  6AEE               	clrf	postinc0,c
   251  0017F4  06E8               	decf	wreg,f,c
   252  0017F6  E1FD               	bnz	clear_2
   253  0017F8                     end_of_initialization:
   254                           	opt stack 0
   255  0017F8                     __end_of__initialization:
   256                           	opt stack 0
   257  0017F8  0E00               	movlw	low (__Lmediumconst shr (0+16))
   258  0017FA  6EF8               	movwf	tblptru,c
   259  0017FC  0100               	movlb	0
   260  0017FE  EFB6  F008         	goto	_main	;jump to C main() function
   261                           tblptru	equ	0xFF8
   262                           postinc0	equ	0xFEE
   263                           wreg	equ	0xFE8
   264                           
   265                           	psect	bssCOMRAM
   266  000026                     __pbssCOMRAM:
   267                           	opt stack 0
   268  000026                     _ERREUR_VITESSE:
   269                           	opt stack 0
   270  000026                     	ds	9
   271  00002F                     _VITESSE:
   272                           	opt stack 0
   273  00002F                     	ds	6
   274  000035                     fonction_PID@commande:
   275                           	opt stack 0
   276  000035                     	ds	3
   277  000038                     _OVERFLOW_CODEUR:
   278                           	opt stack 0
   279  000038                     	ds	1
   280  000039                     _uart_logiciel:
   281                           	opt stack 0
   282  000039                     	ds	13
   283  000046                     asserv@commande:
   284                           	opt stack 0
   285  000046                     	ds	3
   286                           tblptru	equ	0xFF8
   287                           postinc0	equ	0xFEE
   288                           wreg	equ	0xFE8
   289                           
   290                           	psect	bssBANK0
   291  00008F                     __pbssBANK0:
   292                           	opt stack 0
   293  00008F                     _position:
   294                           	opt stack 0
   295  00008F                     	ds	11
   296  00009A                     _PID:
   297                           	opt stack 0
   298  00009A                     	ds	9
   299  0000A3                     get_valeur_codeur@res:
   300                           	opt stack 0
   301  0000A3                     	ds	4
   302  0000A7                     _flag_cpateur:
   303                           	opt stack 0
   304  0000A7                     	ds	1
   305  0000A8                     IntToC@out:
   306                           	opt stack 0
   307  0000A8                     	ds	8
   308                           tblptru	equ	0xFF8
   309                           postinc0	equ	0xFEE
   310                           wreg	equ	0xFE8
   311                           
   312                           	psect	bssBANK1
   313  000100                     __pbssBANK1:
   314                           	opt stack 0
   315  000100                     _uart_reception:
   316                           	opt stack 0
   317  000100                     	ds	103
   318                           tblptru	equ	0xFF8
   319                           postinc0	equ	0xFEE
   320                           wreg	equ	0xFE8
   321                           
   322                           	psect	cstackBANK0
   323  000060                     __pcstackBANK0:
   324                           	opt stack 0
   325  000060                     ?___wmul:
   326                           	opt stack 0
   327  000060                     ?___ftpack:
   328                           	opt stack 0
   329  000060                     ?___ftneg:
   330                           	opt stack 0
   331  000060                     ?___fttol:
   332                           	opt stack 0
   333  000060                     ___wmul@multiplier:
   334                           	opt stack 0
   335  000060                     ___ftpack@arg:
   336                           	opt stack 0
   337  000060                     ___ftge@ff1:
   338                           	opt stack 0
   339  000060                     ___ftneg@f1:
   340                           	opt stack 0
   341  000060                     ___fttol@f1:
   342                           	opt stack 0
   343                           
   344                           ; 3 bytes @ 0x0
   345  000060                     	ds	2
   346  000062                     ___wmul@multiplicand:
   347                           	opt stack 0
   348                           
   349                           ; 2 bytes @ 0x2
   350  000062                     	ds	1
   351  000063                     ___ftpack@exp:
   352                           	opt stack 0
   353  000063                     ___ftge@ff2:
   354                           	opt stack 0
   355                           
   356                           ; 3 bytes @ 0x3
   357  000063                     	ds	1
   358  000064                     ??___fttol:
   359  000064                     ___ftpack@sign:
   360                           	opt stack 0
   361  000064                     ___wmul@product:
   362                           	opt stack 0
   363                           
   364                           ; 2 bytes @ 0x4
   365  000064                     	ds	1
   366  000065                     ??___ftpack:
   367                           
   368                           ; 0 bytes @ 0x5
   369  000065                     	ds	1
   370  000066                     ??___ftge:
   371  000066                     ?___awdiv:
   372                           	opt stack 0
   373  000066                     ___awdiv@dividend:
   374                           	opt stack 0
   375                           
   376                           ; 2 bytes @ 0x6
   377  000066                     	ds	2
   378  000068                     ?___ftmul:
   379                           	opt stack 0
   380  000068                     ?___lwtoft:
   381                           	opt stack 0
   382  000068                     ___awdiv@divisor:
   383                           	opt stack 0
   384  000068                     ___lwtoft@c:
   385                           	opt stack 0
   386  000068                     ___ftmul@f1:
   387                           	opt stack 0
   388                           
   389                           ; 3 bytes @ 0x8
   390  000068                     	ds	1
   391  000069                     ___fttol@sign1:
   392                           	opt stack 0
   393                           
   394                           ; 1 bytes @ 0x9
   395  000069                     	ds	1
   396  00006A                     ___awdiv@counter:
   397                           	opt stack 0
   398  00006A                     ___fttol@lval:
   399                           	opt stack 0
   400                           
   401                           ; 4 bytes @ 0xA
   402  00006A                     	ds	1
   403  00006B                     ?___ftdiv:
   404                           	opt stack 0
   405  00006B                     ___awdiv@sign:
   406                           	opt stack 0
   407  00006B                     ___ftdiv@f1:
   408                           	opt stack 0
   409  00006B                     ___ftmul@f2:
   410                           	opt stack 0
   411                           
   412                           ; 3 bytes @ 0xB
   413  00006B                     	ds	1
   414  00006C                     ___awdiv@quotient:
   415                           	opt stack 0
   416                           
   417                           ; 2 bytes @ 0xC
   418  00006C                     	ds	2
   419  00006E                     ??___ftmul:
   420  00006E                     ?_IntToC:
   421                           	opt stack 0
   422  00006E                     PutcUART@octet:
   423                           	opt stack 0
   424  00006E                     ___fttol@exp1:
   425                           	opt stack 0
   426  00006E                     IntToC@nb:
   427                           	opt stack 0
   428  00006E                     ___ftdiv@f2:
   429                           	opt stack 0
   430                           
   431                           ; 3 bytes @ 0xE
   432  00006E                     	ds	1
   433  00006F                     ??_PutcUART:
   434                           
   435                           ; 0 bytes @ 0xF
   436  00006F                     	ds	1
   437  000070                     ??_IntToC:
   438                           
   439                           ; 0 bytes @ 0x10
   440  000070                     	ds	1
   441  000071                     ??___ftdiv:
   442  000071                     ___ftmul@exp:
   443                           	opt stack 0
   444                           
   445                           ; 1 bytes @ 0x11
   446  000071                     	ds	1
   447  000072                     ___ftmul@f3_as_product:
   448                           	opt stack 0
   449  000072                     IntToC@i:
   450                           	opt stack 0
   451                           
   452                           ; 10 bytes @ 0x12
   453  000072                     	ds	2
   454  000074                     ___ftdiv@cntr:
   455                           	opt stack 0
   456                           
   457                           ; 1 bytes @ 0x14
   458  000074                     	ds	1
   459  000075                     PutcUART@type_uart:
   460                           	opt stack 0
   461  000075                     ___ftmul@cntr:
   462                           	opt stack 0
   463  000075                     ___ftdiv@f3:
   464                           	opt stack 0
   465                           
   466                           ; 3 bytes @ 0x15
   467  000075                     	ds	1
   468  000076                     ___ftmul@sign:
   469                           	opt stack 0
   470                           
   471                           ; 1 bytes @ 0x16
   472  000076                     	ds	1
   473  000077                     envoit_pwm@valeur:
   474                           	opt stack 0
   475                           
   476                           ; 3 bytes @ 0x17
   477  000077                     	ds	1
   478  000078                     ___ftdiv@exp:
   479                           	opt stack 0
   480                           
   481                           ; 1 bytes @ 0x18
   482  000078                     	ds	1
   483  000079                     ___ftdiv@sign:
   484                           	opt stack 0
   485                           
   486                           ; 1 bytes @ 0x19
   487  000079                     	ds	1
   488  00007A                     envoit_pwm@abs_valeur:
   489                           	opt stack 0
   490  00007A                     conversion_angle@angle:
   491                           	opt stack 0
   492                           
   493                           ; 3 bytes @ 0x1A
   494  00007A                     	ds	2
   495  00007C                     IntToC@j:
   496                           	opt stack 0
   497                           
   498                           ; 2 bytes @ 0x1C
   499  00007C                     	ds	2
   500  00007E                     PutsUART@chaine:
   501                           	opt stack 0
   502                           
   503                           ; 2 bytes @ 0x1E
   504  00007E                     	ds	2
   505  000080                     ??_PutsUART:
   506                           
   507                           ; 0 bytes @ 0x20
   508  000080                     	ds	2
   509  000082                     PutsUART@type_uart:
   510                           	opt stack 0
   511                           
   512                           ; 1 bytes @ 0x22
   513  000082                     	ds	1
   514  000083                     PutIntUART@nb:
   515                           	opt stack 0
   516                           
   517                           ; 2 bytes @ 0x23
   518  000083                     	ds	2
   519  000085                     PutIntUART@type_uart:
   520                           	opt stack 0
   521                           
   522                           ; 1 bytes @ 0x25
   523  000085                     	ds	1
   524  000086                     
   525                           ; 2 bytes @ 0x26
   526  000086                     	ds	2
   527  000088                     
   528                           ; 3 bytes @ 0x28
   529  000088                     	ds	3
   530  00008B                     main@i:
   531                           	opt stack 0
   532                           
   533                           ; 2 bytes @ 0x2B
   534  00008B                     	ds	2
   535  00008D                     main@angle:
   536                           	opt stack 0
   537                           
   538                           ; 2 bytes @ 0x2D
   539  00008D                     	ds	2
   540                           tblptru	equ	0xFF8
   541                           postinc0	equ	0xFEE
   542                           wreg	equ	0xFE8
   543                           
   544                           	psect	cstackCOMRAM
   545  000001                     __pcstackCOMRAM:
   546                           	opt stack 0
   547  000001                     ??_interruption_timer1:
   548  000001                     ??_interruption_INT0:
   549  000001                     interrupt_RX@temp:
   550                           	opt stack 0
   551                           
   552                           ; 1 bytes @ 0x0
   553  000001                     	ds	2
   554  000003                     subroutine_interruptions@priorite:
   555                           	opt stack 0
   556                           
   557                           ; 1 bytes @ 0x2
   558  000003                     	ds	1
   559  000004                     ??_low_isr:
   560                           
   561                           ; 0 bytes @ 0x3
   562  000004                     	ds	17
   563  000015                     ??i2_interruption_timer1:
   564  000015                     ??i2_interruption_INT0:
   565  000015                     i2interrupt_RX@temp:
   566                           	opt stack 0
   567                           
   568                           ; 1 bytes @ 0x14
   569  000015                     	ds	2
   570  000017                     i2subroutine_interruptions@priorite:
   571                           	opt stack 0
   572                           
   573                           ; 1 bytes @ 0x16
   574  000017                     	ds	1
   575  000018                     ??_high_isr:
   576                           
   577                           ; 0 bytes @ 0x17
   578  000018                     	ds	14
   579                           tblptru	equ	0xFF8
   580                           postinc0	equ	0xFEE
   581                           wreg	equ	0xFE8
   582                           
   583 ;;
   584 ;;Main: autosize = 0, tempsize = 0, incstack = 0, save=0
   585 ;;
   586 ;; *************** function _main *****************
   587 ;; Defined at:
   588 ;;		line 82 in file "main.c"
   589 ;; Parameters:    Size  Location     Type
   590 ;;  argc            2   38[BANK0 ] int 
   591 ;;  argv            3   40[BANK0 ] PTR PTR unsigned char 
   592 ;; Auto vars:     Size  Location     Type
   593 ;;  angle           2   45[BANK0 ] int 
   594 ;;  i               2   43[BANK0 ] int 
   595 ;; Return value:  Size  Location     Type
   596 ;;                  2   38[BANK0 ] int 
   597 ;; Registers used:
   598 ;;		wreg, fsr0l, fsr0h, fsr2l, fsr2h, status,2, status,0, tblptrl, tblptrh, tblptru, prodl, prodh, cstack
   599 ;; Tracked objects:
   600 ;;		On entry : 0/0
   601 ;;		On exit  : 0/0
   602 ;;		Unchanged: 0/0
   603 ;; Data sizes:     COMRAM   BANK0   BANK1   BANK2
   604 ;;      Params:         0       5       0       0
   605 ;;      Locals:         0       4       0       0
   606 ;;      Temps:          0       0       0       0
   607 ;;      Totals:         0       9       0       0
   608 ;;Total ram usage:        9 bytes
   609 ;; Hardware stack levels required when called:   10
   610 ;; This function calls:
   611 ;;		_PutIntUART
   612 ;;		_PutsUART
   613 ;;		___fttol
   614 ;;		_conversion_angle
   615 ;;		_envoit_pwm
   616 ;;		_init_system
   617 ;; This function is called by:
   618 ;;		Startup code after reset
   619 ;; This function uses a non-reentrant model
   620 ;;
   621                           
   622                           	psect	text0
   623  00116C                     __ptext0:
   624                           	opt stack 0
   625  00116C                     _main:
   626                           	opt stack 21
   627                           
   628                           ;main.c: 85: init_system ();
   629                           
   630                           ; BSR set to: 1
   631                           ;incstack = 0
   632  00116C  EC01  F00C         	call	_init_system	;wreg free
   633                           
   634                           ;main.c: 86: int i = 0;
   635  001170  0E00               	movlw	0
   636  001172  0100               	movlb	0	; () banked
   637  001174  6F8C               	movwf	(main@i+1)& (0+255),b
   638  001176  0E00               	movlw	0
   639  001178  6F8B               	movwf	main@i& (0+255),b
   640                           
   641                           ; BSR set to: 0
   642                           ;main.c: 88: PORTDbits.RD1 = 1;
   643  00117A  8283               	bsf	3971,1,c	;volatile
   644                           
   645                           ; BSR set to: 0
   646                           ;main.c: 89: LATCbits.LATC2 = 1;
   647  00117C  848B               	bsf	3979,2,c	;volatile
   648                           
   649                           ; BSR set to: 0
   650                           ;main.c: 90: PORTBbits.RB0 = 1;
   651  00117E  8081               	bsf	3969,0,c	;volatile
   652                           
   653                           ; BSR set to: 0
   654                           ;main.c: 92: PutsUART(0, "Bonjour les amis !!! =)");
   655  001180  0E01               	movlw	low STR_1
   656  001182  0100               	movlb	0	; () banked
   657  001184  6F7E               	movwf	PutsUART@chaine& (0+255),b
   658  001186  0E03               	movlw	high STR_1
   659  001188  0100               	movlb	0	; () banked
   660  00118A  6F7F               	movwf	(PutsUART@chaine+1)& (0+255),b
   661  00118C  0E00               	movlw	0
   662  00118E  EC58  F00A         	call	_PutsUART
   663                           
   664                           ;main.c: 93: while(PORTCbits.RC4 == 0);
   665  001192  D000               	goto	l25
   666  001194                     l25:
   667  001194  A882               	btfss	3970,4,c	;volatile
   668  001196  D7FE               	goto	l25
   669                           
   670                           ;main.c: 94: PORTBbits.RB0= 0;
   671  001198  9081               	bcf	3969,0,c	;volatile
   672                           
   673                           ;main.c: 95: PORTBbits.RB4 =1;
   674  00119A  8881               	bsf	3969,4,c	;volatile
   675                           
   676                           ;main.c: 96: envoit_pwm(50);
   677  00119C  0E00               	movlw	0
   678  00119E  0100               	movlb	0	; () banked
   679  0011A0  6F77               	movwf	envoit_pwm@valeur& (0+255),b
   680  0011A2  0E48               	movlw	72
   681  0011A4  0100               	movlb	0	; () banked
   682  0011A6  6F78               	movwf	(envoit_pwm@valeur+1)& (0+255),b
   683  0011A8  0E42               	movlw	66
   684  0011AA  0100               	movlb	0	; () banked
   685  0011AC  6F79               	movwf	(envoit_pwm@valeur+2)& (0+255),b
   686  0011AE  EC76  F007         	call	_envoit_pwm	;wreg free
   687                           
   688                           ;main.c: 98: flag_cpateur = 0;
   689  0011B2  0E00               	movlw	0
   690  0011B4  0100               	movlb	0	; () banked
   691  0011B6  6FA7               	movwf	_flag_cpateur& (0+255),b
   692  0011B8  D000               	goto	l3224
   693  0011BA                     l3224:
   694                           
   695                           ;main.c: 101: {
   696                           ;main.c: 102: if (flag_cpateur == 1)
   697  0011BA  0100               	movlb	0	; () banked
   698  0011BC  05A7               	decf	_flag_cpateur& (0+255),w,b
   699  0011BE  A4D8               	btfss	status,2,c
   700  0011C0  D7FC               	goto	l3224
   701                           
   702                           ; BSR set to: 0
   703                           ;main.c: 103: {
   704                           ;main.c: 105: conversion_angle();
   705  0011C2  EC1D  F00A         	call	_conversion_angle	;wreg free
   706                           
   707                           ;main.c: 106: flag_cpateur = 0;
   708  0011C6  0E00               	movlw	0
   709  0011C8  0100               	movlb	0	; () banked
   710  0011CA  6FA7               	movwf	_flag_cpateur& (0+255),b
   711                           
   712                           ; BSR set to: 0
   713                           ;main.c: 108: int16_t angle = (int16_t) position.angle;
   714  0011CC  C097  F060         	movff	_position+8,___fttol@f1
   715  0011D0  C098  F061         	movff	_position+9,___fttol@f1+1
   716  0011D4  C099  F062         	movff	_position+10,___fttol@f1+2
   717  0011D8  EC4D  F006         	call	___fttol	;wreg free
   718  0011DC  C060  F08D         	movff	?___fttol,main@angle
   719  0011E0  C061  F08E         	movff	?___fttol+1,main@angle+1
   720                           
   721                           ;main.c: 109: PutIntUART(0, position.angle);
   722  0011E4  C097  F060         	movff	_position+8,___fttol@f1
   723  0011E8  C098  F061         	movff	_position+9,___fttol@f1+1
   724  0011EC  C099  F062         	movff	_position+10,___fttol@f1+2
   725  0011F0  EC4D  F006         	call	___fttol	;wreg free
   726  0011F4  C060  F083         	movff	?___fttol,PutIntUART@nb
   727  0011F8  C061  F084         	movff	?___fttol+1,PutIntUART@nb+1
   728  0011FC  0E00               	movlw	0
   729  0011FE  EC57  F00C         	call	_PutIntUART
   730                           
   731                           ;main.c: 110: PutsUART(0, "\n\r");
   732  001202  0E2A               	movlw	low (STR_4+17)
   733  001204  0100               	movlb	0	; () banked
   734  001206  6F7E               	movwf	PutsUART@chaine& (0+255),b
   735  001208  0E03               	movlw	high (STR_4+17)
   736  00120A  0100               	movlb	0	; () banked
   737  00120C  6F7F               	movwf	(PutsUART@chaine+1)& (0+255),b
   738  00120E  0E00               	movlw	0
   739  001210  EC58  F00A         	call	_PutsUART
   740  001214  D7D2               	goto	l3224
   741  001216  D7FF               	goto	l33
   742                           
   743                           ;main.c: 155: return (0);
   744                           ;	Return value of _main is never used
   745  001218  EF54  F000         	goto	start
   746  00121C                     __end_of_main:
   747                           	opt stack 0
   748                           tblptru	equ	0xFF8
   749                           postinc0	equ	0xFEE
   750                           wreg	equ	0xFE8
   751                           status	equ	0xFD8
   752                           
   753 ;; *************** function _init_system *****************
   754 ;; Defined at:
   755 ;;		line 22 in file "system.c"
   756 ;; Parameters:    Size  Location     Type
   757 ;;		None
   758 ;; Auto vars:     Size  Location     Type
   759 ;;		None
   760 ;; Return value:  Size  Location     Type
   761 ;;		None               void
   762 ;; Registers used:
   763 ;;		wreg, status,2, cstack
   764 ;; Tracked objects:
   765 ;;		On entry : 0/0
   766 ;;		On exit  : 0/0
   767 ;;		Unchanged: 0/0
   768 ;; Data sizes:     COMRAM   BANK0   BANK1   BANK2
   769 ;;      Params:         0       0       0       0
   770 ;;      Locals:         0       0       0       0
   771 ;;      Temps:          0       0       0       0
   772 ;;      Totals:         0       0       0       0
   773 ;;Total ram usage:        0 bytes
   774 ;; Hardware stack levels used:    1
   775 ;; Hardware stack levels required when called:    8
   776 ;; This function calls:
   777 ;;		_ConfigInterrupt
   778 ;;		_ConfigPorts
   779 ;;		_config_QEI
   780 ;;		_config_pwm
   781 ;;		_config_uart
   782 ;;		_init_timer_0
   783 ;;		_init_uart_logiciel
   784 ;;		_init_uart_reception
   785 ;;		_reglage_PID
   786 ;; This function is called by:
   787 ;;		_main
   788 ;; This function uses a non-reentrant model
   789 ;;
   790                           
   791                           	psect	text1
   792  001802                     __ptext1:
   793                           	opt stack 0
   794  001802                     _init_system:
   795                           	opt stack 22
   796                           
   797                           ;system.c: 25: ConfigPorts();
   798                           
   799                           ;incstack = 0
   800  001802  EC0E  F009         	call	_ConfigPorts	;wreg free
   801                           
   802                           ;system.c: 26: ConfigInterrupt();
   803  001806  EC55  F009         	call	_ConfigInterrupt	;wreg free
   804                           
   805                           ;system.c: 27: init_timer_0();
   806  00180A  EC82  F00C         	call	_init_timer_0	;wreg free
   807                           
   808                           ;system.c: 28: init_uart_logiciel();
   809  00180E  ECA9  F00C         	call	_init_uart_logiciel	;wreg free
   810                           
   811                           ;system.c: 29: init_uart_reception();
   812  001812  EC8D  F00C         	call	_init_uart_reception	;wreg free
   813                           
   814                           ;system.c: 30: config_uart ();
   815  001816  EC68  F00C         	call	_config_uart	;wreg free
   816                           
   817                           ;system.c: 31: config_pwm();
   818  00181A  ECF4  F00A         	call	_config_pwm	;wreg free
   819                           
   820                           ;system.c: 32: config_QEI();
   821  00181E  ECC5  F00A         	call	_config_QEI	;wreg free
   822                           
   823                           ;system.c: 33: reglage_PID();
   824  001822  EC9A  F00B         	call	_reglage_PID	;wreg free
   825                           
   826                           ;system.c: 35: flag_cpateur = 0;
   827  001826  0E00               	movlw	0
   828  001828  0100               	movlb	0	; () banked
   829  00182A  6FA7               	movwf	_flag_cpateur& (0+255),b
   830                           
   831                           ; BSR set to: 0
   832  00182C  0012               	return		;funcret
   833  00182E                     __end_of_init_system:
   834                           	opt stack 0
   835                           tblptru	equ	0xFF8
   836                           postinc0	equ	0xFEE
   837                           wreg	equ	0xFE8
   838                           status	equ	0xFD8
   839                           
   840 ;; *************** function _reglage_PID *****************
   841 ;; Defined at:
   842 ;;		line 64 in file "asserv.c"
   843 ;; Parameters:    Size  Location     Type
   844 ;;		None
   845 ;; Auto vars:     Size  Location     Type
   846 ;;		None
   847 ;; Return value:  Size  Location     Type
   848 ;;		None               void
   849 ;; Registers used:
   850 ;;		wreg, status,2
   851 ;; Tracked objects:
   852 ;;		On entry : 0/0
   853 ;;		On exit  : 0/0
   854 ;;		Unchanged: 0/0
   855 ;; Data sizes:     COMRAM   BANK0   BANK1   BANK2
   856 ;;      Params:         0       0       0       0
   857 ;;      Locals:         0       0       0       0
   858 ;;      Temps:          0       0       0       0
   859 ;;      Totals:         0       0       0       0
   860 ;;Total ram usage:        0 bytes
   861 ;; Hardware stack levels used:    1
   862 ;; Hardware stack levels required when called:    6
   863 ;; This function calls:
   864 ;;		Nothing
   865 ;; This function is called by:
   866 ;;		_init_system
   867 ;; This function uses a non-reentrant model
   868 ;;
   869                           
   870                           	psect	text2
   871  001734                     __ptext2:
   872                           	opt stack 0
   873  001734                     _reglage_PID:
   874                           	opt stack 23
   875                           
   876                           ;asserv.c: 67: PID.KP = 0.;
   877                           
   878                           ; BSR set to: 0
   879                           ;incstack = 0
   880  001734  0E00               	movlw	0
   881  001736  0100               	movlb	0	; () banked
   882  001738  6F9A               	movwf	_PID& (0+255),b
   883  00173A  0E00               	movlw	0
   884  00173C  0100               	movlb	0	; () banked
   885  00173E  6F9B               	movwf	(_PID+1)& (0+255),b
   886  001740  0E00               	movlw	0
   887  001742  0100               	movlb	0	; () banked
   888  001744  6F9C               	movwf	(_PID+2)& (0+255),b
   889                           
   890                           ;asserv.c: 68: PID.KI = 10.;
   891  001746  0E00               	movlw	0
   892  001748  0100               	movlb	0	; () banked
   893  00174A  6F9D               	movwf	(_PID+3)& (0+255),b
   894  00174C  0E20               	movlw	32
   895  00174E  0100               	movlb	0	; () banked
   896  001750  6F9E               	movwf	(_PID+4)& (0+255),b
   897  001752  0E41               	movlw	65
   898  001754  0100               	movlb	0	; () banked
   899  001756  6F9F               	movwf	(_PID+5)& (0+255),b
   900                           
   901                           ;asserv.c: 69: PID.KD = 0.;
   902  001758  0E00               	movlw	0
   903  00175A  0100               	movlb	0	; () banked
   904  00175C  6FA0               	movwf	(_PID+6)& (0+255),b
   905  00175E  0E00               	movlw	0
   906  001760  0100               	movlb	0	; () banked
   907  001762  6FA1               	movwf	(_PID+7)& (0+255),b
   908  001764  0E00               	movlw	0
   909  001766  0100               	movlb	0	; () banked
   910  001768  6FA2               	movwf	(_PID+8)& (0+255),b
   911                           
   912                           ; BSR set to: 0
   913  00176A  0012               	return		;funcret
   914  00176C                     __end_of_reglage_PID:
   915                           	opt stack 0
   916                           tblptru	equ	0xFF8
   917                           postinc0	equ	0xFEE
   918                           wreg	equ	0xFE8
   919                           status	equ	0xFD8
   920                           
   921 ;; *************** function _init_uart_reception *****************
   922 ;; Defined at:
   923 ;;		line 72 in file "uart.c"
   924 ;; Parameters:    Size  Location     Type
   925 ;;		None
   926 ;; Auto vars:     Size  Location     Type
   927 ;;		None
   928 ;; Return value:  Size  Location     Type
   929 ;;		None               void
   930 ;; Registers used:
   931 ;;		wreg, status,2
   932 ;; Tracked objects:
   933 ;;		On entry : 0/0
   934 ;;		On exit  : 0/0
   935 ;;		Unchanged: 0/0
   936 ;; Data sizes:     COMRAM   BANK0   BANK1   BANK2
   937 ;;      Params:         0       0       0       0
   938 ;;      Locals:         0       0       0       0
   939 ;;      Temps:          0       0       0       0
   940 ;;      Totals:         0       0       0       0
   941 ;;Total ram usage:        0 bytes
   942 ;; Hardware stack levels used:    1
   943 ;; Hardware stack levels required when called:    6
   944 ;; This function calls:
   945 ;;		Nothing
   946 ;; This function is called by:
   947 ;;		_init_system
   948 ;; This function uses a non-reentrant model
   949 ;;
   950                           
   951                           	psect	text3
   952  00191A                     __ptext3:
   953                           	opt stack 0
   954  00191A                     _init_uart_reception:
   955                           	opt stack 23
   956                           
   957                           ;uart.c: 74: uart_reception.buffer_plein = 0;
   958                           
   959                           ; BSR set to: 0
   960                           ;incstack = 0
   961  00191A  0E00               	movlw	0
   962  00191C  0101               	movlb	1	; () banked
   963  00191E  6F65               	movwf	(_uart_reception+101)& (0+255),b
   964                           
   965                           ;uart.c: 75: uart_reception.buffer_vide = 1;
   966  001920  0E01               	movlw	1
   967  001922  0101               	movlb	1	; () banked
   968  001924  6F66               	movwf	(_uart_reception+102)& (0+255),b
   969                           
   970                           ;uart.c: 76: uart_reception.indice = 0;
   971  001926  0E00               	movlw	0
   972  001928  0101               	movlb	1	; () banked
   973  00192A  6F64               	movwf	(_uart_reception+100)& (0+255),b
   974                           
   975                           ; BSR set to: 1
   976  00192C  0012               	return		;funcret
   977  00192E                     __end_of_init_uart_reception:
   978                           	opt stack 0
   979                           tblptru	equ	0xFF8
   980                           postinc0	equ	0xFEE
   981                           wreg	equ	0xFE8
   982                           status	equ	0xFD8
   983                           
   984 ;; *************** function _init_uart_logiciel *****************
   985 ;; Defined at:
   986 ;;		line 65 in file "uart.c"
   987 ;; Parameters:    Size  Location     Type
   988 ;;		None
   989 ;; Auto vars:     Size  Location     Type
   990 ;;		None
   991 ;; Return value:  Size  Location     Type
   992 ;;		None               void
   993 ;; Registers used:
   994 ;;		wreg, status,2, cstack
   995 ;; Tracked objects:
   996 ;;		On entry : 0/0
   997 ;;		On exit  : 0/0
   998 ;;		Unchanged: 0/0
   999 ;; Data sizes:     COMRAM   BANK0   BANK1   BANK2
  1000 ;;      Params:         0       0       0       0
  1001 ;;      Locals:         0       0       0       0
  1002 ;;      Temps:          0       0       0       0
  1003 ;;      Totals:         0       0       0       0
  1004 ;;Total ram usage:        0 bytes
  1005 ;; Hardware stack levels used:    1
  1006 ;; Hardware stack levels required when called:    7
  1007 ;; This function calls:
  1008 ;;		_init_timer_1
  1009 ;; This function is called by:
  1010 ;;		_init_system
  1011 ;; This function uses a non-reentrant model
  1012 ;;
  1013                           
  1014                           	psect	text4
  1015  001952                     __ptext4:
  1016                           	opt stack 0
  1017  001952                     _init_uart_logiciel:
  1018                           	opt stack 22
  1019                           
  1020                           ;uart.c: 67: uart_logiciel.transmission_en_cours = 0;
  1021                           
  1022                           ; BSR set to: 1
  1023                           ;incstack = 0
  1024  001952  0E00               	movlw	0
  1025  001954  6E44               	movwf	_uart_logiciel+11,c
  1026                           
  1027                           ;uart.c: 68: uart_logiciel.indice = 0;
  1028  001956  0E00               	movlw	0
  1029  001958  6E45               	movwf	_uart_logiciel+12,c
  1030                           
  1031                           ;uart.c: 69: init_timer_1();
  1032  00195A  EC76  F00C         	call	_init_timer_1	;wreg free
  1033  00195E  0012               	return		;funcret
  1034  001960                     __end_of_init_uart_logiciel:
  1035                           	opt stack 0
  1036                           tblptru	equ	0xFF8
  1037                           postinc0	equ	0xFEE
  1038                           wreg	equ	0xFE8
  1039                           status	equ	0xFD8
  1040                           
  1041 ;; *************** function _init_timer_1 *****************
  1042 ;; Defined at:
  1043 ;;		line 57 in file "system.c"
  1044 ;; Parameters:    Size  Location     Type
  1045 ;;		None
  1046 ;; Auto vars:     Size  Location     Type
  1047 ;;		None
  1048 ;; Return value:  Size  Location     Type
  1049 ;;		None               void
  1050 ;; Registers used:
  1051 ;;		wreg, status,2
  1052 ;; Tracked objects:
  1053 ;;		On entry : 0/0
  1054 ;;		On exit  : 0/0
  1055 ;;		Unchanged: 0/0
  1056 ;; Data sizes:     COMRAM   BANK0   BANK1   BANK2
  1057 ;;      Params:         0       0       0       0
  1058 ;;      Locals:         0       0       0       0
  1059 ;;      Temps:          0       0       0       0
  1060 ;;      Totals:         0       0       0       0
  1061 ;;Total ram usage:        0 bytes
  1062 ;; Hardware stack levels used:    1
  1063 ;; Hardware stack levels required when called:    6
  1064 ;; This function calls:
  1065 ;;		Nothing
  1066 ;; This function is called by:
  1067 ;;		_init_uart_logiciel
  1068 ;; This function uses a non-reentrant model
  1069 ;;
  1070                           
  1071                           	psect	text5
  1072  0018EC                     __ptext5:
  1073                           	opt stack 0
  1074  0018EC                     _init_timer_1:
  1075                           	opt stack 22
  1076                           
  1077                           ;system.c: 59: T1CONbits.RD16 = 1;
  1078                           
  1079                           ;incstack = 0
  1080  0018EC  8ECD               	bsf	4045,7,c	;volatile
  1081                           
  1082                           ;system.c: 60: T1CONbits.T1RUN = 0;
  1083  0018EE  9CCD               	bcf	4045,6,c	;volatile
  1084                           
  1085                           ;system.c: 61: T1CONbits.TMR1CS = 0;
  1086  0018F0  92CD               	bcf	4045,1,c	;volatile
  1087                           
  1088                           ;system.c: 62: T1CONbits.T1OSCEN = 1;
  1089  0018F2  86CD               	bsf	4045,3,c	;volatile
  1090                           
  1091                           ;system.c: 63: T1CONbits.T1CKPS0 = 0;
  1092  0018F4  98CD               	bcf	4045,4,c	;volatile
  1093                           
  1094                           ;system.c: 64: T1CONbits.T1CKPS1 = 0;
  1095  0018F6  9ACD               	bcf	4045,5,c	;volatile
  1096                           
  1097                           ;system.c: 66: TMR1 = 65519;
  1098  0018F8  0EFF               	movlw	255
  1099  0018FA  6ECF               	movwf	4047,c	;volatile
  1100  0018FC  0EEF               	movlw	239
  1101  0018FE  6ECE               	movwf	4046,c	;volatile
  1102                           
  1103                           ;system.c: 69: TMR1ON = 1;
  1104  001900  80CD               	bsf	4045,0,c	;volatile
  1105  001902  0012               	return		;funcret
  1106  001904                     __end_of_init_timer_1:
  1107                           	opt stack 0
  1108                           tblptru	equ	0xFF8
  1109                           postinc0	equ	0xFEE
  1110                           wreg	equ	0xFE8
  1111                           status	equ	0xFD8
  1112                           
  1113 ;; *************** function _init_timer_0 *****************
  1114 ;; Defined at:
  1115 ;;		line 45 in file "system.c"
  1116 ;; Parameters:    Size  Location     Type
  1117 ;;		None
  1118 ;; Auto vars:     Size  Location     Type
  1119 ;;		None
  1120 ;; Return value:  Size  Location     Type
  1121 ;;		None               void
  1122 ;; Registers used:
  1123 ;;		wreg, status,2
  1124 ;; Tracked objects:
  1125 ;;		On entry : 0/0
  1126 ;;		On exit  : 0/0
  1127 ;;		Unchanged: 0/0
  1128 ;; Data sizes:     COMRAM   BANK0   BANK1   BANK2
  1129 ;;      Params:         0       0       0       0
  1130 ;;      Locals:         0       0       0       0
  1131 ;;      Temps:          0       0       0       0
  1132 ;;      Totals:         0       0       0       0
  1133 ;;Total ram usage:        0 bytes
  1134 ;; Hardware stack levels used:    1
  1135 ;; Hardware stack levels required when called:    6
  1136 ;; This function calls:
  1137 ;;		Nothing
  1138 ;; This function is called by:
  1139 ;;		_init_system
  1140 ;; This function uses a non-reentrant model
  1141 ;;
  1142                           
  1143                           	psect	text6
  1144  001904                     __ptext6:
  1145                           	opt stack 0
  1146  001904                     _init_timer_0:
  1147                           	opt stack 23
  1148                           
  1149                           ;system.c: 47: T0CONbits.T016BIT = 1;
  1150                           
  1151                           ;incstack = 0
  1152  001904  8CD5               	bsf	4053,6,c	;volatile
  1153                           
  1154                           ;system.c: 48: T0CONbits.T0PS = 0b100;
  1155  001906  50D5               	movf	4053,w,c	;volatile
  1156  001908  0BF8               	andlw	-8
  1157  00190A  0904               	iorlw	4
  1158  00190C  6ED5               	movwf	4053,c	;volatile
  1159                           
  1160                           ;system.c: 49: T0CONbits.T0CS = 0;
  1161  00190E  9AD5               	bcf	4053,5,c	;volatile
  1162                           
  1163                           ;system.c: 50: T0CONbits.PSA = 0;
  1164  001910  96D5               	bcf	4053,3,c	;volatile
  1165                           
  1166                           ;system.c: 52: TMR0L = 131;
  1167  001912  0E83               	movlw	131
  1168  001914  6ED6               	movwf	4054,c	;volatile
  1169                           
  1170                           ;system.c: 54: TMR0ON = 1;
  1171  001916  8ED5               	bsf	4053,7,c	;volatile
  1172  001918  0012               	return		;funcret
  1173  00191A                     __end_of_init_timer_0:
  1174                           	opt stack 0
  1175                           tblptru	equ	0xFF8
  1176                           postinc0	equ	0xFEE
  1177                           wreg	equ	0xFE8
  1178                           status	equ	0xFD8
  1179                           
  1180 ;; *************** function _config_uart *****************
  1181 ;; Defined at:
  1182 ;;		line 31 in file "uart.c"
  1183 ;; Parameters:    Size  Location     Type
  1184 ;;		None
  1185 ;; Auto vars:     Size  Location     Type
  1186 ;;		None
  1187 ;; Return value:  Size  Location     Type
  1188 ;;		None               void
  1189 ;; Registers used:
  1190 ;;		wreg, status,2
  1191 ;; Tracked objects:
  1192 ;;		On entry : 0/0
  1193 ;;		On exit  : 0/0
  1194 ;;		Unchanged: 0/0
  1195 ;; Data sizes:     COMRAM   BANK0   BANK1   BANK2
  1196 ;;      Params:         0       0       0       0
  1197 ;;      Locals:         0       0       0       0
  1198 ;;      Temps:          0       0       0       0
  1199 ;;      Totals:         0       0       0       0
  1200 ;;Total ram usage:        0 bytes
  1201 ;; Hardware stack levels used:    1
  1202 ;; Hardware stack levels required when called:    6
  1203 ;; This function calls:
  1204 ;;		Nothing
  1205 ;; This function is called by:
  1206 ;;		_init_system
  1207 ;; This function uses a non-reentrant model
  1208 ;;
  1209                           
  1210                           	psect	text7
  1211  0018D0                     __ptext7:
  1212                           	opt stack 0
  1213  0018D0                     _config_uart:
  1214                           	opt stack 23
  1215                           
  1216                           ;uart.c: 39: TXSTAbits.TXEN = 1;
  1217                           
  1218                           ;incstack = 0
  1219  0018D0  8AAC               	bsf	4012,5,c	;volatile
  1220                           
  1221                           ;uart.c: 40: TXSTAbits.TX9 = 0;
  1222  0018D2  9CAC               	bcf	4012,6,c	;volatile
  1223                           
  1224                           ;uart.c: 41: TXSTAbits.SYNC = 0;
  1225  0018D4  98AC               	bcf	4012,4,c	;volatile
  1226                           
  1227                           ;uart.c: 42: TXSTAbits.SENDB = 0;
  1228  0018D6  96AC               	bcf	4012,3,c	;volatile
  1229                           
  1230                           ;uart.c: 43: TXSTAbits.BRGH = 1;
  1231  0018D8  84AC               	bsf	4012,2,c	;volatile
  1232                           
  1233                           ;uart.c: 44: TXSTAbits.TX9 = 0;
  1234  0018DA  9CAC               	bcf	4012,6,c	;volatile
  1235                           
  1236                           ;uart.c: 47: BAUDCONbits.BRG16 = 1;
  1237  0018DC  86AA               	bsf	4010,3,c	;volatile
  1238                           
  1239                           ;uart.c: 49: BAUDCONbits.ABDEN = 0;
  1240  0018DE  90AA               	bcf	4010,0,c	;volatile
  1241                           
  1242                           ;uart.c: 55: SPBRG = 35;
  1243  0018E0  0E23               	movlw	35
  1244  0018E2  6EAF               	movwf	4015,c	;volatile
  1245                           
  1246                           ;uart.c: 59: RCSTAbits.SPEN = 1;
  1247  0018E4  8EAB               	bsf	4011,7,c	;volatile
  1248                           
  1249                           ;uart.c: 60: RCSTAbits.RX9 = 0;
  1250  0018E6  9CAB               	bcf	4011,6,c	;volatile
  1251                           
  1252                           ;uart.c: 61: RCSTAbits.CREN = 1;
  1253  0018E8  88AB               	bsf	4011,4,c	;volatile
  1254  0018EA  0012               	return		;funcret
  1255  0018EC                     __end_of_config_uart:
  1256                           	opt stack 0
  1257                           tblptru	equ	0xFF8
  1258                           postinc0	equ	0xFEE
  1259                           wreg	equ	0xFE8
  1260                           status	equ	0xFD8
  1261                           
  1262 ;; *************** function _config_pwm *****************
  1263 ;; Defined at:
  1264 ;;		line 26 in file "moteur.c"
  1265 ;; Parameters:    Size  Location     Type
  1266 ;;		None
  1267 ;; Auto vars:     Size  Location     Type
  1268 ;;		None
  1269 ;; Return value:  Size  Location     Type
  1270 ;;		None               void
  1271 ;; Registers used:
  1272 ;;		wreg, status,2
  1273 ;; Tracked objects:
  1274 ;;		On entry : 0/0
  1275 ;;		On exit  : 0/0
  1276 ;;		Unchanged: 0/0
  1277 ;; Data sizes:     COMRAM   BANK0   BANK1   BANK2
  1278 ;;      Params:         0       0       0       0
  1279 ;;      Locals:         0       0       0       0
  1280 ;;      Temps:          0       0       0       0
  1281 ;;      Totals:         0       0       0       0
  1282 ;;Total ram usage:        0 bytes
  1283 ;; Hardware stack levels used:    1
  1284 ;; Hardware stack levels required when called:    6
  1285 ;; This function calls:
  1286 ;;		Nothing
  1287 ;; This function is called by:
  1288 ;;		_init_system
  1289 ;; This function uses a non-reentrant model
  1290 ;;
  1291                           
  1292                           	psect	text8
  1293  0015E8                     __ptext8:
  1294                           	opt stack 0
  1295  0015E8                     _config_pwm:
  1296                           	opt stack 23
  1297                           
  1298                           ;moteur.c: 28: PTCON0bits.PTOPS = 0;
  1299                           
  1300                           ;incstack = 0
  1301  0015E8  987F               	bcf	3967,4,c	;volatile
  1302  0015EA  9A7F               	bcf	3967,5,c	;volatile
  1303  0015EC  9C7F               	bcf	3967,6,c	;volatile
  1304  0015EE  9E7F               	bcf	3967,7,c	;volatile
  1305                           
  1306                           ;moteur.c: 29: PTCON0bits.PTCKPS = 0;
  1307  0015F0  0EF3               	movlw	-13
  1308  0015F2  167F               	andwf	3967,f,c	;volatile
  1309                           
  1310                           ;moteur.c: 30: PTCON0bits.PTMOD = 0;
  1311  0015F4  0EFC               	movlw	-4
  1312  0015F6  167F               	andwf	3967,f,c	;volatile
  1313                           
  1314                           ;moteur.c: 32: PTCON1bits.PTEN = 1;
  1315  0015F8  8E7E               	bsf	3966,7,c	;volatile
  1316                           
  1317                           ;moteur.c: 34: PWMCON0bits.PMOD0 = 1;
  1318  0015FA  806F               	bsf	3951,0,c	;volatile
  1319                           
  1320                           ;moteur.c: 35: PWMCON0bits.PWMEN = 0b001;
  1321  0015FC  506F               	movf	3951,w,c	;volatile
  1322  0015FE  0B8F               	andlw	-113
  1323  001600  0910               	iorlw	16
  1324  001602  6E6F               	movwf	3951,c	;volatile
  1325                           
  1326                           ;moteur.c: 37: PWMCON1bits.UDIS = 0;
  1327  001604  926E               	bcf	3950,1,c	;volatile
  1328                           
  1329                           ;moteur.c: 39: PTPERL = 166;
  1330  001606  0EA6               	movlw	166
  1331  001608  6E7B               	movwf	3963,c	;volatile
  1332                           
  1333                           ;moteur.c: 40: PTPERH = 0;
  1334  00160A  0E00               	movlw	0
  1335  00160C  6E7A               	movwf	3962,c	;volatile
  1336                           
  1337                           ;moteur.c: 43: PDC0L = 0;
  1338  00160E  0E00               	movlw	0
  1339  001610  6E79               	movwf	3961,c	;volatile
  1340                           
  1341                           ;moteur.c: 44: PDC0H = 0;
  1342  001612  0E00               	movlw	0
  1343  001614  6E78               	movwf	3960,c	;volatile
  1344                           
  1345                           ;moteur.c: 45: PDC1L = 0;
  1346  001616  0E00               	movlw	0
  1347  001618  6E77               	movwf	3959,c	;volatile
  1348                           
  1349                           ;moteur.c: 46: PDC1H = 0;
  1350  00161A  0E00               	movlw	0
  1351  00161C  6E76               	movwf	3958,c	;volatile
  1352                           
  1353                           ;moteur.c: 47: PDC2L = 0;
  1354  00161E  0E00               	movlw	0
  1355  001620  6E75               	movwf	3957,c	;volatile
  1356                           
  1357                           ;moteur.c: 48: PDC2H = 0;
  1358  001622  0E00               	movlw	0
  1359  001624  6E74               	movwf	3956,c	;volatile
  1360                           
  1361                           ;moteur.c: 49: PDC3L = 0;
  1362  001626  0E00               	movlw	0
  1363  001628  6E73               	movwf	3955,c	;volatile
  1364                           
  1365                           ;moteur.c: 50: PDC3H = 0;
  1366  00162A  0E00               	movlw	0
  1367  00162C  6E72               	movwf	3954,c	;volatile
  1368  00162E  0012               	return		;funcret
  1369  001630                     __end_of_config_pwm:
  1370                           	opt stack 0
  1371                           tblptru	equ	0xFF8
  1372                           postinc0	equ	0xFEE
  1373                           wreg	equ	0xFE8
  1374                           status	equ	0xFD8
  1375                           
  1376 ;; *************** function _config_QEI *****************
  1377 ;; Defined at:
  1378 ;;		line 81 in file "moteur.c"
  1379 ;; Parameters:    Size  Location     Type
  1380 ;;		None
  1381 ;; Auto vars:     Size  Location     Type
  1382 ;;		None
  1383 ;; Return value:  Size  Location     Type
  1384 ;;		None               void
  1385 ;; Registers used:
  1386 ;;		wreg, status,2
  1387 ;; Tracked objects:
  1388 ;;		On entry : 0/0
  1389 ;;		On exit  : 0/0
  1390 ;;		Unchanged: 0/0
  1391 ;; Data sizes:     COMRAM   BANK0   BANK1   BANK2
  1392 ;;      Params:         0       0       0       0
  1393 ;;      Locals:         0       0       0       0
  1394 ;;      Temps:          0       0       0       0
  1395 ;;      Totals:         0       0       0       0
  1396 ;;Total ram usage:        0 bytes
  1397 ;; Hardware stack levels used:    1
  1398 ;; Hardware stack levels required when called:    6
  1399 ;; This function calls:
  1400 ;;		Nothing
  1401 ;; This function is called by:
  1402 ;;		_init_system
  1403 ;; This function uses a non-reentrant model
  1404 ;;
  1405                           
  1406                           	psect	text9
  1407  00158A                     __ptext9:
  1408                           	opt stack 0
  1409  00158A                     _config_QEI:
  1410                           	opt stack 23
  1411                           
  1412                           ;moteur.c: 83: CAP1CONbits.CAP1REN = 1;
  1413                           
  1414                           ;incstack = 0
  1415  00158A  8C63               	bsf	3939,6,c	;volatile
  1416                           
  1417                           ;moteur.c: 84: ANSEL0 = 0;
  1418  00158C  0E00               	movlw	0
  1419  00158E  6EB8               	movwf	4024,c	;volatile
  1420                           
  1421                           ;moteur.c: 87: QEICONbits.VELM = 1;
  1422  001590  8EB6               	bsf	4022,7,c	;volatile
  1423                           
  1424                           ;moteur.c: 88: QEICONbits.QERR = 0;
  1425  001592  9CB6               	bcf	4022,6,c	;volatile
  1426                           
  1427                           ;moteur.c: 89: QEICONbits.QEIM = 0b110;
  1428  001594  50B6               	movf	4022,w,c	;volatile
  1429  001596  0BE3               	andlw	-29
  1430  001598  0918               	iorlw	24
  1431  00159A  6EB6               	movwf	4022,c	;volatile
  1432                           
  1433                           ;moteur.c: 90: QEICONbits.PDEC = 0b01;
  1434  00159C  50B6               	movf	4022,w,c	;volatile
  1435  00159E  0BFC               	andlw	-4
  1436  0015A0  0901               	iorlw	1
  1437  0015A2  6EB6               	movwf	4022,c	;volatile
  1438                           
  1439                           ;moteur.c: 95: DFLTCONbits.FLT3EN = 1;
  1440  0015A4  8A60               	bsf	3936,5,c	;volatile
  1441                           
  1442                           ;moteur.c: 96: DFLTCONbits.FLT2EN = 1;
  1443  0015A6  8860               	bsf	3936,4,c	;volatile
  1444                           
  1445                           ;moteur.c: 97: DFLTCONbits.FLTCK = 0b010;
  1446  0015A8  5060               	movf	3936,w,c	;volatile
  1447  0015AA  0BF8               	andlw	-8
  1448  0015AC  0902               	iorlw	2
  1449  0015AE  6E60               	movwf	3936,c	;volatile
  1450                           
  1451                           ;moteur.c: 99: POSCNTH = 0;
  1452  0015B0  0E00               	movlw	0
  1453  0015B2  6E67               	movwf	3943,c	;volatile
  1454                           
  1455                           ;moteur.c: 100: POSCNTL = 0;
  1456  0015B4  0E00               	movlw	0
  1457  0015B6  6E66               	movwf	3942,c	;volatile
  1458                           
  1459                           ;moteur.c: 102: MAXCNTH = (uint8_t) ((4 * 2000) / 256);
  1460  0015B8  0E1F               	movlw	31
  1461  0015BA  6E65               	movwf	3941,c	;volatile
  1462                           
  1463                           ;moteur.c: 103: MAXCNTL = (uint8_t) ((4 * 2000) % 256);
  1464  0015BC  0E40               	movlw	64
  1465  0015BE  6E64               	movwf	3940,c	;volatile
  1466                           
  1467                           ;moteur.c: 105: position.ancien = 0;
  1468  0015C0  0E00               	movlw	0
  1469  0015C2  0100               	movlb	0	; () banked
  1470  0015C4  6F90               	movwf	(_position+1)& (0+255),b
  1471  0015C6  0E00               	movlw	0
  1472  0015C8  6F8F               	movwf	_position& (0+255),b
  1473                           
  1474                           ;moteur.c: 106: position.ecart = 0;
  1475  0015CA  0E00               	movlw	0
  1476  0015CC  0100               	movlb	0	; () banked
  1477  0015CE  6F93               	movwf	(_position+4)& (0+255),b
  1478  0015D0  0E00               	movlw	0
  1479  0015D2  6F94               	movwf	(_position+5)& (0+255),b
  1480  0015D4  0E00               	movlw	0
  1481  0015D6  6F95               	movwf	(_position+6)& (0+255),b
  1482  0015D8  0E00               	movlw	0
  1483  0015DA  6F96               	movwf	(_position+7)& (0+255),b
  1484                           
  1485                           ;moteur.c: 107: position.nouvelle = 0;
  1486  0015DC  0E00               	movlw	0
  1487  0015DE  0100               	movlb	0	; () banked
  1488  0015E0  6F92               	movwf	(_position+3)& (0+255),b
  1489  0015E2  0E00               	movlw	0
  1490  0015E4  6F91               	movwf	(_position+2)& (0+255),b
  1491                           
  1492                           ; BSR set to: 0
  1493  0015E6  0012               	return		;funcret
  1494  0015E8                     __end_of_config_QEI:
  1495                           	opt stack 0
  1496                           tblptru	equ	0xFF8
  1497                           postinc0	equ	0xFEE
  1498                           wreg	equ	0xFE8
  1499                           status	equ	0xFD8
  1500                           
  1501 ;; *************** function _ConfigPorts *****************
  1502 ;; Defined at:
  1503 ;;		line 91 in file "system.c"
  1504 ;; Parameters:    Size  Location     Type
  1505 ;;		None
  1506 ;; Auto vars:     Size  Location     Type
  1507 ;;		None
  1508 ;; Return value:  Size  Location     Type
  1509 ;;		None               void
  1510 ;; Registers used:
  1511 ;;		None
  1512 ;; Tracked objects:
  1513 ;;		On entry : 0/0
  1514 ;;		On exit  : 0/0
  1515 ;;		Unchanged: 0/0
  1516 ;; Data sizes:     COMRAM   BANK0   BANK1   BANK2
  1517 ;;      Params:         0       0       0       0
  1518 ;;      Locals:         0       0       0       0
  1519 ;;      Temps:          0       0       0       0
  1520 ;;      Totals:         0       0       0       0
  1521 ;;Total ram usage:        0 bytes
  1522 ;; Hardware stack levels used:    1
  1523 ;; Hardware stack levels required when called:    6
  1524 ;; This function calls:
  1525 ;;		Nothing
  1526 ;; This function is called by:
  1527 ;;		_init_system
  1528 ;; This function uses a non-reentrant model
  1529 ;;
  1530                           
  1531                           	psect	text10
  1532  00121C                     __ptext10:
  1533                           	opt stack 0
  1534  00121C                     _ConfigPorts:
  1535                           	opt stack 23
  1536                           
  1537                           ;system.c: 94: TRISAbits.RA0 = 0;
  1538                           
  1539                           ; BSR set to: 0
  1540                           ;incstack = 0
  1541  00121C  9092               	bcf	3986,0,c	;volatile
  1542                           
  1543                           ;system.c: 95: TRISAbits.RA1 = 0;
  1544  00121E  9292               	bcf	3986,1,c	;volatile
  1545                           
  1546                           ;system.c: 96: TRISAbits.RA2 = 0;
  1547  001220  9492               	bcf	3986,2,c	;volatile
  1548                           
  1549                           ;system.c: 97: TRISAbits.RA3 = 1;
  1550  001222  8692               	bsf	3986,3,c	;volatile
  1551                           
  1552                           ;system.c: 98: TRISAbits.RA4 = 1;
  1553  001224  8892               	bsf	3986,4,c	;volatile
  1554                           
  1555                           ;system.c: 99: TRISAbits.RA5 = 0;
  1556  001226  9A92               	bcf	3986,5,c	;volatile
  1557                           
  1558                           ;system.c: 100: TRISAbits.RA6 = 1;
  1559  001228  8C92               	bsf	3986,6,c	;volatile
  1560                           
  1561                           ;system.c: 101: TRISAbits.RA7 = 1;
  1562  00122A  8E92               	bsf	3986,7,c	;volatile
  1563                           
  1564                           ;system.c: 104: TRISBbits.RB0 = 0;
  1565  00122C  9093               	bcf	3987,0,c	;volatile
  1566                           
  1567                           ;system.c: 105: TRISBbits.RB1 = 0;
  1568  00122E  9293               	bcf	3987,1,c	;volatile
  1569                           
  1570                           ;system.c: 106: TRISBbits.RB2 = 0;
  1571  001230  9493               	bcf	3987,2,c	;volatile
  1572                           
  1573                           ;system.c: 107: TRISBbits.RB3 = 0;
  1574  001232  9693               	bcf	3987,3,c	;volatile
  1575                           
  1576                           ;system.c: 108: TRISBbits.RB4 = 0;
  1577  001234  9893               	bcf	3987,4,c	;volatile
  1578                           
  1579                           ;system.c: 109: TRISBbits.RB5 = 0;
  1580  001236  9A93               	bcf	3987,5,c	;volatile
  1581                           
  1582                           ;system.c: 110: TRISBbits.RB6 = 0;
  1583  001238  9C93               	bcf	3987,6,c	;volatile
  1584                           
  1585                           ;system.c: 111: TRISBbits.RB7 = 0;
  1586  00123A  9E93               	bcf	3987,7,c	;volatile
  1587                           
  1588                           ;system.c: 114: TRISCbits.RC0 = 0;
  1589  00123C  9094               	bcf	3988,0,c	;volatile
  1590                           
  1591                           ;system.c: 115: TRISCbits.RC1 = 0;
  1592  00123E  9294               	bcf	3988,1,c	;volatile
  1593                           
  1594                           ;system.c: 116: TRISCbits.RC2 = 0;
  1595  001240  9494               	bcf	3988,2,c	;volatile
  1596                           
  1597                           ;system.c: 117: TRISCbits.RC3 = 1;
  1598  001242  8694               	bsf	3988,3,c	;volatile
  1599                           
  1600                           ;system.c: 118: TRISCbits.RC4 = 0;
  1601  001244  9894               	bcf	3988,4,c	;volatile
  1602                           
  1603                           ;system.c: 119: TRISCbits.RC5 = 0;
  1604  001246  9A94               	bcf	3988,5,c	;volatile
  1605                           
  1606                           ;system.c: 120: TRISCbits.RC6 = 1;
  1607  001248  8C94               	bsf	3988,6,c	;volatile
  1608                           
  1609                           ;system.c: 121: TRISCbits.RC7 = 1;
  1610  00124A  8E94               	bsf	3988,7,c	;volatile
  1611                           
  1612                           ;system.c: 124: TRISDbits.RD0 = 0;
  1613  00124C  9095               	bcf	3989,0,c	;volatile
  1614                           
  1615                           ;system.c: 125: TRISDbits.RD1 = 0;
  1616  00124E  9295               	bcf	3989,1,c	;volatile
  1617                           
  1618                           ;system.c: 126: TRISDbits.RD2 = 1;
  1619  001250  8495               	bsf	3989,2,c	;volatile
  1620                           
  1621                           ;system.c: 127: TRISDbits.RD3 = 0;
  1622  001252  9695               	bcf	3989,3,c	;volatile
  1623                           
  1624                           ;system.c: 128: TRISDbits.RD4 = 0;
  1625  001254  9895               	bcf	3989,4,c	;volatile
  1626                           
  1627                           ;system.c: 129: TRISDbits.RD5 = 0;
  1628  001256  9A95               	bcf	3989,5,c	;volatile
  1629                           
  1630                           ;system.c: 130: TRISDbits.RD6 = 0;
  1631  001258  9C95               	bcf	3989,6,c	;volatile
  1632                           
  1633                           ;system.c: 131: TRISDbits.RD7 = 0;
  1634  00125A  9E95               	bcf	3989,7,c	;volatile
  1635                           
  1636                           ;system.c: 134: TRISEbits.RE0 = 0;
  1637  00125C  9096               	bcf	3990,0,c	;volatile
  1638                           
  1639                           ;system.c: 135: TRISEbits.RE1 = 0;
  1640  00125E  9296               	bcf	3990,1,c	;volatile
  1641                           
  1642                           ;system.c: 136: TRISEbits.RE2 = 0;
  1643  001260  9496               	bcf	3990,2,c	;volatile
  1644                           
  1645                           ;system.c: 144: LATA0 = 0;
  1646  001262  9089               	bcf	3977,0,c	;volatile
  1647                           
  1648                           ;system.c: 145: LATA1 = 0;
  1649  001264  9289               	bcf	3977,1,c	;volatile
  1650                           
  1651                           ;system.c: 146: LATA2 = 0;
  1652  001266  9489               	bcf	3977,2,c	;volatile
  1653                           
  1654                           ;system.c: 147: LATA3 = 0;
  1655  001268  9689               	bcf	3977,3,c	;volatile
  1656                           
  1657                           ;system.c: 148: LATA4 = 0;
  1658  00126A  9889               	bcf	3977,4,c	;volatile
  1659                           
  1660                           ;system.c: 149: LATA5 = 0;
  1661  00126C  9A89               	bcf	3977,5,c	;volatile
  1662                           
  1663                           ;system.c: 150: LATA6 = 0;
  1664  00126E  9C89               	bcf	3977,6,c	;volatile
  1665                           
  1666                           ;system.c: 151: LATA7 = 0;
  1667  001270  9E89               	bcf	3977,7,c	;volatile
  1668                           
  1669                           ;system.c: 154: LATB0 = 0;
  1670  001272  908A               	bcf	3978,0,c	;volatile
  1671                           
  1672                           ;system.c: 155: LATB1 = 0;
  1673  001274  928A               	bcf	3978,1,c	;volatile
  1674                           
  1675                           ;system.c: 156: LATB2 = 0;
  1676  001276  948A               	bcf	3978,2,c	;volatile
  1677                           
  1678                           ;system.c: 157: LATB3 = 0;
  1679  001278  968A               	bcf	3978,3,c	;volatile
  1680                           
  1681                           ;system.c: 158: LATB4 = 0;
  1682  00127A  988A               	bcf	3978,4,c	;volatile
  1683                           
  1684                           ;system.c: 159: LATB5 = 0;
  1685  00127C  9A8A               	bcf	3978,5,c	;volatile
  1686                           
  1687                           ;system.c: 160: LATB6 = 0;
  1688  00127E  9C8A               	bcf	3978,6,c	;volatile
  1689                           
  1690                           ;system.c: 161: LATB7 = 0;
  1691  001280  9E8A               	bcf	3978,7,c	;volatile
  1692                           
  1693                           ;system.c: 164: LATC0 = 0;
  1694  001282  908B               	bcf	3979,0,c	;volatile
  1695                           
  1696                           ;system.c: 165: LATC1 = 0;
  1697  001284  928B               	bcf	3979,1,c	;volatile
  1698                           
  1699                           ;system.c: 166: LATC2 = 0;
  1700  001286  948B               	bcf	3979,2,c	;volatile
  1701                           
  1702                           ;system.c: 167: LATC3 = 0;
  1703  001288  968B               	bcf	3979,3,c	;volatile
  1704                           
  1705                           ;system.c: 168: LATC4 = 0;
  1706  00128A  988B               	bcf	3979,4,c	;volatile
  1707                           
  1708                           ;system.c: 169: LATC5 = 0;
  1709  00128C  9A8B               	bcf	3979,5,c	;volatile
  1710                           
  1711                           ;system.c: 170: LATC6 = 0;
  1712  00128E  9C8B               	bcf	3979,6,c	;volatile
  1713                           
  1714                           ;system.c: 171: LATC7 = 0;
  1715  001290  9E8B               	bcf	3979,7,c	;volatile
  1716                           
  1717                           ;system.c: 174: LATD0 = 0;
  1718  001292  908C               	bcf	3980,0,c	;volatile
  1719                           
  1720                           ;system.c: 175: LATD1 = 0;
  1721  001294  928C               	bcf	3980,1,c	;volatile
  1722                           
  1723                           ;system.c: 176: LATD2 = 0;
  1724  001296  948C               	bcf	3980,2,c	;volatile
  1725                           
  1726                           ;system.c: 177: LATD3 = 0;
  1727  001298  968C               	bcf	3980,3,c	;volatile
  1728                           
  1729                           ;system.c: 178: LATD4 = 0;
  1730  00129A  988C               	bcf	3980,4,c	;volatile
  1731                           
  1732                           ;system.c: 179: LATD5 = 0;
  1733  00129C  9A8C               	bcf	3980,5,c	;volatile
  1734                           
  1735                           ;system.c: 180: LATD6 = 0;
  1736  00129E  9C8C               	bcf	3980,6,c	;volatile
  1737                           
  1738                           ;system.c: 181: LATD7 = 0;
  1739  0012A0  9E8C               	bcf	3980,7,c	;volatile
  1740                           
  1741                           ;system.c: 184: LATE0 = 0;
  1742  0012A2  908D               	bcf	3981,0,c	;volatile
  1743                           
  1744                           ;system.c: 185: LATE1 = 0;
  1745  0012A4  928D               	bcf	3981,1,c	;volatile
  1746                           
  1747                           ;system.c: 186: LATE2 = 0;
  1748  0012A6  948D               	bcf	3981,2,c	;volatile
  1749  0012A8  0012               	return		;funcret
  1750  0012AA                     __end_of_ConfigPorts:
  1751                           	opt stack 0
  1752                           tblptru	equ	0xFF8
  1753                           postinc0	equ	0xFEE
  1754                           wreg	equ	0xFE8
  1755                           status	equ	0xFD8
  1756                           
  1757 ;; *************** function _ConfigInterrupt *****************
  1758 ;; Defined at:
  1759 ;;		line 194 in file "system.c"
  1760 ;; Parameters:    Size  Location     Type
  1761 ;;		None
  1762 ;; Auto vars:     Size  Location     Type
  1763 ;;		None
  1764 ;; Return value:  Size  Location     Type
  1765 ;;		None               void
  1766 ;; Registers used:
  1767 ;;		None
  1768 ;; Tracked objects:
  1769 ;;		On entry : 0/0
  1770 ;;		On exit  : 0/0
  1771 ;;		Unchanged: 0/0
  1772 ;; Data sizes:     COMRAM   BANK0   BANK1   BANK2
  1773 ;;      Params:         0       0       0       0
  1774 ;;      Locals:         0       0       0       0
  1775 ;;      Temps:          0       0       0       0
  1776 ;;      Totals:         0       0       0       0
  1777 ;;Total ram usage:        0 bytes
  1778 ;; Hardware stack levels used:    1
  1779 ;; Hardware stack levels required when called:    6
  1780 ;; This function calls:
  1781 ;;		Nothing
  1782 ;; This function is called by:
  1783 ;;		_init_system
  1784 ;; This function uses a non-reentrant model
  1785 ;;
  1786                           
  1787                           	psect	text11
  1788  0012AA                     __ptext11:
  1789                           	opt stack 0
  1790  0012AA                     _ConfigInterrupt:
  1791                           	opt stack 23
  1792                           
  1793                           ;system.c: 197: INTCONbits.GIEH = 1;
  1794                           
  1795                           ;incstack = 0
  1796  0012AA  8EF2               	bsf	intcon,7,c	;volatile
  1797                           
  1798                           ;system.c: 198: INTCONbits.GIEL = 1;
  1799  0012AC  8CF2               	bsf	intcon,6,c	;volatile
  1800                           
  1801                           ;system.c: 199: INTCONbits.TMR0IE = 0b0;
  1802  0012AE  9AF2               	bcf	intcon,5,c	;volatile
  1803                           
  1804                           ;system.c: 200: INTCONbits.INT0IE = 0b1;
  1805  0012B0  88F2               	bsf	intcon,4,c	;volatile
  1806                           
  1807                           ;system.c: 201: INTCONbits.RBIE = 0;
  1808  0012B2  96F2               	bcf	intcon,3,c	;volatile
  1809                           
  1810                           ;system.c: 202: INTCONbits.TMR0IF = 0;
  1811  0012B4  94F2               	bcf	intcon,2,c	;volatile
  1812                           
  1813                           ;system.c: 203: INTCONbits.INT0IF = 0;
  1814  0012B6  92F2               	bcf	intcon,1,c	;volatile
  1815                           
  1816                           ;system.c: 204: INTCONbits.RBIF = 0;
  1817  0012B8  90F2               	bcf	intcon,0,c	;volatile
  1818                           
  1819                           ;system.c: 208: INTCON2bits.INTEDG0 = 1;
  1820  0012BA  8CF1               	bsf	intcon2,6,c	;volatile
  1821                           
  1822                           ;system.c: 209: INTCON2bits.INTEDG1 = 1;
  1823  0012BC  8AF1               	bsf	intcon2,5,c	;volatile
  1824                           
  1825                           ;system.c: 210: INTCON2bits.INTEDG2 = 1;
  1826  0012BE  88F1               	bsf	intcon2,4,c	;volatile
  1827                           
  1828                           ;system.c: 211: INTCON2bits.TMR0IP = 0b1;
  1829  0012C0  84F1               	bsf	intcon2,2,c	;volatile
  1830                           
  1831                           ;system.c: 214: INTCON3bits.INT2IP = 0b0 ;
  1832  0012C2  9EF0               	bcf	intcon3,7,c	;volatile
  1833                           
  1834                           ;system.c: 215: INTCON3bits.INT1IP = 0b0;
  1835  0012C4  9CF0               	bcf	intcon3,6,c	;volatile
  1836                           
  1837                           ;system.c: 216: INTCON3bits.INT2IE = 0b0;
  1838  0012C6  98F0               	bcf	intcon3,4,c	;volatile
  1839                           
  1840                           ;system.c: 217: INTCON3bits.INT2IP = 0b0;
  1841  0012C8  9EF0               	bcf	intcon3,7,c	;volatile
  1842                           
  1843                           ;system.c: 218: INTCON3bits.INT2IF = 0;
  1844  0012CA  92F0               	bcf	intcon3,1,c	;volatile
  1845                           
  1846                           ;system.c: 219: INTCON3bits.INT1IF = 0;
  1847  0012CC  90F0               	bcf	intcon3,0,c	;volatile
  1848                           
  1849                           ;system.c: 226: PIR1bits.ADIF = 0;
  1850  0012CE  9C9E               	bcf	3998,6,c	;volatile
  1851                           
  1852                           ;system.c: 227: PIR1bits.RCIF = 0;
  1853  0012D0  9A9E               	bcf	3998,5,c	;volatile
  1854                           
  1855                           ;system.c: 228: PIR1bits.TXIF = 0;
  1856  0012D2  989E               	bcf	3998,4,c	;volatile
  1857                           
  1858                           ;system.c: 229: PIR1bits.SSPIF = 0;
  1859  0012D4  969E               	bcf	3998,3,c	;volatile
  1860                           
  1861                           ;system.c: 230: PIR1bits.CCP1IF = 0;
  1862  0012D6  949E               	bcf	3998,2,c	;volatile
  1863                           
  1864                           ;system.c: 231: PIR1bits.TMR2IF = 0;
  1865  0012D8  929E               	bcf	3998,1,c	;volatile
  1866                           
  1867                           ;system.c: 232: PIR1bits.TMR1IF = 0;
  1868  0012DA  909E               	bcf	3998,0,c	;volatile
  1869                           
  1870                           ;system.c: 235: PIR2bits.OSFIF = 0;
  1871  0012DC  9EA1               	bcf	4001,7,c	;volatile
  1872                           
  1873                           ;system.c: 236: PIR2bits.EEIF = 0;
  1874  0012DE  98A1               	bcf	4001,4,c	;volatile
  1875                           
  1876                           ;system.c: 237: PIR2bits.LVDIF = 0;
  1877  0012E0  94A1               	bcf	4001,2,c	;volatile
  1878                           
  1879                           ;system.c: 238: PIR2bits.CCP2IF = 0;
  1880  0012E2  90A1               	bcf	4001,0,c	;volatile
  1881                           
  1882                           ;system.c: 241: PIR3bits.PTIF = 0;
  1883  0012E4  98A4               	bcf	4004,4,c	;volatile
  1884                           
  1885                           ;system.c: 242: PIR3bits.IC3DRIF = 0;
  1886  0012E6  96A4               	bcf	4004,3,c	;volatile
  1887                           
  1888                           ;system.c: 243: PIR3bits.IC2QEIF = 0;
  1889  0012E8  94A4               	bcf	4004,2,c	;volatile
  1890                           
  1891                           ;system.c: 244: PIR3bits.IC1IF = 0;
  1892  0012EA  92A4               	bcf	4004,1,c	;volatile
  1893                           
  1894                           ;system.c: 245: PIR3bits.TMR5IF = 0;
  1895  0012EC  90A4               	bcf	4004,0,c	;volatile
  1896                           
  1897                           ;system.c: 252: RCONbits.IPEN = 1;
  1898  0012EE  8ED0               	bsf	4048,7,c	;volatile
  1899                           
  1900                           ;system.c: 255: IPR1bits.ADIP = 0b0;
  1901  0012F0  9C9F               	bcf	3999,6,c	;volatile
  1902                           
  1903                           ;system.c: 256: IPR1bits.RC1IP = 0b1;
  1904  0012F2  8A9F               	bsf	3999,5,c	;volatile
  1905                           
  1906                           ;system.c: 257: IPR1bits.TX1IP = 0b0;
  1907  0012F4  989F               	bcf	3999,4,c	;volatile
  1908                           
  1909                           ;system.c: 258: IPR1bits.SSPIP = 0;
  1910  0012F6  969F               	bcf	3999,3,c	;volatile
  1911                           
  1912                           ;system.c: 259: IPR1bits.CCP1IP = 0;
  1913  0012F8  949F               	bcf	3999,2,c	;volatile
  1914                           
  1915                           ;system.c: 260: IPR1bits.TMR2IP = 0b0;
  1916  0012FA  929F               	bcf	3999,1,c	;volatile
  1917                           
  1918                           ;system.c: 261: IPR1bits.TMR1IP = 0b1;
  1919  0012FC  809F               	bsf	3999,0,c	;volatile
  1920                           
  1921                           ;system.c: 264: IPR2bits.OSFIP = 0;
  1922  0012FE  9EA2               	bcf	4002,7,c	;volatile
  1923                           
  1924                           ;system.c: 265: IPR2bits.EEIP = 1;
  1925  001300  88A2               	bsf	4002,4,c	;volatile
  1926                           
  1927                           ;system.c: 266: IPR2bits.LVDIP = 0;
  1928  001302  94A2               	bcf	4002,2,c	;volatile
  1929                           
  1930                           ;system.c: 267: IPR2bits.CCP2IP = 0;
  1931  001304  90A2               	bcf	4002,0,c	;volatile
  1932                           
  1933                           ;system.c: 270: IPR3bits.PTIP = 0;
  1934  001306  98A5               	bcf	4005,4,c	;volatile
  1935                           
  1936                           ;system.c: 271: IPR3bits.IC3DRIP = 0b1;
  1937  001308  86A5               	bsf	4005,3,c	;volatile
  1938                           
  1939                           ;system.c: 272: IPR3bits.IC2QEIP = 0b1;
  1940  00130A  84A5               	bsf	4005,2,c	;volatile
  1941                           
  1942                           ;system.c: 273: IPR3bits.IC1IP = 0;
  1943  00130C  92A5               	bcf	4005,1,c	;volatile
  1944                           
  1945                           ;system.c: 274: IPR3bits.TMR5IP = 0b0;
  1946  00130E  90A5               	bcf	4005,0,c	;volatile
  1947                           
  1948                           ;system.c: 281: PIE1bits.ADIE = 0b0;
  1949  001310  9C9D               	bcf	3997,6,c	;volatile
  1950                           
  1951                           ;system.c: 282: PIE1bits.RC1IE = 0b1;
  1952  001312  8A9D               	bsf	3997,5,c	;volatile
  1953                           
  1954                           ;system.c: 283: PIE1bits.TXIE = 0b0;
  1955  001314  989D               	bcf	3997,4,c	;volatile
  1956                           
  1957                           ;system.c: 284: PIE1bits.SSPIE = 0;
  1958  001316  969D               	bcf	3997,3,c	;volatile
  1959                           
  1960                           ;system.c: 285: PIE1bits.CCP1IE = 0;
  1961  001318  949D               	bcf	3997,2,c	;volatile
  1962                           
  1963                           ;system.c: 286: PIE1bits.TMR2IE = 0b0;
  1964  00131A  929D               	bcf	3997,1,c	;volatile
  1965                           
  1966                           ;system.c: 287: PIE1bits.TMR1IE = 0b1;
  1967  00131C  809D               	bsf	3997,0,c	;volatile
  1968                           
  1969                           ;system.c: 290: PIE2bits.OSFIE = 0;
  1970  00131E  9EA0               	bcf	4000,7,c	;volatile
  1971                           
  1972                           ;system.c: 291: PIE2bits.EEIE = 1;
  1973  001320  88A0               	bsf	4000,4,c	;volatile
  1974                           
  1975                           ;system.c: 292: PIE2bits.LVDIE = 0;
  1976  001322  94A0               	bcf	4000,2,c	;volatile
  1977                           
  1978                           ;system.c: 293: PIE2bits.CCP2IE = 0;
  1979  001324  90A0               	bcf	4000,0,c	;volatile
  1980                           
  1981                           ;system.c: 296: PIE3bits.PTIE = 0;
  1982  001326  98A3               	bcf	4003,4,c	;volatile
  1983                           
  1984                           ;system.c: 297: PIE3bits.IC3DRIE = 0b0;
  1985  001328  96A3               	bcf	4003,3,c	;volatile
  1986                           
  1987                           ;system.c: 298: PIE3bits.IC2QEIE = 0b0;
  1988  00132A  94A3               	bcf	4003,2,c	;volatile
  1989                           
  1990                           ;system.c: 299: PIE3bits.IC1IE = 0;
  1991  00132C  92A3               	bcf	4003,1,c	;volatile
  1992                           
  1993                           ;system.c: 300: PIE3bits.TMR5IE = 0b0;
  1994  00132E  90A3               	bcf	4003,0,c	;volatile
  1995  001330  0012               	return		;funcret
  1996  001332                     __end_of_ConfigInterrupt:
  1997                           	opt stack 0
  1998                           tblptru	equ	0xFF8
  1999                           intcon	equ	0xFF2
  2000                           intcon2	equ	0xFF1
  2001                           intcon3	equ	0xFF0
  2002                           postinc0	equ	0xFEE
  2003                           wreg	equ	0xFE8
  2004                           status	equ	0xFD8
  2005                           
  2006 ;; *************** function _envoit_pwm *****************
  2007 ;; Defined at:
  2008 ;;		line 53 in file "moteur.c"
  2009 ;; Parameters:    Size  Location     Type
  2010 ;;  valeur          3   23[BANK0 ] int 
  2011 ;; Auto vars:     Size  Location     Type
  2012 ;;  abs_valeur      3   26[BANK0 ] int 
  2013 ;; Return value:  Size  Location     Type
  2014 ;;		None               void
  2015 ;; Registers used:
  2016 ;;		wreg, status,2, status,0, cstack
  2017 ;; Tracked objects:
  2018 ;;		On entry : 0/0
  2019 ;;		On exit  : 0/0
  2020 ;;		Unchanged: 0/0
  2021 ;; Data sizes:     COMRAM   BANK0   BANK1   BANK2
  2022 ;;      Params:         0       3       0       0
  2023 ;;      Locals:         0       3       0       0
  2024 ;;      Temps:          0       0       0       0
  2025 ;;      Totals:         0       6       0       0
  2026 ;;Total ram usage:        6 bytes
  2027 ;; Hardware stack levels used:    1
  2028 ;; Hardware stack levels required when called:    8
  2029 ;; This function calls:
  2030 ;;		___ftge
  2031 ;;		___ftmul
  2032 ;;		___ftneg
  2033 ;;		___fttol
  2034 ;; This function is called by:
  2035 ;;		_main
  2036 ;;		_asserv
  2037 ;; This function uses a non-reentrant model
  2038 ;;
  2039                           
  2040                           	psect	text12
  2041  000EEC                     __ptext12:
  2042                           	opt stack 0
  2043  000EEC                     _envoit_pwm:
  2044                           	opt stack 22
  2045                           
  2046                           ;moteur.c: 55: double abs_valeur;
  2047                           ;moteur.c: 57: if (valeur < 0)
  2048                           
  2049                           ;incstack = 0
  2050  000EEC  0100               	movlb	0	; () banked
  2051  000EEE  AF79               	btfss	(envoit_pwm@valeur+2)& (0+255),7,b
  2052  000EF0  D00F               	goto	l442
  2053                           
  2054                           ; BSR set to: 0
  2055                           ;moteur.c: 58: abs_valeur = (double) (-valeur);
  2056  000EF2  C077  F060         	movff	envoit_pwm@valeur,___ftneg@f1
  2057  000EF6  C078  F061         	movff	envoit_pwm@valeur+1,___ftneg@f1+1
  2058  000EFA  C079  F062         	movff	envoit_pwm@valeur+2,___ftneg@f1+2
  2059  000EFE  ECD2  F00B         	call	___ftneg	;wreg free
  2060  000F02  C060  F07A         	movff	?___ftneg,envoit_pwm@abs_valeur
  2061  000F06  C061  F07B         	movff	?___ftneg+1,envoit_pwm@abs_valeur+1
  2062  000F0A  C062  F07C         	movff	?___ftneg+2,envoit_pwm@abs_valeur+2
  2063  000F0E  D007               	goto	l3106
  2064  000F10                     l442:
  2065                           
  2066                           ; BSR set to: 0
  2067                           ;moteur.c: 59: else
  2068                           ;moteur.c: 60: abs_valeur = (double) valeur;
  2069  000F10  C077  F07A         	movff	envoit_pwm@valeur,envoit_pwm@abs_valeur
  2070  000F14  C078  F07B         	movff	envoit_pwm@valeur+1,envoit_pwm@abs_valeur+1
  2071  000F18  C079  F07C         	movff	envoit_pwm@valeur+2,envoit_pwm@abs_valeur+2
  2072  000F1C  D000               	goto	l3106
  2073  000F1E                     l3106:
  2074                           
  2075                           ;moteur.c: 62: abs_valeur *= (double) 669 / 100;
  2076  000F1E  C07A  F068         	movff	envoit_pwm@abs_valeur,___ftmul@f1
  2077  000F22  C07B  F069         	movff	envoit_pwm@abs_valeur+1,___ftmul@f1+1
  2078  000F26  C07C  F06A         	movff	envoit_pwm@abs_valeur+2,___ftmul@f1+2
  2079  000F2A  0E14               	movlw	20
  2080  000F2C  0100               	movlb	0	; () banked
  2081  000F2E  6F6B               	movwf	___ftmul@f2& (0+255),b
  2082  000F30  0ED6               	movlw	214
  2083  000F32  0100               	movlb	0	; () banked
  2084  000F34  6F6C               	movwf	(___ftmul@f2+1)& (0+255),b
  2085  000F36  0E40               	movlw	64
  2086  000F38  0100               	movlb	0	; () banked
  2087  000F3A  6F6D               	movwf	(___ftmul@f2+2)& (0+255),b
  2088  000F3C  ECFE  F004         	call	___ftmul	;wreg free
  2089  000F40  C068  F07A         	movff	?___ftmul,envoit_pwm@abs_valeur
  2090  000F44  C069  F07B         	movff	?___ftmul+1,envoit_pwm@abs_valeur+1
  2091  000F48  C06A  F07C         	movff	?___ftmul+2,envoit_pwm@abs_valeur+2
  2092                           
  2093                           ;moteur.c: 64: if (abs_valeur > 669)
  2094  000F4C  0E40               	movlw	64
  2095  000F4E  0100               	movlb	0	; () banked
  2096  000F50  6F60               	movwf	___ftge@ff1& (0+255),b
  2097  000F52  0E27               	movlw	39
  2098  000F54  0100               	movlb	0	; () banked
  2099  000F56  6F61               	movwf	(___ftge@ff1+1)& (0+255),b
  2100  000F58  0E44               	movlw	68
  2101  000F5A  0100               	movlb	0	; () banked
  2102  000F5C  6F62               	movwf	(___ftge@ff1+2)& (0+255),b
  2103  000F5E  C07A  F063         	movff	envoit_pwm@abs_valeur,___ftge@ff2
  2104  000F62  C07B  F064         	movff	envoit_pwm@abs_valeur+1,___ftge@ff2+1
  2105  000F66  C07C  F065         	movff	envoit_pwm@abs_valeur+2,___ftge@ff2+2
  2106  000F6A  EC4F  F008         	call	___ftge	;wreg free
  2107  000F6E  0100               	movlb	0	; () banked
  2108  000F70  B0D8               	btfsc	status,0,c
  2109  000F72  D00A               	goto	l3110
  2110                           
  2111                           ; BSR set to: 0
  2112                           ;moteur.c: 65: abs_valeur = 669;
  2113  000F74  0E40               	movlw	64
  2114  000F76  0100               	movlb	0	; () banked
  2115  000F78  6F7A               	movwf	envoit_pwm@abs_valeur& (0+255),b
  2116  000F7A  0E27               	movlw	39
  2117  000F7C  0100               	movlb	0	; () banked
  2118  000F7E  6F7B               	movwf	(envoit_pwm@abs_valeur+1)& (0+255),b
  2119  000F80  0E44               	movlw	68
  2120  000F82  0100               	movlb	0	; () banked
  2121  000F84  6F7C               	movwf	(envoit_pwm@abs_valeur+2)& (0+255),b
  2122  000F86  D000               	goto	l3110
  2123  000F88                     l3110:
  2124                           
  2125                           ; BSR set to: 0
  2126                           ;moteur.c: 67: if (valeur < (double) 0.)
  2127  000F88  0100               	movlb	0	; () banked
  2128  000F8A  AF79               	btfss	(envoit_pwm@valeur+2)& (0+255),7,b
  2129  000F8C  D002               	goto	l445
  2130                           
  2131                           ; BSR set to: 0
  2132                           ;moteur.c: 68: {
  2133                           ;moteur.c: 69: PORTDbits.RD4 = 1;
  2134  000F8E  8883               	bsf	3971,4,c	;volatile
  2135                           
  2136                           ;moteur.c: 70: }
  2137  000F90  D002               	goto	l3114
  2138  000F92                     l445:
  2139                           
  2140                           ; BSR set to: 0
  2141                           ;moteur.c: 71: else
  2142                           ;moteur.c: 72: {
  2143                           ;moteur.c: 73: PORTDbits.RD4 = 0;
  2144  000F92  9883               	bcf	3971,4,c	;volatile
  2145  000F94  D000               	goto	l3114
  2146  000F96                     l3114:
  2147                           
  2148                           ; BSR set to: 0
  2149                           ;moteur.c: 74: }
  2150                           ;moteur.c: 76: PDC0L = (uint8_t) ((uint16_t) abs_valeur % 256);
  2151  000F96  C07A  F060         	movff	envoit_pwm@abs_valeur,___fttol@f1
  2152  000F9A  C07B  F061         	movff	envoit_pwm@abs_valeur+1,___fttol@f1+1
  2153  000F9E  C07C  F062         	movff	envoit_pwm@abs_valeur+2,___fttol@f1+2
  2154  000FA2  EC4D  F006         	call	___fttol	;wreg free
  2155  000FA6  0100               	movlb	0	; () banked
  2156  000FA8  5160               	movf	?___fttol& (0+255),w,b
  2157  000FAA  6E79               	movwf	3961,c	;volatile
  2158                           
  2159                           ;moteur.c: 77: PDC0H = (uint8_t) ((uint16_t) abs_valeur / 256);
  2160  000FAC  C07A  F060         	movff	envoit_pwm@abs_valeur,___fttol@f1
  2161  000FB0  C07B  F061         	movff	envoit_pwm@abs_valeur+1,___fttol@f1+1
  2162  000FB4  C07C  F062         	movff	envoit_pwm@abs_valeur+2,___fttol@f1+2
  2163  000FB8  EC4D  F006         	call	___fttol	;wreg free
  2164  000FBC  0100               	movlb	0	; () banked
  2165  000FBE  C061  F060         	movff	?___fttol+1,?___fttol
  2166  000FC2  0100               	movlb	0	; () banked
  2167  000FC4  6B61               	clrf	(?___fttol+1)& (0+255),b
  2168  000FC6  0100               	movlb	0	; () banked
  2169  000FC8  5160               	movf	?___fttol& (0+255),w,b
  2170  000FCA  6E78               	movwf	3960,c	;volatile
  2171                           
  2172                           ; BSR set to: 0
  2173  000FCC  0012               	return		;funcret
  2174  000FCE                     __end_of_envoit_pwm:
  2175                           	opt stack 0
  2176                           tblptru	equ	0xFF8
  2177                           intcon	equ	0xFF2
  2178                           intcon2	equ	0xFF1
  2179                           intcon3	equ	0xFF0
  2180                           postinc0	equ	0xFEE
  2181                           wreg	equ	0xFE8
  2182                           status	equ	0xFD8
  2183                           
  2184 ;; *************** function ___fttol *****************
  2185 ;; Defined at:
  2186 ;;		line 44 in file "C:\Program Files (x86)\Microchip\xc8\v1.34\sources\common\fttol.c"
  2187 ;; Parameters:    Size  Location     Type
  2188 ;;  f1              3    0[BANK0 ] float 
  2189 ;; Auto vars:     Size  Location     Type
  2190 ;;  lval            4   10[BANK0 ] unsigned long 
  2191 ;;  exp1            1   14[BANK0 ] unsigned char 
  2192 ;;  sign1           1    9[BANK0 ] unsigned char 
  2193 ;; Return value:  Size  Location     Type
  2194 ;;                  4    0[BANK0 ] long 
  2195 ;; Registers used:
  2196 ;;		wreg, status,2, status,0
  2197 ;; Tracked objects:
  2198 ;;		On entry : 0/0
  2199 ;;		On exit  : 0/0
  2200 ;;		Unchanged: 0/0
  2201 ;; Data sizes:     COMRAM   BANK0   BANK1   BANK2
  2202 ;;      Params:         0       4       0       0
  2203 ;;      Locals:         0       6       0       0
  2204 ;;      Temps:          0       5       0       0
  2205 ;;      Totals:         0      15       0       0
  2206 ;;Total ram usage:       15 bytes
  2207 ;; Hardware stack levels used:    1
  2208 ;; Hardware stack levels required when called:    6
  2209 ;; This function calls:
  2210 ;;		Nothing
  2211 ;; This function is called by:
  2212 ;;		_main
  2213 ;;		_envoit_pwm
  2214 ;; This function uses a non-reentrant model
  2215 ;;
  2216                           
  2217                           	psect	text13
  2218  000C9A                     __ptext13:
  2219                           	opt stack 0
  2220  000C9A                     ___fttol:
  2221                           	opt stack 23
  2222                           
  2223                           ; BSR set to: 0
  2224                           ;incstack = 0
  2225  000C9A  C062  F064         	movff	___fttol@f1+2,??___fttol
  2226  000C9E  0100               	movlb	0	; () banked
  2227  000CA0  6B65               	clrf	(??___fttol+1)& (0+255),b
  2228  000CA2  6B66               	clrf	(??___fttol+2)& (0+255),b
  2229  000CA4  0100               	movlb	0	; () banked
  2230  000CA6  3561               	rlcf	(___fttol@f1+1)& (0+255),w,b
  2231  000CA8  0100               	movlb	0	; () banked
  2232  000CAA  3764               	rlcf	??___fttol& (0+255),f,b
  2233  000CAC  E301               	bnc	u2391
  2234  000CAE  8165               	bsf	(??___fttol+1)& (0+255),0,b
  2235  000CB0                     u2391:
  2236  000CB0  0100               	movlb	0	; () banked
  2237  000CB2  5164               	movf	??___fttol& (0+255),w,b
  2238  000CB4  0100               	movlb	0	; () banked
  2239  000CB6  6F6E               	movwf	___fttol@exp1& (0+255),b
  2240  000CB8  0100               	movlb	0	; () banked
  2241  000CBA  516E               	movf	___fttol@exp1& (0+255),w,b
  2242  000CBC  A4D8               	btfss	status,2,c
  2243  000CBE  D002               	goto	l3042
  2244  000CC0  D051               	goto	l3066
  2245                           
  2246                           ; BSR set to: 0
  2247                           
  2248                           ; BSR set to: 0
  2249  000CC2  D083               	goto	l925
  2250  000CC4                     l3042:
  2251                           
  2252                           ; BSR set to: 0
  2253  000CC4  0E17               	movlw	23
  2254  000CC6  0100               	movlb	0	; () banked
  2255  000CC8  6F64               	movwf	??___fttol& (0+255),b
  2256  000CCA  C060  F065         	movff	___fttol@f1,??___fttol+1
  2257  000CCE  C061  F066         	movff	___fttol@f1+1,??___fttol+2
  2258  000CD2  C062  F067         	movff	___fttol@f1+2,??___fttol+3
  2259  000CD6  0100               	movlb	0	; () banked
  2260  000CD8  2964               	incf	??___fttol& (0+255),w,b
  2261  000CDA  0100               	movlb	0	; () banked
  2262  000CDC  6F68               	movwf	(??___fttol+4)& (0+255),b
  2263  000CDE  D005               	goto	u2410
  2264  000CE0                     u2415:
  2265  000CE0  0100               	movlb	0	; () banked
  2266  000CE2  90D8               	bcf	status,0,c
  2267  000CE4  3367               	rrcf	(??___fttol+3)& (0+255),f,b
  2268  000CE6  3366               	rrcf	(??___fttol+2)& (0+255),f,b
  2269  000CE8  3365               	rrcf	(??___fttol+1)& (0+255),f,b
  2270  000CEA                     u2410:
  2271  000CEA  0100               	movlb	0	; () banked
  2272  000CEC  2F68               	decfsz	(??___fttol+4)& (0+255),f,b
  2273  000CEE  D7F8               	goto	u2415
  2274  000CF0  0100               	movlb	0	; () banked
  2275  000CF2  5165               	movf	(??___fttol+1)& (0+255),w,b
  2276  000CF4  0100               	movlb	0	; () banked
  2277  000CF6  6F69               	movwf	___fttol@sign1& (0+255),b
  2278                           
  2279                           ; BSR set to: 0
  2280  000CF8  0100               	movlb	0	; () banked
  2281  000CFA  8F61               	bsf	(___fttol@f1+1)& (0+255),7,b
  2282                           
  2283                           ; BSR set to: 0
  2284  000CFC  0EFF               	movlw	255
  2285  000CFE  0100               	movlb	0	; () banked
  2286  000D00  1760               	andwf	___fttol@f1& (0+255),f,b
  2287  000D02  0EFF               	movlw	255
  2288  000D04  0100               	movlb	0	; () banked
  2289  000D06  1761               	andwf	(___fttol@f1+1)& (0+255),f,b
  2290  000D08  0E00               	movlw	0
  2291  000D0A  0100               	movlb	0	; () banked
  2292  000D0C  1762               	andwf	(___fttol@f1+2)& (0+255),f,b
  2293                           
  2294                           ; BSR set to: 0
  2295  000D0E  0100               	movlb	0	; () banked
  2296  000D10  5160               	movf	___fttol@f1& (0+255),w,b
  2297  000D12  0100               	movlb	0	; () banked
  2298  000D14  6F6A               	movwf	___fttol@lval& (0+255),b
  2299  000D16  0100               	movlb	0	; () banked
  2300  000D18  5161               	movf	(___fttol@f1+1)& (0+255),w,b
  2301  000D1A  0100               	movlb	0	; () banked
  2302  000D1C  6F6B               	movwf	(___fttol@lval+1)& (0+255),b
  2303  000D1E  0100               	movlb	0	; () banked
  2304  000D20  5162               	movf	(___fttol@f1+2)& (0+255),w,b
  2305  000D22  0100               	movlb	0	; () banked
  2306  000D24  6F6C               	movwf	(___fttol@lval+2)& (0+255),b
  2307  000D26  0100               	movlb	0	; () banked
  2308  000D28  6B6D               	clrf	(___fttol@lval+3)& (0+255),b
  2309                           
  2310                           ; BSR set to: 0
  2311  000D2A  0E8E               	movlw	142
  2312  000D2C  0100               	movlb	0	; () banked
  2313  000D2E  5F6E               	subwf	___fttol@exp1& (0+255),f,b
  2314                           
  2315                           ; BSR set to: 0
  2316  000D30  0100               	movlb	0	; () banked
  2317  000D32  AF6E               	btfss	___fttol@exp1& (0+255),7,b
  2318  000D34  D013               	goto	l3064
  2319                           
  2320                           ; BSR set to: 0
  2321  000D36  0100               	movlb	0	; () banked
  2322  000D38  516E               	movf	___fttol@exp1& (0+255),w,b
  2323  000D3A  0A80               	xorlw	128
  2324  000D3C  0F8F               	addlw	143
  2325  000D3E  B0D8               	btfsc	status,0,c
  2326  000D40  D003               	goto	l3060
  2327  000D42  D010               	goto	l3066
  2328                           
  2329                           ; BSR set to: 0
  2330                           
  2331                           ; BSR set to: 0
  2332  000D44  D042               	goto	l925
  2333                           
  2334                           ; BSR set to: 0
  2335  000D46  D000               	goto	l3060
  2336  000D48                     l3060:
  2337                           
  2338                           ; BSR set to: 0
  2339  000D48  0100               	movlb	0	; () banked
  2340  000D4A  90D8               	bcf	status,0,c
  2341  000D4C  336D               	rrcf	(___fttol@lval+3)& (0+255),f,b
  2342  000D4E  336C               	rrcf	(___fttol@lval+2)& (0+255),f,b
  2343  000D50  336B               	rrcf	(___fttol@lval+1)& (0+255),f,b
  2344  000D52  336A               	rrcf	___fttol@lval& (0+255),f,b
  2345                           
  2346                           ; BSR set to: 0
  2347  000D54  0100               	movlb	0	; () banked
  2348  000D56  3F6E               	incfsz	___fttol@exp1& (0+255),f,b
  2349  000D58  D7F7               	goto	l3060
  2350                           
  2351                           ; BSR set to: 0
  2352  000D5A  D01F               	goto	l3074
  2353  000D5C                     l3064:
  2354                           
  2355                           ; BSR set to: 0
  2356  000D5C  0E17               	movlw	23
  2357  000D5E  0100               	movlb	0	; () banked
  2358  000D60  656E               	cpfsgt	___fttol@exp1& (0+255),b
  2359  000D62  D014               	goto	l3072
  2360  000D64                     l3066:
  2361                           
  2362                           ; BSR set to: 0
  2363  000D64  0E00               	movlw	0
  2364  000D66  0100               	movlb	0	; () banked
  2365  000D68  6F60               	movwf	?___fttol& (0+255),b
  2366  000D6A  0E00               	movlw	0
  2367  000D6C  6F61               	movwf	(?___fttol+1)& (0+255),b
  2368  000D6E  0E00               	movlw	0
  2369  000D70  6F62               	movwf	(?___fttol+2)& (0+255),b
  2370  000D72  0E00               	movlw	0
  2371  000D74  6F63               	movwf	(?___fttol+3)& (0+255),b
  2372                           
  2373                           ; BSR set to: 0
  2374  000D76  D029               	goto	l925
  2375                           
  2376                           ; BSR set to: 0
  2377  000D78  D009               	goto	l3072
  2378  000D7A                     l3070:
  2379                           
  2380                           ; BSR set to: 0
  2381  000D7A  0100               	movlb	0	; () banked
  2382  000D7C  90D8               	bcf	status,0,c
  2383  000D7E  376A               	rlcf	___fttol@lval& (0+255),f,b
  2384  000D80  376B               	rlcf	(___fttol@lval+1)& (0+255),f,b
  2385  000D82  376C               	rlcf	(___fttol@lval+2)& (0+255),f,b
  2386  000D84  376D               	rlcf	(___fttol@lval+3)& (0+255),f,b
  2387  000D86  0100               	movlb	0	; () banked
  2388  000D88  076E               	decf	___fttol@exp1& (0+255),f,b
  2389  000D8A  D000               	goto	l3072
  2390  000D8C                     l3072:
  2391                           
  2392                           ; BSR set to: 0
  2393  000D8C  0100               	movlb	0	; () banked
  2394  000D8E  516E               	movf	___fttol@exp1& (0+255),w,b
  2395  000D90  0100               	movlb	0	; () banked
  2396  000D92  B4D8               	btfsc	status,2,c
  2397  000D94  D002               	goto	l3074
  2398  000D96  D7F1               	goto	l3070
  2399                           
  2400                           ; BSR set to: 0
  2401  000D98  D000               	goto	l3074
  2402  000D9A                     l3074:
  2403                           
  2404                           ; BSR set to: 0
  2405  000D9A  0100               	movlb	0	; () banked
  2406  000D9C  5169               	movf	___fttol@sign1& (0+255),w,b
  2407  000D9E  0100               	movlb	0	; () banked
  2408  000DA0  B4D8               	btfsc	status,2,c
  2409  000DA2  D00A               	goto	l3078
  2410                           
  2411                           ; BSR set to: 0
  2412  000DA4  0100               	movlb	0	; () banked
  2413  000DA6  1F6D               	comf	(___fttol@lval+3)& (0+255),f,b
  2414  000DA8  1F6C               	comf	(___fttol@lval+2)& (0+255),f,b
  2415  000DAA  1F6B               	comf	(___fttol@lval+1)& (0+255),f,b
  2416  000DAC  6D6A               	negf	___fttol@lval& (0+255),b
  2417  000DAE  0E00               	movlw	0
  2418  000DB0  236B               	addwfc	(___fttol@lval+1)& (0+255),f,b
  2419  000DB2  236C               	addwfc	(___fttol@lval+2)& (0+255),f,b
  2420  000DB4  236D               	addwfc	(___fttol@lval+3)& (0+255),f,b
  2421  000DB6  D000               	goto	l3078
  2422  000DB8                     l3078:
  2423                           
  2424                           ; BSR set to: 0
  2425  000DB8  C06A  F060         	movff	___fttol@lval,?___fttol
  2426  000DBC  C06B  F061         	movff	___fttol@lval+1,?___fttol+1
  2427  000DC0  C06C  F062         	movff	___fttol@lval+2,?___fttol+2
  2428  000DC4  C06D  F063         	movff	___fttol@lval+3,?___fttol+3
  2429  000DC8  D000               	goto	l925
  2430  000DCA                     l925:
  2431                           
  2432                           ; BSR set to: 0
  2433  000DCA  0012               	return		;funcret
  2434  000DCC                     __end_of___fttol:
  2435                           	opt stack 0
  2436                           tblptru	equ	0xFF8
  2437                           intcon	equ	0xFF2
  2438                           intcon2	equ	0xFF1
  2439                           intcon3	equ	0xFF0
  2440                           postinc0	equ	0xFEE
  2441                           wreg	equ	0xFE8
  2442                           status	equ	0xFD8
  2443                           
  2444 ;; *************** function ___ftneg *****************
  2445 ;; Defined at:
  2446 ;;		line 15 in file "C:\Program Files (x86)\Microchip\xc8\v1.34\sources\common\ftneg.c"
  2447 ;; Parameters:    Size  Location     Type
  2448 ;;  f1              3    0[BANK0 ] float 
  2449 ;; Auto vars:     Size  Location     Type
  2450 ;;		None
  2451 ;; Return value:  Size  Location     Type
  2452 ;;                  3    0[BANK0 ] float 
  2453 ;; Registers used:
  2454 ;;		wreg, status,2, status,0
  2455 ;; Tracked objects:
  2456 ;;		On entry : 0/0
  2457 ;;		On exit  : 0/0
  2458 ;;		Unchanged: 0/0
  2459 ;; Data sizes:     COMRAM   BANK0   BANK1   BANK2
  2460 ;;      Params:         0       3       0       0
  2461 ;;      Locals:         0       0       0       0
  2462 ;;      Temps:          0       0       0       0
  2463 ;;      Totals:         0       3       0       0
  2464 ;;Total ram usage:        3 bytes
  2465 ;; Hardware stack levels used:    1
  2466 ;; Hardware stack levels required when called:    6
  2467 ;; This function calls:
  2468 ;;		Nothing
  2469 ;; This function is called by:
  2470 ;;		_envoit_pwm
  2471 ;;		_fonction_PID
  2472 ;; This function uses a non-reentrant model
  2473 ;;
  2474                           
  2475                           	psect	text14
  2476  0017A4                     __ptext14:
  2477                           	opt stack 0
  2478  0017A4                     ___ftneg:
  2479                           	opt stack 23
  2480                           
  2481                           ; BSR set to: 0
  2482                           ;incstack = 0
  2483  0017A4  0100               	movlb	0	; () banked
  2484  0017A6  5160               	movf	___ftneg@f1& (0+255),w,b
  2485  0017A8  0100               	movlb	0	; () banked
  2486  0017AA  1161               	iorwf	(___ftneg@f1+1)& (0+255),w,b
  2487  0017AC  0100               	movlb	0	; () banked
  2488  0017AE  1162               	iorwf	(___ftneg@f1+2)& (0+255),w,b
  2489  0017B0  B4D8               	btfsc	status,2,c
  2490  0017B2  D009               	goto	l914
  2491                           
  2492                           ; BSR set to: 0
  2493  0017B4  0E00               	movlw	0
  2494  0017B6  0100               	movlb	0	; () banked
  2495  0017B8  1B60               	xorwf	___ftneg@f1& (0+255),f,b
  2496  0017BA  0E00               	movlw	0
  2497  0017BC  0100               	movlb	0	; () banked
  2498  0017BE  1B61               	xorwf	(___ftneg@f1+1)& (0+255),f,b
  2499  0017C0  0E80               	movlw	128
  2500  0017C2  0100               	movlb	0	; () banked
  2501  0017C4  1B62               	xorwf	(___ftneg@f1+2)& (0+255),f,b
  2502  0017C6                     l914:
  2503                           
  2504                           ; BSR set to: 0
  2505  0017C6  C060  F060         	movff	___ftneg@f1,?___ftneg
  2506  0017CA  C061  F061         	movff	___ftneg@f1+1,?___ftneg+1
  2507  0017CE  C062  F062         	movff	___ftneg@f1+2,?___ftneg+2
  2508                           
  2509                           ; BSR set to: 0
  2510  0017D2  0012               	return		;funcret
  2511  0017D4                     __end_of___ftneg:
  2512                           	opt stack 0
  2513                           tblptru	equ	0xFF8
  2514                           intcon	equ	0xFF2
  2515                           intcon2	equ	0xFF1
  2516                           intcon3	equ	0xFF0
  2517                           postinc0	equ	0xFEE
  2518                           wreg	equ	0xFE8
  2519                           status	equ	0xFD8
  2520                           
  2521 ;; *************** function ___ftge *****************
  2522 ;; Defined at:
  2523 ;;		line 4 in file "C:\Program Files (x86)\Microchip\xc8\v1.34\sources\common\ftge.c"
  2524 ;; Parameters:    Size  Location     Type
  2525 ;;  ff1             3    0[BANK0 ] float 
  2526 ;;  ff2             3    3[BANK0 ] float 
  2527 ;; Auto vars:     Size  Location     Type
  2528 ;;		None
  2529 ;; Return value:  Size  Location     Type
  2530 ;;		None               void
  2531 ;; Registers used:
  2532 ;;		wreg, status,2, status,0
  2533 ;; Tracked objects:
  2534 ;;		On entry : 0/0
  2535 ;;		On exit  : 0/0
  2536 ;;		Unchanged: 0/0
  2537 ;; Data sizes:     COMRAM   BANK0   BANK1   BANK2
  2538 ;;      Params:         0       6       0       0
  2539 ;;      Locals:         0       0       0       0
  2540 ;;      Temps:          0       3       0       0
  2541 ;;      Totals:         0       9       0       0
  2542 ;;Total ram usage:        9 bytes
  2543 ;; Hardware stack levels used:    1
  2544 ;; Hardware stack levels required when called:    6
  2545 ;; This function calls:
  2546 ;;		Nothing
  2547 ;; This function is called by:
  2548 ;;		_envoit_pwm
  2549 ;;		_ecretage_consignes
  2550 ;;		_saturation_erreur_integralle_vitesse
  2551 ;; This function uses a non-reentrant model
  2552 ;;
  2553                           
  2554                           	psect	text15
  2555  00109E                     __ptext15:
  2556                           	opt stack 0
  2557  00109E                     ___ftge:
  2558                           	opt stack 23
  2559                           
  2560                           ; BSR set to: 0
  2561                           ;incstack = 0
  2562  00109E  0100               	movlb	0	; () banked
  2563  0010A0  AF62               	btfss	(___ftge@ff1+2)& (0+255),7,b
  2564  0010A2  D01E               	goto	l3018
  2565                           
  2566                           ; BSR set to: 0
  2567  0010A4  C060  F066         	movff	___ftge@ff1,??___ftge
  2568  0010A8  C061  F067         	movff	___ftge@ff1+1,??___ftge+1
  2569  0010AC  C062  F068         	movff	___ftge@ff1+2,??___ftge+2
  2570  0010B0  0100               	movlb	0	; () banked
  2571  0010B2  1F66               	comf	??___ftge& (0+255),f,b
  2572  0010B4  1F67               	comf	(??___ftge+1)& (0+255),f,b
  2573  0010B6  1F68               	comf	(??___ftge+2)& (0+255),f,b
  2574  0010B8  2B66               	incf	??___ftge& (0+255),f,b
  2575  0010BA  0E00               	movlw	0
  2576  0010BC  2367               	addwfc	(??___ftge+1)& (0+255),f,b
  2577  0010BE  2368               	addwfc	(??___ftge+2)& (0+255),f,b
  2578  0010C0  0E00               	movlw	0
  2579  0010C2  0100               	movlb	0	; () banked
  2580  0010C4  2566               	addwf	??___ftge& (0+255),w,b
  2581  0010C6  0100               	movlb	0	; () banked
  2582  0010C8  6F60               	movwf	___ftge@ff1& (0+255),b
  2583  0010CA  0E00               	movlw	0
  2584  0010CC  0100               	movlb	0	; () banked
  2585  0010CE  2167               	addwfc	(??___ftge+1)& (0+255),w,b
  2586  0010D0  0100               	movlb	0	; () banked
  2587  0010D2  6F61               	movwf	(___ftge@ff1+1)& (0+255),b
  2588  0010D4  0E80               	movlw	128
  2589  0010D6  0100               	movlb	0	; () banked
  2590  0010D8  2168               	addwfc	(??___ftge+2)& (0+255),w,b
  2591  0010DA  0100               	movlb	0	; () banked
  2592  0010DC  6F62               	movwf	(___ftge@ff1+2)& (0+255),b
  2593  0010DE  D000               	goto	l3018
  2594  0010E0                     l3018:
  2595                           
  2596                           ; BSR set to: 0
  2597  0010E0  0100               	movlb	0	; () banked
  2598  0010E2  AF65               	btfss	(___ftge@ff2+2)& (0+255),7,b
  2599  0010E4  D01E               	goto	l3022
  2600                           
  2601                           ; BSR set to: 0
  2602  0010E6  C063  F066         	movff	___ftge@ff2,??___ftge
  2603  0010EA  C064  F067         	movff	___ftge@ff2+1,??___ftge+1
  2604  0010EE  C065  F068         	movff	___ftge@ff2+2,??___ftge+2
  2605  0010F2  0100               	movlb	0	; () banked
  2606  0010F4  1F66               	comf	??___ftge& (0+255),f,b
  2607  0010F6  1F67               	comf	(??___ftge+1)& (0+255),f,b
  2608  0010F8  1F68               	comf	(??___ftge+2)& (0+255),f,b
  2609  0010FA  2B66               	incf	??___ftge& (0+255),f,b
  2610  0010FC  0E00               	movlw	0
  2611  0010FE  2367               	addwfc	(??___ftge+1)& (0+255),f,b
  2612  001100  2368               	addwfc	(??___ftge+2)& (0+255),f,b
  2613  001102  0E00               	movlw	0
  2614  001104  0100               	movlb	0	; () banked
  2615  001106  2566               	addwf	??___ftge& (0+255),w,b
  2616  001108  0100               	movlb	0	; () banked
  2617  00110A  6F63               	movwf	___ftge@ff2& (0+255),b
  2618  00110C  0E00               	movlw	0
  2619  00110E  0100               	movlb	0	; () banked
  2620  001110  2167               	addwfc	(??___ftge+1)& (0+255),w,b
  2621  001112  0100               	movlb	0	; () banked
  2622  001114  6F64               	movwf	(___ftge@ff2+1)& (0+255),b
  2623  001116  0E80               	movlw	128
  2624  001118  0100               	movlb	0	; () banked
  2625  00111A  2168               	addwfc	(??___ftge+2)& (0+255),w,b
  2626  00111C  0100               	movlb	0	; () banked
  2627  00111E  6F65               	movwf	(___ftge@ff2+2)& (0+255),b
  2628  001120  D000               	goto	l3022
  2629  001122                     l3022:
  2630                           
  2631                           ; BSR set to: 0
  2632  001122  0E00               	movlw	0
  2633  001124  0100               	movlb	0	; () banked
  2634  001126  1B60               	xorwf	___ftge@ff1& (0+255),f,b
  2635  001128  0E00               	movlw	0
  2636  00112A  0100               	movlb	0	; () banked
  2637  00112C  1B61               	xorwf	(___ftge@ff1+1)& (0+255),f,b
  2638  00112E  0E80               	movlw	128
  2639  001130  0100               	movlb	0	; () banked
  2640  001132  1B62               	xorwf	(___ftge@ff1+2)& (0+255),f,b
  2641                           
  2642                           ; BSR set to: 0
  2643  001134  0E00               	movlw	0
  2644  001136  0100               	movlb	0	; () banked
  2645  001138  1B63               	xorwf	___ftge@ff2& (0+255),f,b
  2646  00113A  0E00               	movlw	0
  2647  00113C  0100               	movlb	0	; () banked
  2648  00113E  1B64               	xorwf	(___ftge@ff2+1)& (0+255),f,b
  2649  001140  0E80               	movlw	128
  2650  001142  0100               	movlb	0	; () banked
  2651  001144  1B65               	xorwf	(___ftge@ff2+2)& (0+255),f,b
  2652  001146  0100               	movlb	0	; () banked
  2653  001148  5163               	movf	___ftge@ff2& (0+255),w,b
  2654  00114A  0100               	movlb	0	; () banked
  2655  00114C  5D60               	subwf	___ftge@ff1& (0+255),w,b
  2656  00114E  0100               	movlb	0	; () banked
  2657  001150  5164               	movf	(___ftge@ff2+1)& (0+255),w,b
  2658  001152  0100               	movlb	0	; () banked
  2659  001154  5961               	subwfb	(___ftge@ff1+1)& (0+255),w,b
  2660  001156  0100               	movlb	0	; () banked
  2661  001158  5165               	movf	(___ftge@ff2+2)& (0+255),w,b
  2662  00115A  0100               	movlb	0	; () banked
  2663  00115C  5962               	subwfb	(___ftge@ff1+2)& (0+255),w,b
  2664  00115E  B0D8               	btfsc	status,0,c
  2665  001160  D002               	goto	l3028
  2666                           
  2667                           ; BSR set to: 0
  2668  001162  90D8               	bcf	status,0,c
  2669  001164  D002               	goto	l898
  2670  001166                     l3028:
  2671                           
  2672                           ; BSR set to: 0
  2673  001166  80D8               	bsf	status,0,c
  2674                           
  2675                           ; BSR set to: 0
  2676  001168  D000               	goto	l898
  2677  00116A                     l898:
  2678                           
  2679                           ; BSR set to: 0
  2680  00116A  0012               	return		;funcret
  2681  00116C                     __end_of___ftge:
  2682                           	opt stack 0
  2683                           tblptru	equ	0xFF8
  2684                           intcon	equ	0xFF2
  2685                           intcon2	equ	0xFF1
  2686                           intcon3	equ	0xFF0
  2687                           postinc0	equ	0xFEE
  2688                           wreg	equ	0xFE8
  2689                           status	equ	0xFD8
  2690                           
  2691 ;; *************** function _conversion_angle *****************
  2692 ;; Defined at:
  2693 ;;		line 131 in file "moteur.c"
  2694 ;; Parameters:    Size  Location     Type
  2695 ;;		None
  2696 ;; Auto vars:     Size  Location     Type
  2697 ;;  angle           3   26[BANK0 ] float 
  2698 ;; Return value:  Size  Location     Type
  2699 ;;		None               void
  2700 ;; Registers used:
  2701 ;;		wreg, status,2, status,0, cstack
  2702 ;; Tracked objects:
  2703 ;;		On entry : 0/0
  2704 ;;		On exit  : 0/0
  2705 ;;		Unchanged: 0/0
  2706 ;; Data sizes:     COMRAM   BANK0   BANK1   BANK2
  2707 ;;      Params:         0       0       0       0
  2708 ;;      Locals:         0       3       0       0
  2709 ;;      Temps:          0       0       0       0
  2710 ;;      Totals:         0       3       0       0
  2711 ;;Total ram usage:        3 bytes
  2712 ;; Hardware stack levels used:    1
  2713 ;; Hardware stack levels required when called:    8
  2714 ;; This function calls:
  2715 ;;		___ftdiv
  2716 ;;		___ftmul
  2717 ;;		___lwtoft
  2718 ;; This function is called by:
  2719 ;;		_main
  2720 ;;		_mesure_vitesse
  2721 ;; This function uses a non-reentrant model
  2722 ;;
  2723                           
  2724                           	psect	text16
  2725  00143A                     __ptext16:
  2726                           	opt stack 0
  2727  00143A                     _conversion_angle:
  2728                           	opt stack 22
  2729                           
  2730                           ;moteur.c: 133: double angle;
  2731                           ;moteur.c: 134: angle = (double) ((position.nouvelle) / 8000.);
  2732                           
  2733                           ; BSR set to: 0
  2734                           ;incstack = 0
  2735  00143A  C091  F068         	movff	_position+2,___lwtoft@c
  2736  00143E  C092  F069         	movff	_position+3,___lwtoft@c+1
  2737  001442  EC17  F00C         	call	___lwtoft	;wreg free
  2738  001446  C068  F06B         	movff	?___lwtoft,___ftdiv@f1
  2739  00144A  C069  F06C         	movff	?___lwtoft+1,___ftdiv@f1+1
  2740  00144E  C06A  F06D         	movff	?___lwtoft+2,___ftdiv@f1+2
  2741  001452  0E00               	movlw	0
  2742  001454  0100               	movlb	0	; () banked
  2743  001456  6F6E               	movwf	___ftdiv@f2& (0+255),b
  2744  001458  0EFA               	movlw	250
  2745  00145A  0100               	movlb	0	; () banked
  2746  00145C  6F6F               	movwf	(___ftdiv@f2+1)& (0+255),b
  2747  00145E  0E45               	movlw	69
  2748  001460  0100               	movlb	0	; () banked
  2749  001462  6F70               	movwf	(___ftdiv@f2+2)& (0+255),b
  2750  001464  ECAC  F005         	call	___ftdiv	;wreg free
  2751  001468  C06B  F07A         	movff	?___ftdiv,conversion_angle@angle
  2752  00146C  C06C  F07B         	movff	?___ftdiv+1,conversion_angle@angle+1
  2753  001470  C06D  F07C         	movff	?___ftdiv+2,conversion_angle@angle+2
  2754                           
  2755                           ;moteur.c: 135: angle *= 360;
  2756  001474  C07A  F068         	movff	conversion_angle@angle,___ftmul@f1
  2757  001478  C07B  F069         	movff	conversion_angle@angle+1,___ftmul@f1+1
  2758  00147C  C07C  F06A         	movff	conversion_angle@angle+2,___ftmul@f1+2
  2759  001480  0E00               	movlw	0
  2760  001482  0100               	movlb	0	; () banked
  2761  001484  6F6B               	movwf	___ftmul@f2& (0+255),b
  2762  001486  0EB4               	movlw	180
  2763  001488  0100               	movlb	0	; () banked
  2764  00148A  6F6C               	movwf	(___ftmul@f2+1)& (0+255),b
  2765  00148C  0E43               	movlw	67
  2766  00148E  0100               	movlb	0	; () banked
  2767  001490  6F6D               	movwf	(___ftmul@f2+2)& (0+255),b
  2768  001492  ECFE  F004         	call	___ftmul	;wreg free
  2769  001496  C068  F07A         	movff	?___ftmul,conversion_angle@angle
  2770  00149A  C069  F07B         	movff	?___ftmul+1,conversion_angle@angle+1
  2771  00149E  C06A  F07C         	movff	?___ftmul+2,conversion_angle@angle+2
  2772                           
  2773                           ;moteur.c: 136: position.angle = angle;
  2774  0014A2  C07A  F097         	movff	conversion_angle@angle,_position+8
  2775  0014A6  C07B  F098         	movff	conversion_angle@angle+1,_position+9
  2776  0014AA  C07C  F099         	movff	conversion_angle@angle+2,_position+10
  2777  0014AE  0012               	return		;funcret
  2778  0014B0                     __end_of_conversion_angle:
  2779                           	opt stack 0
  2780                           tblptru	equ	0xFF8
  2781                           intcon	equ	0xFF2
  2782                           intcon2	equ	0xFF1
  2783                           intcon3	equ	0xFF0
  2784                           postinc0	equ	0xFEE
  2785                           wreg	equ	0xFE8
  2786                           status	equ	0xFD8
  2787                           
  2788 ;; *************** function ___lwtoft *****************
  2789 ;; Defined at:
  2790 ;;		line 28 in file "C:\Program Files (x86)\Microchip\xc8\v1.34\sources\common\lwtoft.c"
  2791 ;; Parameters:    Size  Location     Type
  2792 ;;  c               2    8[BANK0 ] unsigned int 
  2793 ;; Auto vars:     Size  Location     Type
  2794 ;;		None
  2795 ;; Return value:  Size  Location     Type
  2796 ;;                  3    8[BANK0 ] float 
  2797 ;; Registers used:
  2798 ;;		wreg, status,2, status,0, cstack
  2799 ;; Tracked objects:
  2800 ;;		On entry : 0/0
  2801 ;;		On exit  : 0/0
  2802 ;;		Unchanged: 0/0
  2803 ;; Data sizes:     COMRAM   BANK0   BANK1   BANK2
  2804 ;;      Params:         0       3       0       0
  2805 ;;      Locals:         0       0       0       0
  2806 ;;      Temps:          0       0       0       0
  2807 ;;      Totals:         0       3       0       0
  2808 ;;Total ram usage:        3 bytes
  2809 ;; Hardware stack levels used:    1
  2810 ;; Hardware stack levels required when called:    7
  2811 ;; This function calls:
  2812 ;;		___ftpack
  2813 ;; This function is called by:
  2814 ;;		_conversion_angle
  2815 ;; This function uses a non-reentrant model
  2816 ;;
  2817                           
  2818                           	psect	text17
  2819  00182E                     __ptext17:
  2820                           	opt stack 0
  2821  00182E                     ___lwtoft:
  2822                           	opt stack 22
  2823                           
  2824                           ;incstack = 0
  2825  00182E  C068  F060         	movff	___lwtoft@c,___ftpack@arg
  2826  001832  C069  F061         	movff	___lwtoft@c+1,___ftpack@arg+1
  2827  001836  0100               	movlb	0	; () banked
  2828  001838  6B62               	clrf	(___ftpack@arg+2)& (0+255),b
  2829  00183A  0E8E               	movlw	142
  2830  00183C  0100               	movlb	0	; () banked
  2831  00183E  6F63               	movwf	___ftpack@exp& (0+255),b
  2832  001840  0E00               	movlw	0
  2833  001842  0100               	movlb	0	; () banked
  2834  001844  6F64               	movwf	___ftpack@sign& (0+255),b
  2835  001846  ECE6  F006         	call	___ftpack	;wreg free
  2836  00184A  C060  F068         	movff	?___ftpack,?___lwtoft
  2837  00184E  C061  F069         	movff	?___ftpack+1,?___lwtoft+1
  2838  001852  C062  F06A         	movff	?___ftpack+2,?___lwtoft+2
  2839  001856  D000               	goto	l1054
  2840  001858                     l1054:
  2841  001858  0012               	return		;funcret
  2842  00185A                     __end_of___lwtoft:
  2843                           	opt stack 0
  2844                           tblptru	equ	0xFF8
  2845                           intcon	equ	0xFF2
  2846                           intcon2	equ	0xFF1
  2847                           intcon3	equ	0xFF0
  2848                           postinc0	equ	0xFEE
  2849                           wreg	equ	0xFE8
  2850                           status	equ	0xFD8
  2851                           
  2852 ;; *************** function ___ftmul *****************
  2853 ;; Defined at:
  2854 ;;		line 62 in file "C:\Program Files (x86)\Microchip\xc8\v1.34\sources\common\ftmul.c"
  2855 ;; Parameters:    Size  Location     Type
  2856 ;;  f1              3    8[BANK0 ] float 
  2857 ;;  f2              3   11[BANK0 ] float 
  2858 ;; Auto vars:     Size  Location     Type
  2859 ;;  f3_as_produc    3   18[BANK0 ] unsigned um
  2860 ;;  sign            1   22[BANK0 ] unsigned char 
  2861 ;;  cntr            1   21[BANK0 ] unsigned char 
  2862 ;;  exp             1   17[BANK0 ] unsigned char 
  2863 ;; Return value:  Size  Location     Type
  2864 ;;                  3    8[BANK0 ] float 
  2865 ;; Registers used:
  2866 ;;		wreg, status,2, status,0, cstack
  2867 ;; Tracked objects:
  2868 ;;		On entry : 0/0
  2869 ;;		On exit  : 0/0
  2870 ;;		Unchanged: 0/0
  2871 ;; Data sizes:     COMRAM   BANK0   BANK1   BANK2
  2872 ;;      Params:         0       6       0       0
  2873 ;;      Locals:         0       6       0       0
  2874 ;;      Temps:          0       3       0       0
  2875 ;;      Totals:         0      15       0       0
  2876 ;;Total ram usage:       15 bytes
  2877 ;; Hardware stack levels used:    1
  2878 ;; Hardware stack levels required when called:    7
  2879 ;; This function calls:
  2880 ;;		___ftpack
  2881 ;; This function is called by:
  2882 ;;		_envoit_pwm
  2883 ;;		_conversion_angle
  2884 ;;		_fonction_PID
  2885 ;;		_mesure_vitesse
  2886 ;; This function uses a non-reentrant model
  2887 ;;
  2888                           
  2889                           	psect	text18
  2890  0009FC                     __ptext18:
  2891                           	opt stack 0
  2892  0009FC                     ___ftmul:
  2893                           	opt stack 22
  2894                           
  2895                           ;incstack = 0
  2896  0009FC  C06A  F06E         	movff	___ftmul@f1+2,??___ftmul
  2897  000A00  0100               	movlb	0	; () banked
  2898  000A02  6B6F               	clrf	(??___ftmul+1)& (0+255),b
  2899  000A04  6B70               	clrf	(??___ftmul+2)& (0+255),b
  2900  000A06  0100               	movlb	0	; () banked
  2901  000A08  3569               	rlcf	(___ftmul@f1+1)& (0+255),w,b
  2902  000A0A  0100               	movlb	0	; () banked
  2903  000A0C  376E               	rlcf	??___ftmul& (0+255),f,b
  2904  000A0E  E301               	bnc	u2291
  2905  000A10  816F               	bsf	(??___ftmul+1)& (0+255),0,b
  2906  000A12                     u2291:
  2907  000A12  0100               	movlb	0	; () banked
  2908  000A14  516E               	movf	??___ftmul& (0+255),w,b
  2909  000A16  0100               	movlb	0	; () banked
  2910  000A18  6F71               	movwf	___ftmul@exp& (0+255),b
  2911  000A1A  0100               	movlb	0	; () banked
  2912  000A1C  5171               	movf	___ftmul@exp& (0+255),w,b
  2913  000A1E  A4D8               	btfss	status,2,c
  2914  000A20  D002               	goto	l2972
  2915  000A22  D014               	goto	l2974
  2916                           
  2917                           ; BSR set to: 0
  2918                           
  2919                           ; BSR set to: 0
  2920  000A24  D098               	goto	l904
  2921  000A26                     l2972:
  2922                           
  2923                           ; BSR set to: 0
  2924  000A26  C06D  F06E         	movff	___ftmul@f2+2,??___ftmul
  2925  000A2A  0100               	movlb	0	; () banked
  2926  000A2C  6B6F               	clrf	(??___ftmul+1)& (0+255),b
  2927  000A2E  6B70               	clrf	(??___ftmul+2)& (0+255),b
  2928  000A30  0100               	movlb	0	; () banked
  2929  000A32  356C               	rlcf	(___ftmul@f2+1)& (0+255),w,b
  2930  000A34  0100               	movlb	0	; () banked
  2931  000A36  376E               	rlcf	??___ftmul& (0+255),f,b
  2932  000A38  E301               	bnc	u2311
  2933  000A3A  816F               	bsf	(??___ftmul+1)& (0+255),0,b
  2934  000A3C                     u2311:
  2935  000A3C  0100               	movlb	0	; () banked
  2936  000A3E  516E               	movf	??___ftmul& (0+255),w,b
  2937  000A40  0100               	movlb	0	; () banked
  2938  000A42  6F76               	movwf	___ftmul@sign& (0+255),b
  2939  000A44  0100               	movlb	0	; () banked
  2940  000A46  5176               	movf	___ftmul@sign& (0+255),w,b
  2941  000A48  A4D8               	btfss	status,2,c
  2942  000A4A  D00A               	goto	l2978
  2943  000A4C                     l2974:
  2944                           
  2945                           ; BSR set to: 0
  2946  000A4C  0E00               	movlw	0
  2947  000A4E  0100               	movlb	0	; () banked
  2948  000A50  6F68               	movwf	?___ftmul& (0+255),b
  2949  000A52  0E00               	movlw	0
  2950  000A54  0100               	movlb	0	; () banked
  2951  000A56  6F69               	movwf	(?___ftmul+1)& (0+255),b
  2952  000A58  0E00               	movlw	0
  2953  000A5A  0100               	movlb	0	; () banked
  2954  000A5C  6F6A               	movwf	(?___ftmul+2)& (0+255),b
  2955                           
  2956                           ; BSR set to: 0
  2957  000A5E  D07B               	goto	l904
  2958  000A60                     l2978:
  2959                           
  2960                           ; BSR set to: 0
  2961  000A60  0100               	movlb	0	; () banked
  2962  000A62  5176               	movf	___ftmul@sign& (0+255),w,b
  2963  000A64  0F7B               	addlw	123
  2964  000A66  0100               	movlb	0	; () banked
  2965  000A68  2771               	addwf	___ftmul@exp& (0+255),f,b
  2966                           
  2967                           ; BSR set to: 0
  2968  000A6A  C06A  F076         	movff	___ftmul@f1+2,___ftmul@sign
  2969  000A6E  0100               	movlb	0	; () banked
  2970  000A70  516D               	movf	(___ftmul@f2+2)& (0+255),w,b
  2971  000A72  0100               	movlb	0	; () banked
  2972  000A74  1B76               	xorwf	___ftmul@sign& (0+255),f,b
  2973  000A76  0E80               	movlw	128
  2974  000A78  0100               	movlb	0	; () banked
  2975  000A7A  1776               	andwf	___ftmul@sign& (0+255),f,b
  2976                           
  2977                           ; BSR set to: 0
  2978  000A7C  0100               	movlb	0	; () banked
  2979  000A7E  8F69               	bsf	(___ftmul@f1+1)& (0+255),7,b
  2980                           
  2981                           ; BSR set to: 0
  2982  000A80  0100               	movlb	0	; () banked
  2983  000A82  8F6C               	bsf	(___ftmul@f2+1)& (0+255),7,b
  2984                           
  2985                           ; BSR set to: 0
  2986  000A84  0EFF               	movlw	255
  2987  000A86  0100               	movlb	0	; () banked
  2988  000A88  176B               	andwf	___ftmul@f2& (0+255),f,b
  2989  000A8A  0EFF               	movlw	255
  2990  000A8C  0100               	movlb	0	; () banked
  2991  000A8E  176C               	andwf	(___ftmul@f2+1)& (0+255),f,b
  2992  000A90  0E00               	movlw	0
  2993  000A92  0100               	movlb	0	; () banked
  2994  000A94  176D               	andwf	(___ftmul@f2+2)& (0+255),f,b
  2995                           
  2996                           ; BSR set to: 0
  2997  000A96  0E00               	movlw	0
  2998  000A98  0100               	movlb	0	; () banked
  2999  000A9A  6F72               	movwf	___ftmul@f3_as_product& (0+255),b
  3000  000A9C  0E00               	movlw	0
  3001  000A9E  0100               	movlb	0	; () banked
  3002  000AA0  6F73               	movwf	(___ftmul@f3_as_product+1)& (0+255),b
  3003  000AA2  0E00               	movlw	0
  3004  000AA4  0100               	movlb	0	; () banked
  3005  000AA6  6F74               	movwf	(___ftmul@f3_as_product+2)& (0+255),b
  3006                           
  3007                           ; BSR set to: 0
  3008  000AA8  0E07               	movlw	7
  3009  000AAA  0100               	movlb	0	; () banked
  3010  000AAC  6F75               	movwf	___ftmul@cntr& (0+255),b
  3011  000AAE  D000               	goto	l2992
  3012  000AB0                     l2992:
  3013                           
  3014                           ; BSR set to: 0
  3015  000AB0  0100               	movlb	0	; () banked
  3016  000AB2  A168               	btfss	___ftmul@f1& (0+255),0,b
  3017  000AB4  D00D               	goto	l2996
  3018                           
  3019                           ; BSR set to: 0
  3020  000AB6  0100               	movlb	0	; () banked
  3021  000AB8  516B               	movf	___ftmul@f2& (0+255),w,b
  3022  000ABA  0100               	movlb	0	; () banked
  3023  000ABC  2772               	addwf	___ftmul@f3_as_product& (0+255),f,b
  3024  000ABE  0100               	movlb	0	; () banked
  3025  000AC0  516C               	movf	(___ftmul@f2+1)& (0+255),w,b
  3026  000AC2  0100               	movlb	0	; () banked
  3027  000AC4  2373               	addwfc	(___ftmul@f3_as_product+1)& (0+255),f,b
  3028  000AC6  0100               	movlb	0	; () banked
  3029  000AC8  516D               	movf	(___ftmul@f2+2)& (0+255),w,b
  3030  000ACA  0100               	movlb	0	; () banked
  3031  000ACC  2374               	addwfc	(___ftmul@f3_as_product+2)& (0+255),f,b
  3032  000ACE  D000               	goto	l2996
  3033  000AD0                     l2996:
  3034                           
  3035                           ; BSR set to: 0
  3036  000AD0  0100               	movlb	0	; () banked
  3037  000AD2  90D8               	bcf	status,0,c
  3038  000AD4  336A               	rrcf	(___ftmul@f1+2)& (0+255),f,b
  3039  000AD6  3369               	rrcf	(___ftmul@f1+1)& (0+255),f,b
  3040  000AD8  3368               	rrcf	___ftmul@f1& (0+255),f,b
  3041  000ADA  0100               	movlb	0	; () banked
  3042  000ADC  90D8               	bcf	status,0,c
  3043  000ADE  376B               	rlcf	___ftmul@f2& (0+255),f,b
  3044  000AE0  376C               	rlcf	(___ftmul@f2+1)& (0+255),f,b
  3045  000AE2  376D               	rlcf	(___ftmul@f2+2)& (0+255),f,b
  3046                           
  3047                           ; BSR set to: 0
  3048  000AE4  0100               	movlb	0	; () banked
  3049  000AE6  2F75               	decfsz	___ftmul@cntr& (0+255),f,b
  3050  000AE8  D7E3               	goto	l2992
  3051  000AEA  D000               	goto	l3000
  3052  000AEC                     l3000:
  3053                           
  3054                           ; BSR set to: 0
  3055  000AEC  0E09               	movlw	9
  3056  000AEE  0100               	movlb	0	; () banked
  3057  000AF0  6F75               	movwf	___ftmul@cntr& (0+255),b
  3058  000AF2  D000               	goto	l3002
  3059  000AF4                     l3002:
  3060                           
  3061                           ; BSR set to: 0
  3062  000AF4  0100               	movlb	0	; () banked
  3063  000AF6  A168               	btfss	___ftmul@f1& (0+255),0,b
  3064  000AF8  D00D               	goto	l3006
  3065                           
  3066                           ; BSR set to: 0
  3067  000AFA  0100               	movlb	0	; () banked
  3068  000AFC  516B               	movf	___ftmul@f2& (0+255),w,b
  3069  000AFE  0100               	movlb	0	; () banked
  3070  000B00  2772               	addwf	___ftmul@f3_as_product& (0+255),f,b
  3071  000B02  0100               	movlb	0	; () banked
  3072  000B04  516C               	movf	(___ftmul@f2+1)& (0+255),w,b
  3073  000B06  0100               	movlb	0	; () banked
  3074  000B08  2373               	addwfc	(___ftmul@f3_as_product+1)& (0+255),f,b
  3075  000B0A  0100               	movlb	0	; () banked
  3076  000B0C  516D               	movf	(___ftmul@f2+2)& (0+255),w,b
  3077  000B0E  0100               	movlb	0	; () banked
  3078  000B10  2374               	addwfc	(___ftmul@f3_as_product+2)& (0+255),f,b
  3079  000B12  D000               	goto	l3006
  3080  000B14                     l3006:
  3081                           
  3082                           ; BSR set to: 0
  3083  000B14  0100               	movlb	0	; () banked
  3084  000B16  90D8               	bcf	status,0,c
  3085  000B18  336A               	rrcf	(___ftmul@f1+2)& (0+255),f,b
  3086  000B1A  3369               	rrcf	(___ftmul@f1+1)& (0+255),f,b
  3087  000B1C  3368               	rrcf	___ftmul@f1& (0+255),f,b
  3088  000B1E  0100               	movlb	0	; () banked
  3089  000B20  90D8               	bcf	status,0,c
  3090  000B22  3374               	rrcf	(___ftmul@f3_as_product+2)& (0+255),f,b
  3091  000B24  3373               	rrcf	(___ftmul@f3_as_product+1)& (0+255),f,b
  3092  000B26  3372               	rrcf	___ftmul@f3_as_product& (0+255),f,b
  3093                           
  3094                           ; BSR set to: 0
  3095  000B28  0100               	movlb	0	; () banked
  3096  000B2A  2F75               	decfsz	___ftmul@cntr& (0+255),f,b
  3097  000B2C  D7E3               	goto	l3002
  3098  000B2E  D000               	goto	l3010
  3099  000B30                     l3010:
  3100                           
  3101                           ; BSR set to: 0
  3102  000B30  C072  F060         	movff	___ftmul@f3_as_product,___ftpack@arg
  3103  000B34  C073  F061         	movff	___ftmul@f3_as_product+1,___ftpack@arg+1
  3104  000B38  C074  F062         	movff	___ftmul@f3_as_product+2,___ftpack@arg+2
  3105  000B3C  C071  F063         	movff	___ftmul@exp,___ftpack@exp
  3106  000B40  C076  F064         	movff	___ftmul@sign,___ftpack@sign
  3107  000B44  ECE6  F006         	call	___ftpack	;wreg free
  3108  000B48  C060  F068         	movff	?___ftpack,?___ftmul
  3109  000B4C  C061  F069         	movff	?___ftpack+1,?___ftmul+1
  3110  000B50  C062  F06A         	movff	?___ftpack+2,?___ftmul+2
  3111  000B54  D000               	goto	l904
  3112  000B56                     l904:
  3113  000B56  0012               	return		;funcret
  3114  000B58                     __end_of___ftmul:
  3115                           	opt stack 0
  3116                           tblptru	equ	0xFF8
  3117                           intcon	equ	0xFF2
  3118                           intcon2	equ	0xFF1
  3119                           intcon3	equ	0xFF0
  3120                           postinc0	equ	0xFEE
  3121                           wreg	equ	0xFE8
  3122                           status	equ	0xFD8
  3123                           
  3124 ;; *************** function ___ftdiv *****************
  3125 ;; Defined at:
  3126 ;;		line 54 in file "C:\Program Files (x86)\Microchip\xc8\v1.34\sources\common\ftdiv.c"
  3127 ;; Parameters:    Size  Location     Type
  3128 ;;  f1              3   11[BANK0 ] float 
  3129 ;;  f2              3   14[BANK0 ] float 
  3130 ;; Auto vars:     Size  Location     Type
  3131 ;;  f3              3   21[BANK0 ] float 
  3132 ;;  sign            1   25[BANK0 ] unsigned char 
  3133 ;;  exp             1   24[BANK0 ] unsigned char 
  3134 ;;  cntr            1   20[BANK0 ] unsigned char 
  3135 ;; Return value:  Size  Location     Type
  3136 ;;                  3   11[BANK0 ] float 
  3137 ;; Registers used:
  3138 ;;		wreg, status,2, status,0, cstack
  3139 ;; Tracked objects:
  3140 ;;		On entry : 0/0
  3141 ;;		On exit  : 0/0
  3142 ;;		Unchanged: 0/0
  3143 ;; Data sizes:     COMRAM   BANK0   BANK1   BANK2
  3144 ;;      Params:         0       6       0       0
  3145 ;;      Locals:         0       6       0       0
  3146 ;;      Temps:          0       3       0       0
  3147 ;;      Totals:         0      15       0       0
  3148 ;;Total ram usage:       15 bytes
  3149 ;; Hardware stack levels used:    1
  3150 ;; Hardware stack levels required when called:    7
  3151 ;; This function calls:
  3152 ;;		___ftpack
  3153 ;; This function is called by:
  3154 ;;		_conversion_angle
  3155 ;;		_mesure_vitesse
  3156 ;; This function uses a non-reentrant model
  3157 ;;
  3158                           
  3159                           	psect	text19
  3160  000B58                     __ptext19:
  3161                           	opt stack 0
  3162  000B58                     ___ftdiv:
  3163                           	opt stack 22
  3164                           
  3165                           ;incstack = 0
  3166  000B58  C06D  F071         	movff	___ftdiv@f1+2,??___ftdiv
  3167  000B5C  0100               	movlb	0	; () banked
  3168  000B5E  6B72               	clrf	(??___ftdiv+1)& (0+255),b
  3169  000B60  6B73               	clrf	(??___ftdiv+2)& (0+255),b
  3170  000B62  0100               	movlb	0	; () banked
  3171  000B64  356C               	rlcf	(___ftdiv@f1+1)& (0+255),w,b
  3172  000B66  0100               	movlb	0	; () banked
  3173  000B68  3771               	rlcf	??___ftdiv& (0+255),f,b
  3174  000B6A  E301               	bnc	u2241
  3175  000B6C  8172               	bsf	(??___ftdiv+1)& (0+255),0,b
  3176  000B6E                     u2241:
  3177  000B6E  0100               	movlb	0	; () banked
  3178  000B70  5171               	movf	??___ftdiv& (0+255),w,b
  3179  000B72  0100               	movlb	0	; () banked
  3180  000B74  6F78               	movwf	___ftdiv@exp& (0+255),b
  3181  000B76  0100               	movlb	0	; () banked
  3182  000B78  5178               	movf	___ftdiv@exp& (0+255),w,b
  3183  000B7A  A4D8               	btfss	status,2,c
  3184  000B7C  D002               	goto	l2926
  3185  000B7E  D014               	goto	l2928
  3186                           
  3187                           ; BSR set to: 0
  3188                           
  3189                           ; BSR set to: 0
  3190  000B80  D08B               	goto	l889
  3191  000B82                     l2926:
  3192                           
  3193                           ; BSR set to: 0
  3194  000B82  C070  F071         	movff	___ftdiv@f2+2,??___ftdiv
  3195  000B86  0100               	movlb	0	; () banked
  3196  000B88  6B72               	clrf	(??___ftdiv+1)& (0+255),b
  3197  000B8A  6B73               	clrf	(??___ftdiv+2)& (0+255),b
  3198  000B8C  0100               	movlb	0	; () banked
  3199  000B8E  356F               	rlcf	(___ftdiv@f2+1)& (0+255),w,b
  3200  000B90  0100               	movlb	0	; () banked
  3201  000B92  3771               	rlcf	??___ftdiv& (0+255),f,b
  3202  000B94  E301               	bnc	u2261
  3203  000B96  8172               	bsf	(??___ftdiv+1)& (0+255),0,b
  3204  000B98                     u2261:
  3205  000B98  0100               	movlb	0	; () banked
  3206  000B9A  5171               	movf	??___ftdiv& (0+255),w,b
  3207  000B9C  0100               	movlb	0	; () banked
  3208  000B9E  6F79               	movwf	___ftdiv@sign& (0+255),b
  3209  000BA0  0100               	movlb	0	; () banked
  3210  000BA2  5179               	movf	___ftdiv@sign& (0+255),w,b
  3211  000BA4  A4D8               	btfss	status,2,c
  3212  000BA6  D00A               	goto	l2932
  3213  000BA8                     l2928:
  3214                           
  3215                           ; BSR set to: 0
  3216  000BA8  0E00               	movlw	0
  3217  000BAA  0100               	movlb	0	; () banked
  3218  000BAC  6F6B               	movwf	?___ftdiv& (0+255),b
  3219  000BAE  0E00               	movlw	0
  3220  000BB0  0100               	movlb	0	; () banked
  3221  000BB2  6F6C               	movwf	(?___ftdiv+1)& (0+255),b
  3222  000BB4  0E00               	movlw	0
  3223  000BB6  0100               	movlb	0	; () banked
  3224  000BB8  6F6D               	movwf	(?___ftdiv+2)& (0+255),b
  3225                           
  3226                           ; BSR set to: 0
  3227  000BBA  D06E               	goto	l889
  3228  000BBC                     l2932:
  3229                           
  3230                           ; BSR set to: 0
  3231  000BBC  0E00               	movlw	0
  3232  000BBE  0100               	movlb	0	; () banked
  3233  000BC0  6F75               	movwf	___ftdiv@f3& (0+255),b
  3234  000BC2  0E00               	movlw	0
  3235  000BC4  0100               	movlb	0	; () banked
  3236  000BC6  6F76               	movwf	(___ftdiv@f3+1)& (0+255),b
  3237  000BC8  0E00               	movlw	0
  3238  000BCA  0100               	movlb	0	; () banked
  3239  000BCC  6F77               	movwf	(___ftdiv@f3+2)& (0+255),b
  3240                           
  3241                           ; BSR set to: 0
  3242  000BCE  0100               	movlb	0	; () banked
  3243  000BD0  5179               	movf	___ftdiv@sign& (0+255),w,b
  3244  000BD2  0F89               	addlw	137
  3245  000BD4  0100               	movlb	0	; () banked
  3246  000BD6  5F78               	subwf	___ftdiv@exp& (0+255),f,b
  3247                           
  3248                           ; BSR set to: 0
  3249  000BD8  C06D  F079         	movff	___ftdiv@f1+2,___ftdiv@sign
  3250                           
  3251                           ; BSR set to: 0
  3252  000BDC  0100               	movlb	0	; () banked
  3253  000BDE  5170               	movf	(___ftdiv@f2+2)& (0+255),w,b
  3254  000BE0  0100               	movlb	0	; () banked
  3255  000BE2  1B79               	xorwf	___ftdiv@sign& (0+255),f,b
  3256                           
  3257                           ; BSR set to: 0
  3258  000BE4  0E80               	movlw	128
  3259  000BE6  0100               	movlb	0	; () banked
  3260  000BE8  1779               	andwf	___ftdiv@sign& (0+255),f,b
  3261                           
  3262                           ; BSR set to: 0
  3263  000BEA  0100               	movlb	0	; () banked
  3264  000BEC  8F6C               	bsf	(___ftdiv@f1+1)& (0+255),7,b
  3265                           
  3266                           ; BSR set to: 0
  3267  000BEE  0EFF               	movlw	255
  3268  000BF0  0100               	movlb	0	; () banked
  3269  000BF2  176B               	andwf	___ftdiv@f1& (0+255),f,b
  3270  000BF4  0EFF               	movlw	255
  3271  000BF6  0100               	movlb	0	; () banked
  3272  000BF8  176C               	andwf	(___ftdiv@f1+1)& (0+255),f,b
  3273  000BFA  0E00               	movlw	0
  3274  000BFC  0100               	movlb	0	; () banked
  3275  000BFE  176D               	andwf	(___ftdiv@f1+2)& (0+255),f,b
  3276                           
  3277                           ; BSR set to: 0
  3278  000C00  0100               	movlb	0	; () banked
  3279  000C02  8F6F               	bsf	(___ftdiv@f2+1)& (0+255),7,b
  3280                           
  3281                           ; BSR set to: 0
  3282  000C04  0EFF               	movlw	255
  3283  000C06  0100               	movlb	0	; () banked
  3284  000C08  176E               	andwf	___ftdiv@f2& (0+255),f,b
  3285  000C0A  0EFF               	movlw	255
  3286  000C0C  0100               	movlb	0	; () banked
  3287  000C0E  176F               	andwf	(___ftdiv@f2+1)& (0+255),f,b
  3288  000C10  0E00               	movlw	0
  3289  000C12  0100               	movlb	0	; () banked
  3290  000C14  1770               	andwf	(___ftdiv@f2+2)& (0+255),f,b
  3291                           
  3292                           ; BSR set to: 0
  3293  000C16  0E18               	movlw	24
  3294  000C18  0100               	movlb	0	; () banked
  3295  000C1A  6F74               	movwf	___ftdiv@cntr& (0+255),b
  3296  000C1C  D000               	goto	l2952
  3297  000C1E                     l2952:
  3298                           
  3299                           ; BSR set to: 0
  3300  000C1E  0100               	movlb	0	; () banked
  3301  000C20  90D8               	bcf	status,0,c
  3302  000C22  3775               	rlcf	___ftdiv@f3& (0+255),f,b
  3303  000C24  3776               	rlcf	(___ftdiv@f3+1)& (0+255),f,b
  3304  000C26  3777               	rlcf	(___ftdiv@f3+2)& (0+255),f,b
  3305                           
  3306                           ; BSR set to: 0
  3307  000C28  0100               	movlb	0	; () banked
  3308  000C2A  516E               	movf	___ftdiv@f2& (0+255),w,b
  3309  000C2C  0100               	movlb	0	; () banked
  3310  000C2E  5D6B               	subwf	___ftdiv@f1& (0+255),w,b
  3311  000C30  0100               	movlb	0	; () banked
  3312  000C32  516F               	movf	(___ftdiv@f2+1)& (0+255),w,b
  3313  000C34  0100               	movlb	0	; () banked
  3314  000C36  596C               	subwfb	(___ftdiv@f1+1)& (0+255),w,b
  3315  000C38  0100               	movlb	0	; () banked
  3316  000C3A  5170               	movf	(___ftdiv@f2+2)& (0+255),w,b
  3317  000C3C  0100               	movlb	0	; () banked
  3318  000C3E  596D               	subwfb	(___ftdiv@f1+2)& (0+255),w,b
  3319  000C40  A0D8               	btfss	status,0,c
  3320  000C42  D00E               	goto	l892
  3321                           
  3322                           ; BSR set to: 0
  3323  000C44  0100               	movlb	0	; () banked
  3324  000C46  516E               	movf	___ftdiv@f2& (0+255),w,b
  3325  000C48  0100               	movlb	0	; () banked
  3326  000C4A  5F6B               	subwf	___ftdiv@f1& (0+255),f,b
  3327  000C4C  0100               	movlb	0	; () banked
  3328  000C4E  516F               	movf	(___ftdiv@f2+1)& (0+255),w,b
  3329  000C50  0100               	movlb	0	; () banked
  3330  000C52  5B6C               	subwfb	(___ftdiv@f1+1)& (0+255),f,b
  3331  000C54  0100               	movlb	0	; () banked
  3332  000C56  5170               	movf	(___ftdiv@f2+2)& (0+255),w,b
  3333  000C58  0100               	movlb	0	; () banked
  3334  000C5A  5B6D               	subwfb	(___ftdiv@f1+2)& (0+255),f,b
  3335                           
  3336                           ; BSR set to: 0
  3337  000C5C  0100               	movlb	0	; () banked
  3338  000C5E  8175               	bsf	___ftdiv@f3& (0+255),0,b
  3339  000C60                     l892:
  3340                           
  3341                           ; BSR set to: 0
  3342  000C60  0100               	movlb	0	; () banked
  3343  000C62  90D8               	bcf	status,0,c
  3344  000C64  376B               	rlcf	___ftdiv@f1& (0+255),f,b
  3345  000C66  376C               	rlcf	(___ftdiv@f1+1)& (0+255),f,b
  3346  000C68  376D               	rlcf	(___ftdiv@f1+2)& (0+255),f,b
  3347                           
  3348                           ; BSR set to: 0
  3349  000C6A  0100               	movlb	0	; () banked
  3350  000C6C  2F74               	decfsz	___ftdiv@cntr& (0+255),f,b
  3351  000C6E  D7D7               	goto	l2952
  3352  000C70  D000               	goto	l2962
  3353  000C72                     l2962:
  3354                           
  3355                           ; BSR set to: 0
  3356  000C72  C075  F060         	movff	___ftdiv@f3,___ftpack@arg
  3357  000C76  C076  F061         	movff	___ftdiv@f3+1,___ftpack@arg+1
  3358  000C7A  C077  F062         	movff	___ftdiv@f3+2,___ftpack@arg+2
  3359  000C7E  C078  F063         	movff	___ftdiv@exp,___ftpack@exp
  3360  000C82  C079  F064         	movff	___ftdiv@sign,___ftpack@sign
  3361  000C86  ECE6  F006         	call	___ftpack	;wreg free
  3362  000C8A  C060  F06B         	movff	?___ftpack,?___ftdiv
  3363  000C8E  C061  F06C         	movff	?___ftpack+1,?___ftdiv+1
  3364  000C92  C062  F06D         	movff	?___ftpack+2,?___ftdiv+2
  3365  000C96  D000               	goto	l889
  3366  000C98                     l889:
  3367  000C98  0012               	return		;funcret
  3368  000C9A                     __end_of___ftdiv:
  3369                           	opt stack 0
  3370                           tblptru	equ	0xFF8
  3371                           intcon	equ	0xFF2
  3372                           intcon2	equ	0xFF1
  3373                           intcon3	equ	0xFF0
  3374                           postinc0	equ	0xFEE
  3375                           wreg	equ	0xFE8
  3376                           status	equ	0xFD8
  3377                           
  3378 ;; *************** function ___ftpack *****************
  3379 ;; Defined at:
  3380 ;;		line 62 in file "C:\Program Files (x86)\Microchip\xc8\v1.34\sources\common\float.c"
  3381 ;; Parameters:    Size  Location     Type
  3382 ;;  arg             3    0[BANK0 ] unsigned um
  3383 ;;  exp             1    3[BANK0 ] unsigned char 
  3384 ;;  sign            1    4[BANK0 ] unsigned char 
  3385 ;; Auto vars:     Size  Location     Type
  3386 ;;		None
  3387 ;; Return value:  Size  Location     Type
  3388 ;;                  3    0[BANK0 ] float 
  3389 ;; Registers used:
  3390 ;;		wreg, status,2, status,0
  3391 ;; Tracked objects:
  3392 ;;		On entry : 0/0
  3393 ;;		On exit  : 0/0
  3394 ;;		Unchanged: 0/0
  3395 ;; Data sizes:     COMRAM   BANK0   BANK1   BANK2
  3396 ;;      Params:         0       5       0       0
  3397 ;;      Locals:         0       0       0       0
  3398 ;;      Temps:          0       3       0       0
  3399 ;;      Totals:         0       8       0       0
  3400 ;;Total ram usage:        8 bytes
  3401 ;; Hardware stack levels used:    1
  3402 ;; Hardware stack levels required when called:    6
  3403 ;; This function calls:
  3404 ;;		Nothing
  3405 ;; This function is called by:
  3406 ;;		___ftdiv
  3407 ;;		___ftmul
  3408 ;;		___lwtoft
  3409 ;;		___altoft
  3410 ;;		___ftadd
  3411 ;; This function uses a non-reentrant model
  3412 ;;
  3413                           
  3414                           	psect	text20
  3415  000DCC                     __ptext20:
  3416                           	opt stack 0
  3417  000DCC                     ___ftpack:
  3418                           	opt stack 22
  3419                           
  3420                           ;incstack = 0
  3421  000DCC  0100               	movlb	0	; () banked
  3422  000DCE  5163               	movf	___ftpack@exp& (0+255),w,b
  3423  000DD0  0100               	movlb	0	; () banked
  3424  000DD2  B4D8               	btfsc	status,2,c
  3425  000DD4  D008               	goto	l2774
  3426                           
  3427                           ; BSR set to: 0
  3428  000DD6  0100               	movlb	0	; () banked
  3429  000DD8  5160               	movf	___ftpack@arg& (0+255),w,b
  3430  000DDA  0100               	movlb	0	; () banked
  3431  000DDC  1161               	iorwf	(___ftpack@arg+1)& (0+255),w,b
  3432  000DDE  0100               	movlb	0	; () banked
  3433  000DE0  1162               	iorwf	(___ftpack@arg+2)& (0+255),w,b
  3434  000DE2  A4D8               	btfss	status,2,c
  3435  000DE4  D013               	goto	l2780
  3436  000DE6                     l2774:
  3437                           
  3438                           ; BSR set to: 0
  3439  000DE6  0E00               	movlw	0
  3440  000DE8  0100               	movlb	0	; () banked
  3441  000DEA  6F60               	movwf	?___ftpack& (0+255),b
  3442  000DEC  0E00               	movlw	0
  3443  000DEE  0100               	movlb	0	; () banked
  3444  000DF0  6F61               	movwf	(?___ftpack+1)& (0+255),b
  3445  000DF2  0E00               	movlw	0
  3446  000DF4  0100               	movlb	0	; () banked
  3447  000DF6  6F62               	movwf	(?___ftpack+2)& (0+255),b
  3448                           
  3449                           ; BSR set to: 0
  3450  000DF8  D078               	goto	l817
  3451                           
  3452                           ; BSR set to: 0
  3453  000DFA  D008               	goto	l2780
  3454  000DFC                     l2778:
  3455                           
  3456                           ; BSR set to: 0
  3457  000DFC  0100               	movlb	0	; () banked
  3458  000DFE  2B63               	incf	___ftpack@exp& (0+255),f,b
  3459  000E00  0100               	movlb	0	; () banked
  3460  000E02  90D8               	bcf	status,0,c
  3461  000E04  3362               	rrcf	(___ftpack@arg+2)& (0+255),f,b
  3462  000E06  3361               	rrcf	(___ftpack@arg+1)& (0+255),f,b
  3463  000E08  3360               	rrcf	___ftpack@arg& (0+255),f,b
  3464  000E0A  D000               	goto	l2780
  3465  000E0C                     l2780:
  3466                           
  3467                           ; BSR set to: 0
  3468  000E0C  0E00               	movlw	0
  3469  000E0E  0100               	movlb	0	; () banked
  3470  000E10  1560               	andwf	___ftpack@arg& (0+255),w,b
  3471  000E12  0100               	movlb	0	; () banked
  3472  000E14  6F65               	movwf	??___ftpack& (0+255),b
  3473  000E16  0E00               	movlw	0
  3474  000E18  0100               	movlb	0	; () banked
  3475  000E1A  1561               	andwf	(___ftpack@arg+1)& (0+255),w,b
  3476  000E1C  0100               	movlb	0	; () banked
  3477  000E1E  6F66               	movwf	(??___ftpack+1)& (0+255),b
  3478  000E20  0EFE               	movlw	254
  3479  000E22  0100               	movlb	0	; () banked
  3480  000E24  1562               	andwf	(___ftpack@arg+2)& (0+255),w,b
  3481  000E26  0100               	movlb	0	; () banked
  3482  000E28  6F67               	movwf	(??___ftpack+2)& (0+255),b
  3483  000E2A  0100               	movlb	0	; () banked
  3484  000E2C  5165               	movf	??___ftpack& (0+255),w,b
  3485  000E2E  0100               	movlb	0	; () banked
  3486  000E30  1166               	iorwf	(??___ftpack+1)& (0+255),w,b
  3487  000E32  0100               	movlb	0	; () banked
  3488  000E34  1167               	iorwf	(??___ftpack+2)& (0+255),w,b
  3489  000E36  B4D8               	btfsc	status,2,c
  3490  000E38  D013               	goto	l2786
  3491  000E3A  D7E0               	goto	l2778
  3492                           
  3493                           ; BSR set to: 0
  3494  000E3C  D011               	goto	l2786
  3495  000E3E                     l2782:
  3496                           
  3497                           ; BSR set to: 0
  3498  000E3E  0100               	movlb	0	; () banked
  3499  000E40  2B63               	incf	___ftpack@exp& (0+255),f,b
  3500                           
  3501                           ; BSR set to: 0
  3502  000E42  0E01               	movlw	1
  3503  000E44  0100               	movlb	0	; () banked
  3504  000E46  2760               	addwf	___ftpack@arg& (0+255),f,b
  3505  000E48  0E00               	movlw	0
  3506  000E4A  0100               	movlb	0	; () banked
  3507  000E4C  2361               	addwfc	(___ftpack@arg+1)& (0+255),f,b
  3508  000E4E  0E00               	movlw	0
  3509  000E50  0100               	movlb	0	; () banked
  3510  000E52  2362               	addwfc	(___ftpack@arg+2)& (0+255),f,b
  3511  000E54  0100               	movlb	0	; () banked
  3512  000E56  90D8               	bcf	status,0,c
  3513  000E58  3362               	rrcf	(___ftpack@arg+2)& (0+255),f,b
  3514  000E5A  3361               	rrcf	(___ftpack@arg+1)& (0+255),f,b
  3515  000E5C  3360               	rrcf	___ftpack@arg& (0+255),f,b
  3516  000E5E  D000               	goto	l2786
  3517  000E60                     l2786:
  3518                           
  3519                           ; BSR set to: 0
  3520  000E60  0E00               	movlw	0
  3521  000E62  0100               	movlb	0	; () banked
  3522  000E64  1560               	andwf	___ftpack@arg& (0+255),w,b
  3523  000E66  0100               	movlb	0	; () banked
  3524  000E68  6F65               	movwf	??___ftpack& (0+255),b
  3525  000E6A  0E00               	movlw	0
  3526  000E6C  0100               	movlb	0	; () banked
  3527  000E6E  1561               	andwf	(___ftpack@arg+1)& (0+255),w,b
  3528  000E70  0100               	movlb	0	; () banked
  3529  000E72  6F66               	movwf	(??___ftpack+1)& (0+255),b
  3530  000E74  0EFF               	movlw	255
  3531  000E76  0100               	movlb	0	; () banked
  3532  000E78  1562               	andwf	(___ftpack@arg+2)& (0+255),w,b
  3533  000E7A  0100               	movlb	0	; () banked
  3534  000E7C  6F67               	movwf	(??___ftpack+2)& (0+255),b
  3535  000E7E  0100               	movlb	0	; () banked
  3536  000E80  5165               	movf	??___ftpack& (0+255),w,b
  3537  000E82  0100               	movlb	0	; () banked
  3538  000E84  1166               	iorwf	(??___ftpack+1)& (0+255),w,b
  3539  000E86  0100               	movlb	0	; () banked
  3540  000E88  1167               	iorwf	(??___ftpack+2)& (0+255),w,b
  3541  000E8A  B4D8               	btfsc	status,2,c
  3542  000E8C  D00A               	goto	l2790
  3543  000E8E  D7D7               	goto	l2782
  3544                           
  3545                           ; BSR set to: 0
  3546  000E90  D008               	goto	l2790
  3547  000E92                     l2788:
  3548                           
  3549                           ; BSR set to: 0
  3550  000E92  0100               	movlb	0	; () banked
  3551  000E94  0763               	decf	___ftpack@exp& (0+255),f,b
  3552  000E96  0100               	movlb	0	; () banked
  3553  000E98  90D8               	bcf	status,0,c
  3554  000E9A  3760               	rlcf	___ftpack@arg& (0+255),f,b
  3555  000E9C  3761               	rlcf	(___ftpack@arg+1)& (0+255),f,b
  3556  000E9E  3762               	rlcf	(___ftpack@arg+2)& (0+255),f,b
  3557  000EA0  D000               	goto	l2790
  3558  000EA2                     l2790:
  3559                           
  3560                           ; BSR set to: 0
  3561  000EA2  0100               	movlb	0	; () banked
  3562  000EA4  BF61               	btfsc	(___ftpack@arg+1)& (0+255),7,b
  3563  000EA6  D005               	goto	l828
  3564                           
  3565                           ; BSR set to: 0
  3566  000EA8  0E02               	movlw	2
  3567  000EAA  0100               	movlb	0	; () banked
  3568  000EAC  6163               	cpfslt	___ftpack@exp& (0+255),b
  3569  000EAE  D7F1               	goto	l2788
  3570  000EB0  D000               	goto	l828
  3571  000EB2                     l828:
  3572                           
  3573                           ; BSR set to: 0
  3574  000EB2  0100               	movlb	0	; () banked
  3575  000EB4  B163               	btfsc	___ftpack@exp& (0+255),0,b
  3576  000EB6  D003               	goto	l2796
  3577                           
  3578                           ; BSR set to: 0
  3579  000EB8  0100               	movlb	0	; () banked
  3580  000EBA  9F61               	bcf	(___ftpack@arg+1)& (0+255),7,b
  3581  000EBC  D000               	goto	l2796
  3582  000EBE                     l2796:
  3583                           
  3584                           ; BSR set to: 0
  3585  000EBE  0100               	movlb	0	; () banked
  3586  000EC0  90D8               	bcf	status,0,c
  3587  000EC2  3363               	rrcf	___ftpack@exp& (0+255),f,b
  3588  000EC4  0100               	movlb	0	; () banked
  3589  000EC6  5163               	movf	___ftpack@exp& (0+255),w,b
  3590  000EC8  0100               	movlb	0	; () banked
  3591  000ECA  1362               	iorwf	(___ftpack@arg+2)& (0+255),f,b
  3592                           
  3593                           ; BSR set to: 0
  3594  000ECC  0100               	movlb	0	; () banked
  3595  000ECE  5164               	movf	___ftpack@sign& (0+255),w,b
  3596  000ED0  0100               	movlb	0	; () banked
  3597  000ED2  B4D8               	btfsc	status,2,c
  3598  000ED4  D003               	goto	l2802
  3599                           
  3600                           ; BSR set to: 0
  3601  000ED6  0100               	movlb	0	; () banked
  3602  000ED8  8F62               	bsf	(___ftpack@arg+2)& (0+255),7,b
  3603  000EDA  D000               	goto	l2802
  3604  000EDC                     l2802:
  3605                           
  3606                           ; BSR set to: 0
  3607  000EDC  C060  F060         	movff	___ftpack@arg,?___ftpack
  3608  000EE0  C061  F061         	movff	___ftpack@arg+1,?___ftpack+1
  3609  000EE4  C062  F062         	movff	___ftpack@arg+2,?___ftpack+2
  3610  000EE8  D000               	goto	l817
  3611  000EEA                     l817:
  3612                           
  3613                           ; BSR set to: 0
  3614  000EEA  0012               	return		;funcret
  3615  000EEC                     __end_of___ftpack:
  3616                           	opt stack 0
  3617                           tblptru	equ	0xFF8
  3618                           intcon	equ	0xFF2
  3619                           intcon2	equ	0xFF1
  3620                           intcon3	equ	0xFF0
  3621                           postinc0	equ	0xFEE
  3622                           wreg	equ	0xFE8
  3623                           status	equ	0xFD8
  3624                           
  3625 ;; *************** function _PutIntUART *****************
  3626 ;; Defined at:
  3627 ;;		line 248 in file "uart.c"
  3628 ;; Parameters:    Size  Location     Type
  3629 ;;  type_uart       1    wreg     unsigned char 
  3630 ;;  nb              2   35[BANK0 ] int 
  3631 ;; Auto vars:     Size  Location     Type
  3632 ;;  type_uart       1   37[BANK0 ] unsigned char 
  3633 ;; Return value:  Size  Location     Type
  3634 ;;		None               void
  3635 ;; Registers used:
  3636 ;;		wreg, fsr0l, fsr0h, fsr2l, fsr2h, status,2, status,0, tblptrl, tblptrh, tblptru, prodl, prodh, cstack
  3637 ;; Tracked objects:
  3638 ;;		On entry : 0/0
  3639 ;;		On exit  : 0/0
  3640 ;;		Unchanged: 0/0
  3641 ;; Data sizes:     COMRAM   BANK0   BANK1   BANK2
  3642 ;;      Params:         0       2       0       0
  3643 ;;      Locals:         0       1       0       0
  3644 ;;      Temps:          0       0       0       0
  3645 ;;      Totals:         0       3       0       0
  3646 ;;Total ram usage:        3 bytes
  3647 ;; Hardware stack levels used:    1
  3648 ;; Hardware stack levels required when called:    9
  3649 ;; This function calls:
  3650 ;;		_IntToC
  3651 ;;		_PutsUART
  3652 ;; This function is called by:
  3653 ;;		_main
  3654 ;;		_traitement_reception
  3655 ;; This function uses a non-reentrant model
  3656 ;;
  3657                           
  3658                           	psect	text21
  3659  0018AE                     __ptext21:
  3660                           	opt stack 0
  3661  0018AE                     _PutIntUART:
  3662                           	opt stack 21
  3663                           
  3664                           ; BSR set to: 0
  3665                           ;incstack = 0
  3666                           ;PutIntUART@type_uart stored from wreg
  3667  0018AE  0100               	movlb	0	; () banked
  3668  0018B0  6F85               	movwf	PutIntUART@type_uart& (0+255),b
  3669                           
  3670                           ; BSR set to: 0
  3671                           ;uart.c: 250: PutsUART (type_uart, IntToC (nb));
  3672  0018B2  C083  F06E         	movff	PutIntUART@nb,IntToC@nb
  3673  0018B6  C084  F06F         	movff	PutIntUART@nb+1,IntToC@nb+1
  3674  0018BA  EC5A  F003         	call	_IntToC	;wreg free
  3675  0018BE  C06E  F07E         	movff	?_IntToC,PutsUART@chaine
  3676  0018C2  C06F  F07F         	movff	?_IntToC+1,PutsUART@chaine+1
  3677  0018C6  0100               	movlb	0	; () banked
  3678  0018C8  5185               	movf	PutIntUART@type_uart& (0+255),w,b
  3679  0018CA  EC58  F00A         	call	_PutsUART
  3680  0018CE  0012               	return		;funcret
  3681  0018D0                     __end_of_PutIntUART:
  3682                           	opt stack 0
  3683                           tblptru	equ	0xFF8
  3684                           intcon	equ	0xFF2
  3685                           intcon2	equ	0xFF1
  3686                           intcon3	equ	0xFF0
  3687                           postinc0	equ	0xFEE
  3688                           wreg	equ	0xFE8
  3689                           status	equ	0xFD8
  3690                           
  3691 ;; *************** function _PutsUART *****************
  3692 ;; Defined at:
  3693 ;;		line 148 in file "uart.c"
  3694 ;; Parameters:    Size  Location     Type
  3695 ;;  type_uart       1    wreg     unsigned char 
  3696 ;;  chaine          2   30[BANK0 ] PTR const unsigned char 
  3697 ;;		 -> IntToC@out(8), STR_4(20), STR_3(8), STR_2(3), 
  3698 ;;		 -> STR_1(24), 
  3699 ;; Auto vars:     Size  Location     Type
  3700 ;;  type_uart       1   34[BANK0 ] unsigned char 
  3701 ;; Return value:  Size  Location     Type
  3702 ;;		None               void
  3703 ;; Registers used:
  3704 ;;		wreg, fsr0l, fsr0h, status,2, status,0, tblptrl, tblptrh, tblptru, prodl, prodh, cstack
  3705 ;; Tracked objects:
  3706 ;;		On entry : 0/0
  3707 ;;		On exit  : 0/0
  3708 ;;		Unchanged: 0/0
  3709 ;; Data sizes:     COMRAM   BANK0   BANK1   BANK2
  3710 ;;      Params:         0       2       0       0
  3711 ;;      Locals:         0       1       0       0
  3712 ;;      Temps:          0       2       0       0
  3713 ;;      Totals:         0       5       0       0
  3714 ;;Total ram usage:        5 bytes
  3715 ;; Hardware stack levels used:    1
  3716 ;; Hardware stack levels required when called:    8
  3717 ;; This function calls:
  3718 ;;		_PutcUART
  3719 ;; This function is called by:
  3720 ;;		_main
  3721 ;;		_PutIntUART
  3722 ;;		_traitement_reception
  3723 ;; This function uses a non-reentrant model
  3724 ;;
  3725                           
  3726                           	psect	text22
  3727  0014B0                     __ptext22:
  3728                           	opt stack 0
  3729  0014B0                     _PutsUART:
  3730                           	opt stack 22
  3731                           
  3732                           ;incstack = 0
  3733                           ;PutsUART@type_uart stored from wreg
  3734  0014B0  0100               	movlb	0	; () banked
  3735  0014B2  6F82               	movwf	PutsUART@type_uart& (0+255),b
  3736  0014B4                     
  3737                           ;uart.c: 151: {
  3738                           ;uart.c: 152: PutcUART (type_uart, *chaine);
  3739  0014B4  C07E  FFF6         	movff	PutsUART@chaine,tblptrl
  3740  0014B8  C07F  FFF7         	movff	PutsUART@chaine+1,tblptrh
  3741  0014BC  6AF8               	clrf	tblptru,c
  3742  0014BE  0E02               	movlw	(high __ramtop+-1)
  3743  0014C0  64F7               	cpfsgt	tblptrh,c
  3744  0014C2  D003               	bra	u2187
  3745  0014C4  0008               	tblrd		*
  3746  0014C6  50F5               	movf	tablat,w,c
  3747  0014C8  D005               	bra	u2180
  3748  0014CA                     u2187:
  3749  0014CA  CFF6 FFE9          	movff	tblptrl,fsr0l
  3750  0014CE  CFF7 FFEA          	movff	tblptrh,fsr0h
  3751  0014D2  50EF               	movf	indf0,w,c
  3752  0014D4                     u2180:
  3753  0014D4  0100               	movlb	0	; () banked
  3754  0014D6  6F6E               	movwf	PutcUART@octet& (0+255),b
  3755  0014D8  0100               	movlb	0	; () banked
  3756  0014DA  5182               	movf	PutsUART@type_uart& (0+255),w,b
  3757  0014DC  EC9B  F001         	call	_PutcUART
  3758                           
  3759                           ;uart.c: 153: }
  3760                           ;uart.c: 154: while (*chaine++);
  3761  0014E0  0100               	movlb	0	; () banked
  3762  0014E2  517E               	movf	PutsUART@chaine& (0+255),w,b
  3763  0014E4  0100               	movlb	0	; () banked
  3764  0014E6  6F80               	movwf	??_PutsUART& (0+255),b
  3765  0014E8  0100               	movlb	0	; () banked
  3766  0014EA  517F               	movf	(PutsUART@chaine+1)& (0+255),w,b
  3767  0014EC  0100               	movlb	0	; () banked
  3768  0014EE  6F81               	movwf	(??_PutsUART+1)& (0+255),b
  3769  0014F0  0100               	movlb	0	; () banked
  3770  0014F2  4B7E               	infsnz	PutsUART@chaine& (0+255),f,b
  3771  0014F4  2B7F               	incf	(PutsUART@chaine+1)& (0+255),f,b
  3772  0014F6  C080  FFF6         	movff	??_PutsUART,tblptrl
  3773  0014FA  C081  FFF7         	movff	??_PutsUART+1,tblptrh
  3774  0014FE  6AF8               	clrf	tblptru,c
  3775  001500  0E02               	movlw	(high __ramtop+-1)
  3776  001502  64F7               	cpfsgt	tblptrh,c
  3777  001504  D003               	bra	u2197
  3778  001506  0008               	tblrd		*
  3779  001508  50F5               	movf	tablat,w,c
  3780  00150A  D005               	bra	u2190
  3781  00150C                     u2197:
  3782  00150C  CFF6 FFE9          	movff	tblptrl,fsr0l
  3783  001510  CFF7 FFEA          	movff	tblptrh,fsr0h
  3784  001514  50EF               	movf	indf0,w,c
  3785  001516                     u2190:
  3786  001516  0900               	iorlw	0
  3787  001518  A4D8               	btfss	status,2,c
  3788  00151A  D7CC               	goto	l2806
  3789  00151C  0012               	return		;funcret
  3790  00151E                     __end_of_PutsUART:
  3791                           	opt stack 0
  3792                           tblptru	equ	0xFF8
  3793                           tblptrh	equ	0xFF7
  3794                           tblptrl	equ	0xFF6
  3795                           tablat	equ	0xFF5
  3796                           intcon	equ	0xFF2
  3797                           intcon2	equ	0xFF1
  3798                           intcon3	equ	0xFF0
  3799                           indf0	equ	0xFEF
  3800                           postinc0	equ	0xFEE
  3801                           fsr0h	equ	0xFEA
  3802                           fsr0l	equ	0xFE9
  3803                           wreg	equ	0xFE8
  3804                           status	equ	0xFD8
  3805                           
  3806 ;; *************** function _PutcUART *****************
  3807 ;; Defined at:
  3808 ;;		line 122 in file "uart.c"
  3809 ;; Parameters:    Size  Location     Type
  3810 ;;  type_uart       1    wreg     unsigned char 
  3811 ;;  octet           1   14[BANK0 ] unsigned char 
  3812 ;; Auto vars:     Size  Location     Type
  3813 ;;  type_uart       1   21[BANK0 ] unsigned char 
  3814 ;; Return value:  Size  Location     Type
  3815 ;;		None               void
  3816 ;; Registers used:
  3817 ;;		wreg, status,2, status,0, prodl, prodh, cstack
  3818 ;; Tracked objects:
  3819 ;;		On entry : 0/0
  3820 ;;		On exit  : 0/0
  3821 ;;		Unchanged: 0/0
  3822 ;; Data sizes:     COMRAM   BANK0   BANK1   BANK2
  3823 ;;      Params:         0       1       0       0
  3824 ;;      Locals:         0       1       0       0
  3825 ;;      Temps:          0       6       0       0
  3826 ;;      Totals:         0       8       0       0
  3827 ;;Total ram usage:        8 bytes
  3828 ;; Hardware stack levels used:    1
  3829 ;; Hardware stack levels required when called:    7
  3830 ;; This function calls:
  3831 ;;		___awdiv
  3832 ;; This function is called by:
  3833 ;;		_PutsUART
  3834 ;;		_traitement_reception
  3835 ;;		_Puts2UART
  3836 ;; This function uses a non-reentrant model
  3837 ;;
  3838                           
  3839                           	psect	text23
  3840  000336                     __ptext23:
  3841                           	opt stack 0
  3842  000336                     _PutcUART:
  3843                           	opt stack 22
  3844                           
  3845                           ;incstack = 0
  3846                           ;PutcUART@type_uart stored from wreg
  3847  000336  0100               	movlb	0	; () banked
  3848  000338  6F75               	movwf	PutcUART@type_uart& (0+255),b
  3849                           
  3850                           ; BSR set to: 0
  3851                           ;uart.c: 124: if (type_uart == 0)
  3852  00033A  0100               	movlb	0	; () banked
  3853  00033C  5175               	movf	PutcUART@type_uart& (0+255),w,b
  3854  00033E  0100               	movlb	0	; () banked
  3855  000340  B4D8               	btfsc	status,2,c
  3856  000342  D002               	goto	l239
  3857  000344  D007               	goto	l2740
  3858                           
  3859                           ; BSR set to: 0
  3860                           ;uart.c: 125: {
  3861                           ;uart.c: 126: while (PIR1bits.TXIF == 0);
  3862  000346  D000               	goto	l239
  3863  000348                     l239:
  3864                           
  3865                           ; BSR set to: 0
  3866  000348  A89E               	btfss	3998,4,c	;volatile
  3867  00034A  D7FE               	goto	l239
  3868                           
  3869                           ; BSR set to: 0
  3870                           ;uart.c: 127: TXREG = octet;
  3871  00034C  C06E  FFAD         	movff	PutcUART@octet,4013	;volatile
  3872                           
  3873                           ;uart.c: 128: }
  3874  000350  D1B0               	goto	l246
  3875                           
  3876                           ; BSR set to: 0
  3877                           
  3878                           ; BSR set to: 0
  3879                           ;uart.c: 129: else
  3880                           ;uart.c: 130: {
  3881                           ;uart.c: 131: while(uart_logiciel.transmission_en_cours == 1);
  3882  000352  D000               	goto	l2740
  3883  000354                     l2740:
  3884                           
  3885                           ; BSR set to: 0
  3886  000354  0444               	decf	_uart_logiciel+11,w,c
  3887  000356  B4D8               	btfsc	status,2,c
  3888  000358  D7FD               	goto	l2740
  3889                           
  3890                           ; BSR set to: 0
  3891                           ;uart.c: 132: uart_logiciel.indice = 0;
  3892                           
  3893                           ; BSR set to: 0
  3894  00035A  0E00               	movlw	0
  3895  00035C  6E45               	movwf	_uart_logiciel+12,c
  3896                           
  3897                           ;uart.c: 133: uart_logiciel.buffer_uart[10] = 1;
  3898  00035E  0E01               	movlw	1
  3899  000360  6E43               	movwf	_uart_logiciel+10,c
  3900                           
  3901                           ;uart.c: 134: uart_logiciel.buffer_uart[9] = 1;
  3902  000362  0E01               	movlw	1
  3903  000364  6E42               	movwf	_uart_logiciel+9,c
  3904                           
  3905                           ; BSR set to: 0
  3906                           ;uart.c: 135: uart_logiciel.buffer_uart[8] = octet / 128;
  3907  000366  C06E  F066         	movff	PutcUART@octet,___awdiv@dividend
  3908  00036A  0100               	movlb	0	; () banked
  3909  00036C  6B67               	clrf	(___awdiv@dividend+1)& (0+255),b
  3910  00036E  0E00               	movlw	0
  3911  000370  0100               	movlb	0	; () banked
  3912  000372  6F69               	movwf	(___awdiv@divisor+1)& (0+255),b
  3913  000374  0E80               	movlw	128
  3914  000376  6F68               	movwf	___awdiv@divisor& (0+255),b
  3915  000378  ECE7  F007         	call	___awdiv	;wreg free
  3916  00037C  0100               	movlb	0	; () banked
  3917  00037E  5166               	movf	?___awdiv& (0+255),w,b
  3918  000380  6E41               	movwf	_uart_logiciel+8,c
  3919                           
  3920                           ; BSR set to: 0
  3921                           ;uart.c: 136: uart_logiciel.buffer_uart[7] = (octet - uart_logiciel.buffer_uart[8] * 128
      +                          ) / 64;
  3922  000382  5041               	movf	_uart_logiciel+8,w,c
  3923  000384  0D80               	mullw	128
  3924  000386  1EF3               	comf	prodl,f,c
  3925  000388  1EF4               	comf	prodh,f,c
  3926  00038A  4AF3               	infsnz	prodl,f,c
  3927  00038C  2AF4               	incf	prodh,f,c
  3928  00038E  0100               	movlb	0	; () banked
  3929  000390  516E               	movf	PutcUART@octet& (0+255),w,b
  3930  000392  24F3               	addwf	prodl,w,c
  3931  000394  0100               	movlb	0	; () banked
  3932  000396  6F66               	movwf	___awdiv@dividend& (0+255),b
  3933  000398  0E00               	movlw	0
  3934  00039A  20F4               	addwfc	prodh,w,c
  3935  00039C  0100               	movlb	0	; () banked
  3936  00039E  6F67               	movwf	(___awdiv@dividend+1)& (0+255),b
  3937  0003A0  0E00               	movlw	0
  3938  0003A2  0100               	movlb	0	; () banked
  3939  0003A4  6F69               	movwf	(___awdiv@divisor+1)& (0+255),b
  3940  0003A6  0E40               	movlw	64
  3941  0003A8  6F68               	movwf	___awdiv@divisor& (0+255),b
  3942  0003AA  ECE7  F007         	call	___awdiv	;wreg free
  3943  0003AE  0100               	movlb	0	; () banked
  3944  0003B0  5166               	movf	?___awdiv& (0+255),w,b
  3945  0003B2  6E40               	movwf	_uart_logiciel+7,c
  3946                           
  3947                           ; BSR set to: 0
  3948                           ;uart.c: 137: uart_logiciel.buffer_uart[6] = (octet - uart_logiciel.buffer_uart[8] * 128
      +                           - uart_logiciel.buffer_uart[7] * 64) / 32;
  3949  0003B4  5041               	movf	_uart_logiciel+8,w,c
  3950  0003B6  0D80               	mullw	128
  3951  0003B8  1EF3               	comf	prodl,f,c
  3952  0003BA  1EF4               	comf	prodh,f,c
  3953  0003BC  4AF3               	infsnz	prodl,f,c
  3954  0003BE  2AF4               	incf	prodh,f,c
  3955  0003C0  0100               	movlb	0	; () banked
  3956  0003C2  516E               	movf	PutcUART@octet& (0+255),w,b
  3957  0003C4  0100               	movlb	0	; () banked
  3958  0003C6  6F6F               	movwf	??_PutcUART& (0+255),b
  3959  0003C8  6B70               	clrf	(??_PutcUART+1)& (0+255),b
  3960  0003CA  50F3               	movf	prodl,w,c
  3961  0003CC  0100               	movlb	0	; () banked
  3962  0003CE  276F               	addwf	??_PutcUART& (0+255),f,b
  3963  0003D0  50F4               	movf	prodh,w,c
  3964  0003D2  0100               	movlb	0	; () banked
  3965  0003D4  2370               	addwfc	(??_PutcUART+1)& (0+255),f,b
  3966  0003D6  5040               	movf	_uart_logiciel+7,w,c
  3967  0003D8  0D40               	mullw	64
  3968  0003DA  1EF3               	comf	prodl,f,c
  3969  0003DC  1EF4               	comf	prodh,f,c
  3970  0003DE  4AF3               	infsnz	prodl,f,c
  3971  0003E0  2AF4               	incf	prodh,f,c
  3972  0003E2  50F3               	movf	prodl,w,c
  3973  0003E4  0100               	movlb	0	; () banked
  3974  0003E6  256F               	addwf	??_PutcUART& (0+255),w,b
  3975  0003E8  0100               	movlb	0	; () banked
  3976  0003EA  6F66               	movwf	___awdiv@dividend& (0+255),b
  3977  0003EC  50F4               	movf	prodh,w,c
  3978  0003EE  0100               	movlb	0	; () banked
  3979  0003F0  2170               	addwfc	(??_PutcUART+1)& (0+255),w,b
  3980  0003F2  0100               	movlb	0	; () banked
  3981  0003F4  6F67               	movwf	(___awdiv@dividend+1)& (0+255),b
  3982  0003F6  0E00               	movlw	0
  3983  0003F8  0100               	movlb	0	; () banked
  3984  0003FA  6F69               	movwf	(___awdiv@divisor+1)& (0+255),b
  3985  0003FC  0E20               	movlw	32
  3986  0003FE  6F68               	movwf	___awdiv@divisor& (0+255),b
  3987  000400  ECE7  F007         	call	___awdiv	;wreg free
  3988  000404  0100               	movlb	0	; () banked
  3989  000406  5166               	movf	?___awdiv& (0+255),w,b
  3990  000408  6E3F               	movwf	_uart_logiciel+6,c
  3991                           
  3992                           ; BSR set to: 0
  3993                           ;uart.c: 138: uart_logiciel.buffer_uart[5] = (octet - uart_logiciel.buffer_uart[8] * 128
      +                           - uart_logiciel.buffer_uart[7] * 64 - uart_logiciel.buffer_uart[6] * 32) / 16;
  3994  00040A  5041               	movf	_uart_logiciel+8,w,c
  3995  00040C  0D80               	mullw	128
  3996  00040E  1EF3               	comf	prodl,f,c
  3997  000410  1EF4               	comf	prodh,f,c
  3998  000412  4AF3               	infsnz	prodl,f,c
  3999  000414  2AF4               	incf	prodh,f,c
  4000  000416  0100               	movlb	0	; () banked
  4001  000418  516E               	movf	PutcUART@octet& (0+255),w,b
  4002  00041A  0100               	movlb	0	; () banked
  4003  00041C  6F6F               	movwf	??_PutcUART& (0+255),b
  4004  00041E  6B70               	clrf	(??_PutcUART+1)& (0+255),b
  4005  000420  50F3               	movf	prodl,w,c
  4006  000422  0100               	movlb	0	; () banked
  4007  000424  276F               	addwf	??_PutcUART& (0+255),f,b
  4008  000426  50F4               	movf	prodh,w,c
  4009  000428  0100               	movlb	0	; () banked
  4010  00042A  2370               	addwfc	(??_PutcUART+1)& (0+255),f,b
  4011  00042C  5040               	movf	_uart_logiciel+7,w,c
  4012  00042E  0D40               	mullw	64
  4013  000430  1EF3               	comf	prodl,f,c
  4014  000432  1EF4               	comf	prodh,f,c
  4015  000434  4AF3               	infsnz	prodl,f,c
  4016  000436  2AF4               	incf	prodh,f,c
  4017  000438  50F3               	movf	prodl,w,c
  4018  00043A  0100               	movlb	0	; () banked
  4019  00043C  276F               	addwf	??_PutcUART& (0+255),f,b
  4020  00043E  50F4               	movf	prodh,w,c
  4021  000440  0100               	movlb	0	; () banked
  4022  000442  2370               	addwfc	(??_PutcUART+1)& (0+255),f,b
  4023  000444  503F               	movf	_uart_logiciel+6,w,c
  4024  000446  0D20               	mullw	32
  4025  000448  1EF3               	comf	prodl,f,c
  4026  00044A  1EF4               	comf	prodh,f,c
  4027  00044C  4AF3               	infsnz	prodl,f,c
  4028  00044E  2AF4               	incf	prodh,f,c
  4029  000450  50F3               	movf	prodl,w,c
  4030  000452  0100               	movlb	0	; () banked
  4031  000454  256F               	addwf	??_PutcUART& (0+255),w,b
  4032  000456  0100               	movlb	0	; () banked
  4033  000458  6F66               	movwf	___awdiv@dividend& (0+255),b
  4034  00045A  50F4               	movf	prodh,w,c
  4035  00045C  0100               	movlb	0	; () banked
  4036  00045E  2170               	addwfc	(??_PutcUART+1)& (0+255),w,b
  4037  000460  0100               	movlb	0	; () banked
  4038  000462  6F67               	movwf	(___awdiv@dividend+1)& (0+255),b
  4039  000464  0E00               	movlw	0
  4040  000466  0100               	movlb	0	; () banked
  4041  000468  6F69               	movwf	(___awdiv@divisor+1)& (0+255),b
  4042  00046A  0E10               	movlw	16
  4043  00046C  6F68               	movwf	___awdiv@divisor& (0+255),b
  4044  00046E  ECE7  F007         	call	___awdiv	;wreg free
  4045  000472  0100               	movlb	0	; () banked
  4046  000474  5166               	movf	?___awdiv& (0+255),w,b
  4047  000476  6E3E               	movwf	_uart_logiciel+5,c
  4048                           
  4049                           ; BSR set to: 0
  4050                           ;uart.c: 139: uart_logiciel.buffer_uart[4] = (octet - uart_logiciel.buffer_uart[8] * 128
      +                           - uart_logiciel.buffer_uart[7] * 64 - uart_logiciel.buffer_uart[6] * 32 - uart_logiciel
      +                          .buffer_uart[5] * 16) / 8;
  4051  000478  5041               	movf	_uart_logiciel+8,w,c
  4052  00047A  0D80               	mullw	128
  4053  00047C  1EF3               	comf	prodl,f,c
  4054  00047E  1EF4               	comf	prodh,f,c
  4055  000480  4AF3               	infsnz	prodl,f,c
  4056  000482  2AF4               	incf	prodh,f,c
  4057  000484  0100               	movlb	0	; () banked
  4058  000486  516E               	movf	PutcUART@octet& (0+255),w,b
  4059  000488  0100               	movlb	0	; () banked
  4060  00048A  6F6F               	movwf	??_PutcUART& (0+255),b
  4061  00048C  6B70               	clrf	(??_PutcUART+1)& (0+255),b
  4062  00048E  50F3               	movf	prodl,w,c
  4063  000490  0100               	movlb	0	; () banked
  4064  000492  276F               	addwf	??_PutcUART& (0+255),f,b
  4065  000494  50F4               	movf	prodh,w,c
  4066  000496  0100               	movlb	0	; () banked
  4067  000498  2370               	addwfc	(??_PutcUART+1)& (0+255),f,b
  4068  00049A  5040               	movf	_uart_logiciel+7,w,c
  4069  00049C  0D40               	mullw	64
  4070  00049E  1EF3               	comf	prodl,f,c
  4071  0004A0  1EF4               	comf	prodh,f,c
  4072  0004A2  4AF3               	infsnz	prodl,f,c
  4073  0004A4  2AF4               	incf	prodh,f,c
  4074  0004A6  50F3               	movf	prodl,w,c
  4075  0004A8  0100               	movlb	0	; () banked
  4076  0004AA  276F               	addwf	??_PutcUART& (0+255),f,b
  4077  0004AC  50F4               	movf	prodh,w,c
  4078  0004AE  0100               	movlb	0	; () banked
  4079  0004B0  2370               	addwfc	(??_PutcUART+1)& (0+255),f,b
  4080  0004B2  503F               	movf	_uart_logiciel+6,w,c
  4081  0004B4  0D20               	mullw	32
  4082  0004B6  1EF3               	comf	prodl,f,c
  4083  0004B8  1EF4               	comf	prodh,f,c
  4084  0004BA  4AF3               	infsnz	prodl,f,c
  4085  0004BC  2AF4               	incf	prodh,f,c
  4086  0004BE  50F3               	movf	prodl,w,c
  4087  0004C0  0100               	movlb	0	; () banked
  4088  0004C2  276F               	addwf	??_PutcUART& (0+255),f,b
  4089  0004C4  50F4               	movf	prodh,w,c
  4090  0004C6  0100               	movlb	0	; () banked
  4091  0004C8  2370               	addwfc	(??_PutcUART+1)& (0+255),f,b
  4092  0004CA  503E               	movf	_uart_logiciel+5,w,c
  4093  0004CC  0D10               	mullw	16
  4094  0004CE  1EF3               	comf	prodl,f,c
  4095  0004D0  1EF4               	comf	prodh,f,c
  4096  0004D2  4AF3               	infsnz	prodl,f,c
  4097  0004D4  2AF4               	incf	prodh,f,c
  4098  0004D6  50F3               	movf	prodl,w,c
  4099  0004D8  0100               	movlb	0	; () banked
  4100  0004DA  256F               	addwf	??_PutcUART& (0+255),w,b
  4101  0004DC  0100               	movlb	0	; () banked
  4102  0004DE  6F66               	movwf	___awdiv@dividend& (0+255),b
  4103  0004E0  50F4               	movf	prodh,w,c
  4104  0004E2  0100               	movlb	0	; () banked
  4105  0004E4  2170               	addwfc	(??_PutcUART+1)& (0+255),w,b
  4106  0004E6  0100               	movlb	0	; () banked
  4107  0004E8  6F67               	movwf	(___awdiv@dividend+1)& (0+255),b
  4108  0004EA  0E00               	movlw	0
  4109  0004EC  0100               	movlb	0	; () banked
  4110  0004EE  6F69               	movwf	(___awdiv@divisor+1)& (0+255),b
  4111  0004F0  0E08               	movlw	8
  4112  0004F2  6F68               	movwf	___awdiv@divisor& (0+255),b
  4113  0004F4  ECE7  F007         	call	___awdiv	;wreg free
  4114  0004F8  0100               	movlb	0	; () banked
  4115  0004FA  5166               	movf	?___awdiv& (0+255),w,b
  4116  0004FC  6E3D               	movwf	_uart_logiciel+4,c
  4117                           
  4118                           ; BSR set to: 0
  4119                           ;uart.c: 140: uart_logiciel.buffer_uart[3] = (octet - uart_logiciel.buffer_uart[8] * 128
      +                           - uart_logiciel.buffer_uart[7] * 64 - uart_logiciel.buffer_uart[6] * 32 - uart_logiciel
      +                          .buffer_uart[5] * 16 - uart_logiciel.buffer_uart[4] * 8) / 4;
  4120  0004FE  5041               	movf	_uart_logiciel+8,w,c
  4121  000500  0D80               	mullw	128
  4122  000502  1EF3               	comf	prodl,f,c
  4123  000504  1EF4               	comf	prodh,f,c
  4124  000506  4AF3               	infsnz	prodl,f,c
  4125  000508  2AF4               	incf	prodh,f,c
  4126  00050A  0100               	movlb	0	; () banked
  4127  00050C  516E               	movf	PutcUART@octet& (0+255),w,b
  4128  00050E  0100               	movlb	0	; () banked
  4129  000510  6F6F               	movwf	??_PutcUART& (0+255),b
  4130  000512  6B70               	clrf	(??_PutcUART+1)& (0+255),b
  4131  000514  50F3               	movf	prodl,w,c
  4132  000516  0100               	movlb	0	; () banked
  4133  000518  276F               	addwf	??_PutcUART& (0+255),f,b
  4134  00051A  50F4               	movf	prodh,w,c
  4135  00051C  0100               	movlb	0	; () banked
  4136  00051E  2370               	addwfc	(??_PutcUART+1)& (0+255),f,b
  4137  000520  5040               	movf	_uart_logiciel+7,w,c
  4138  000522  0D40               	mullw	64
  4139  000524  1EF3               	comf	prodl,f,c
  4140  000526  1EF4               	comf	prodh,f,c
  4141  000528  4AF3               	infsnz	prodl,f,c
  4142  00052A  2AF4               	incf	prodh,f,c
  4143  00052C  50F3               	movf	prodl,w,c
  4144  00052E  0100               	movlb	0	; () banked
  4145  000530  276F               	addwf	??_PutcUART& (0+255),f,b
  4146  000532  50F4               	movf	prodh,w,c
  4147  000534  0100               	movlb	0	; () banked
  4148  000536  2370               	addwfc	(??_PutcUART+1)& (0+255),f,b
  4149  000538  503F               	movf	_uart_logiciel+6,w,c
  4150  00053A  0D20               	mullw	32
  4151  00053C  1EF3               	comf	prodl,f,c
  4152  00053E  1EF4               	comf	prodh,f,c
  4153  000540  4AF3               	infsnz	prodl,f,c
  4154  000542  2AF4               	incf	prodh,f,c
  4155  000544  50F3               	movf	prodl,w,c
  4156  000546  0100               	movlb	0	; () banked
  4157  000548  276F               	addwf	??_PutcUART& (0+255),f,b
  4158  00054A  50F4               	movf	prodh,w,c
  4159  00054C  0100               	movlb	0	; () banked
  4160  00054E  2370               	addwfc	(??_PutcUART+1)& (0+255),f,b
  4161  000550  503E               	movf	_uart_logiciel+5,w,c
  4162  000552  0D10               	mullw	16
  4163  000554  1EF3               	comf	prodl,f,c
  4164  000556  1EF4               	comf	prodh,f,c
  4165  000558  4AF3               	infsnz	prodl,f,c
  4166  00055A  2AF4               	incf	prodh,f,c
  4167  00055C  50F3               	movf	prodl,w,c
  4168  00055E  0100               	movlb	0	; () banked
  4169  000560  276F               	addwf	??_PutcUART& (0+255),f,b
  4170  000562  50F4               	movf	prodh,w,c
  4171  000564  0100               	movlb	0	; () banked
  4172  000566  2370               	addwfc	(??_PutcUART+1)& (0+255),f,b
  4173  000568  503D               	movf	_uart_logiciel+4,w,c
  4174  00056A  0D08               	mullw	8
  4175  00056C  1EF3               	comf	prodl,f,c
  4176  00056E  1EF4               	comf	prodh,f,c
  4177  000570  4AF3               	infsnz	prodl,f,c
  4178  000572  2AF4               	incf	prodh,f,c
  4179  000574  50F3               	movf	prodl,w,c
  4180  000576  0100               	movlb	0	; () banked
  4181  000578  256F               	addwf	??_PutcUART& (0+255),w,b
  4182  00057A  0100               	movlb	0	; () banked
  4183  00057C  6F66               	movwf	___awdiv@dividend& (0+255),b
  4184  00057E  50F4               	movf	prodh,w,c
  4185  000580  0100               	movlb	0	; () banked
  4186  000582  2170               	addwfc	(??_PutcUART+1)& (0+255),w,b
  4187  000584  0100               	movlb	0	; () banked
  4188  000586  6F67               	movwf	(___awdiv@dividend+1)& (0+255),b
  4189  000588  0E00               	movlw	0
  4190  00058A  0100               	movlb	0	; () banked
  4191  00058C  6F69               	movwf	(___awdiv@divisor+1)& (0+255),b
  4192  00058E  0E04               	movlw	4
  4193  000590  6F68               	movwf	___awdiv@divisor& (0+255),b
  4194  000592  ECE7  F007         	call	___awdiv	;wreg free
  4195  000596  0100               	movlb	0	; () banked
  4196  000598  5166               	movf	?___awdiv& (0+255),w,b
  4197  00059A  6E3C               	movwf	_uart_logiciel+3,c
  4198                           
  4199                           ; BSR set to: 0
  4200                           ;uart.c: 141: uart_logiciel.buffer_uart[2] = (octet - uart_logiciel.buffer_uart[8] * 128
      +                           - uart_logiciel.buffer_uart[7] * 64 - uart_logiciel.buffer_uart[6] * 32 - uart_logiciel
      +                          .buffer_uart[5] * 16 - uart_logiciel.buffer_uart[4] * 8 - uart_logiciel.buffer_uart[3] *
  4201  00059C  5041               	movf	_uart_logiciel+8,w,c
  4202  00059E  0D80               	mullw	128
  4203  0005A0  1EF3               	comf	prodl,f,c
  4204  0005A2  1EF4               	comf	prodh,f,c
  4205  0005A4  4AF3               	infsnz	prodl,f,c
  4206  0005A6  2AF4               	incf	prodh,f,c
  4207  0005A8  0100               	movlb	0	; () banked
  4208  0005AA  516E               	movf	PutcUART@octet& (0+255),w,b
  4209  0005AC  0100               	movlb	0	; () banked
  4210  0005AE  6F6F               	movwf	??_PutcUART& (0+255),b
  4211  0005B0  6B70               	clrf	(??_PutcUART+1)& (0+255),b
  4212  0005B2  50F3               	movf	prodl,w,c
  4213  0005B4  0100               	movlb	0	; () banked
  4214  0005B6  276F               	addwf	??_PutcUART& (0+255),f,b
  4215  0005B8  50F4               	movf	prodh,w,c
  4216  0005BA  0100               	movlb	0	; () banked
  4217  0005BC  2370               	addwfc	(??_PutcUART+1)& (0+255),f,b
  4218  0005BE  5040               	movf	_uart_logiciel+7,w,c
  4219  0005C0  0D40               	mullw	64
  4220  0005C2  1EF3               	comf	prodl,f,c
  4221  0005C4  1EF4               	comf	prodh,f,c
  4222  0005C6  4AF3               	infsnz	prodl,f,c
  4223  0005C8  2AF4               	incf	prodh,f,c
  4224  0005CA  50F3               	movf	prodl,w,c
  4225  0005CC  0100               	movlb	0	; () banked
  4226  0005CE  276F               	addwf	??_PutcUART& (0+255),f,b
  4227  0005D0  50F4               	movf	prodh,w,c
  4228  0005D2  0100               	movlb	0	; () banked
  4229  0005D4  2370               	addwfc	(??_PutcUART+1)& (0+255),f,b
  4230  0005D6  503F               	movf	_uart_logiciel+6,w,c
  4231  0005D8  0D20               	mullw	32
  4232  0005DA  1EF3               	comf	prodl,f,c
  4233  0005DC  1EF4               	comf	prodh,f,c
  4234  0005DE  4AF3               	infsnz	prodl,f,c
  4235  0005E0  2AF4               	incf	prodh,f,c
  4236  0005E2  50F3               	movf	prodl,w,c
  4237  0005E4  0100               	movlb	0	; () banked
  4238  0005E6  276F               	addwf	??_PutcUART& (0+255),f,b
  4239  0005E8  50F4               	movf	prodh,w,c
  4240  0005EA  0100               	movlb	0	; () banked
  4241  0005EC  2370               	addwfc	(??_PutcUART+1)& (0+255),f,b
  4242  0005EE  503E               	movf	_uart_logiciel+5,w,c
  4243  0005F0  0D10               	mullw	16
  4244  0005F2  1EF3               	comf	prodl,f,c
  4245  0005F4  1EF4               	comf	prodh,f,c
  4246  0005F6  4AF3               	infsnz	prodl,f,c
  4247  0005F8  2AF4               	incf	prodh,f,c
  4248  0005FA  50F3               	movf	prodl,w,c
  4249  0005FC  0100               	movlb	0	; () banked
  4250  0005FE  276F               	addwf	??_PutcUART& (0+255),f,b
  4251  000600  50F4               	movf	prodh,w,c
  4252  000602  0100               	movlb	0	; () banked
  4253  000604  2370               	addwfc	(??_PutcUART+1)& (0+255),f,b
  4254  000606  503D               	movf	_uart_logiciel+4,w,c
  4255  000608  0D08               	mullw	8
  4256  00060A  1EF3               	comf	prodl,f,c
  4257  00060C  1EF4               	comf	prodh,f,c
  4258  00060E  4AF3               	infsnz	prodl,f,c
  4259  000610  2AF4               	incf	prodh,f,c
  4260  000612  50F3               	movf	prodl,w,c
  4261  000614  0100               	movlb	0	; () banked
  4262  000616  276F               	addwf	??_PutcUART& (0+255),f,b
  4263  000618  50F4               	movf	prodh,w,c
  4264  00061A  0100               	movlb	0	; () banked
  4265  00061C  2370               	addwfc	(??_PutcUART+1)& (0+255),f,b
  4266  00061E  503C               	movf	_uart_logiciel+3,w,c
  4267  000620  0D04               	mullw	4
  4268  000622  1EF3               	comf	prodl,f,c
  4269  000624  1EF4               	comf	prodh,f,c
  4270  000626  4AF3               	infsnz	prodl,f,c
  4271  000628  2AF4               	incf	prodh,f,c
  4272  00062A  50F3               	movf	prodl,w,c
  4273  00062C  0100               	movlb	0	; () banked
  4274  00062E  256F               	addwf	??_PutcUART& (0+255),w,b
  4275  000630  0100               	movlb	0	; () banked
  4276  000632  6F66               	movwf	___awdiv@dividend& (0+255),b
  4277  000634  50F4               	movf	prodh,w,c
  4278  000636  0100               	movlb	0	; () banked
  4279  000638  2170               	addwfc	(??_PutcUART+1)& (0+255),w,b
  4280  00063A  0100               	movlb	0	; () banked
  4281  00063C  6F67               	movwf	(___awdiv@dividend+1)& (0+255),b
  4282  00063E  0E00               	movlw	0
  4283  000640  0100               	movlb	0	; () banked
  4284  000642  6F69               	movwf	(___awdiv@divisor+1)& (0+255),b
  4285  000644  0E02               	movlw	2
  4286  000646  6F68               	movwf	___awdiv@divisor& (0+255),b
  4287  000648  ECE7  F007         	call	___awdiv	;wreg free
  4288  00064C  0100               	movlb	0	; () banked
  4289  00064E  5166               	movf	?___awdiv& (0+255),w,b
  4290  000650  6E3B               	movwf	_uart_logiciel+2,c
  4291                           
  4292                           ; BSR set to: 0
  4293                           ;uart.c: 142: uart_logiciel.buffer_uart[1] = (octet - uart_logiciel.buffer_uart[8] * 128
      +                           - uart_logiciel.buffer_uart[7] * 64 - uart_logiciel.buffer_uart[6] * 32 - uart_logiciel
      +                          .buffer_uart[5] * 16 - uart_logiciel.buffer_uart[4] * 8 - uart_logiciel.buffer_uart[3] *
  4294  000652  503B               	movf	_uart_logiciel+2,w,c
  4295  000654  0D02               	mullw	2
  4296  000656  CFF3 F06F          	movff	prodl,??_PutcUART
  4297  00065A  503C               	movf	_uart_logiciel+3,w,c
  4298  00065C  0D04               	mullw	4
  4299  00065E  CFF3 F070          	movff	prodl,??_PutcUART+1
  4300  000662  503D               	movf	_uart_logiciel+4,w,c
  4301  000664  0D08               	mullw	8
  4302  000666  CFF3 F071          	movff	prodl,??_PutcUART+2
  4303  00066A  503E               	movf	_uart_logiciel+5,w,c
  4304  00066C  0D10               	mullw	16
  4305  00066E  CFF3 F072          	movff	prodl,??_PutcUART+3
  4306  000672  503F               	movf	_uart_logiciel+6,w,c
  4307  000674  0D20               	mullw	32
  4308  000676  CFF3 F073          	movff	prodl,??_PutcUART+4
  4309  00067A  5040               	movf	_uart_logiciel+7,w,c
  4310  00067C  0D40               	mullw	64
  4311  00067E  CFF3 F074          	movff	prodl,??_PutcUART+5
  4312  000682  5041               	movf	_uart_logiciel+8,w,c
  4313  000684  0D80               	mullw	128
  4314  000686  50F3               	movf	prodl,w,c
  4315  000688  0100               	movlb	0	; () banked
  4316  00068A  2574               	addwf	(??_PutcUART+5)& (0+255),w,b
  4317  00068C  0100               	movlb	0	; () banked
  4318  00068E  2573               	addwf	(??_PutcUART+4)& (0+255),w,b
  4319  000690  0100               	movlb	0	; () banked
  4320  000692  2572               	addwf	(??_PutcUART+3)& (0+255),w,b
  4321  000694  0100               	movlb	0	; () banked
  4322  000696  2571               	addwf	(??_PutcUART+2)& (0+255),w,b
  4323  000698  0100               	movlb	0	; () banked
  4324  00069A  2570               	addwf	(??_PutcUART+1)& (0+255),w,b
  4325  00069C  0100               	movlb	0	; () banked
  4326  00069E  256F               	addwf	??_PutcUART& (0+255),w,b
  4327  0006A0  0800               	sublw	0
  4328  0006A2  0100               	movlb	0	; () banked
  4329  0006A4  256E               	addwf	PutcUART@octet& (0+255),w,b
  4330  0006A6  6E3A               	movwf	_uart_logiciel+1,c
  4331                           
  4332                           ; BSR set to: 0
  4333                           ;uart.c: 143: uart_logiciel.buffer_uart[0] = 0;
  4334  0006A8  0E00               	movlw	0
  4335  0006AA  6E39               	movwf	_uart_logiciel,c
  4336                           
  4337                           ; BSR set to: 0
  4338                           ;uart.c: 144: uart_logiciel.transmission_en_cours = 1;
  4339  0006AC  0E01               	movlw	1
  4340  0006AE  6E44               	movwf	_uart_logiciel+11,c
  4341  0006B0  D000               	goto	l246
  4342  0006B2                     l246:
  4343                           
  4344                           ; BSR set to: 0
  4345  0006B2  0012               	return		;funcret
  4346  0006B4                     __end_of_PutcUART:
  4347                           	opt stack 0
  4348                           tblptru	equ	0xFF8
  4349                           tblptrh	equ	0xFF7
  4350                           tblptrl	equ	0xFF6
  4351                           tablat	equ	0xFF5
  4352                           prodh	equ	0xFF4
  4353                           prodl	equ	0xFF3
  4354                           intcon	equ	0xFF2
  4355                           intcon2	equ	0xFF1
  4356                           intcon3	equ	0xFF0
  4357                           indf0	equ	0xFEF
  4358                           postinc0	equ	0xFEE
  4359                           fsr0h	equ	0xFEA
  4360                           fsr0l	equ	0xFE9
  4361                           wreg	equ	0xFE8
  4362                           status	equ	0xFD8
  4363                           
  4364 ;; *************** function _IntToC *****************
  4365 ;; Defined at:
  4366 ;;		line 167 in file "uart.c"
  4367 ;; Parameters:    Size  Location     Type
  4368 ;;  nb              2   14[BANK0 ] int 
  4369 ;; Auto vars:     Size  Location     Type
  4370 ;;  i              10   18[BANK0 ] int [5]
  4371 ;;  j               2   28[BANK0 ] int 
  4372 ;; Return value:  Size  Location     Type
  4373 ;;                  2   14[BANK0 ] PTR unsigned char 
  4374 ;; Registers used:
  4375 ;;		wreg, fsr2l, fsr2h, status,2, status,0, prodl, prodh, cstack
  4376 ;; Tracked objects:
  4377 ;;		On entry : 0/0
  4378 ;;		On exit  : 0/0
  4379 ;;		Unchanged: 0/0
  4380 ;; Data sizes:     COMRAM   BANK0   BANK1   BANK2
  4381 ;;      Params:         0       2       0       0
  4382 ;;      Locals:         0      12       0       0
  4383 ;;      Temps:          0       2       0       0
  4384 ;;      Totals:         0      16       0       0
  4385 ;;Total ram usage:       16 bytes
  4386 ;; Hardware stack levels used:    1
  4387 ;; Hardware stack levels required when called:    7
  4388 ;; This function calls:
  4389 ;;		___awdiv
  4390 ;;		___wmul
  4391 ;; This function is called by:
  4392 ;;		_PutIntUART
  4393 ;; This function uses a non-reentrant model
  4394 ;;
  4395                           
  4396                           	psect	text24
  4397  0006B4                     __ptext24:
  4398                           	opt stack 0
  4399  0006B4                     _IntToC:
  4400                           	opt stack 22
  4401                           
  4402                           ;uart.c: 170: int16_t i[5];
  4403                           ;uart.c: 171: int j = 0;
  4404                           
  4405                           ; BSR set to: 0
  4406                           ;incstack = 0
  4407  0006B4  0E00               	movlw	0
  4408  0006B6  0100               	movlb	0	; () banked
  4409  0006B8  6F7D               	movwf	(IntToC@j+1)& (0+255),b
  4410  0006BA  0E00               	movlw	0
  4411  0006BC  6F7C               	movwf	IntToC@j& (0+255),b
  4412                           
  4413                           ; BSR set to: 0
  4414                           ;uart.c: 172: static char out[8];
  4415                           ;uart.c: 175: if (nb < 0)
  4416  0006BE  0100               	movlb	0	; () banked
  4417  0006C0  AF6F               	btfss	(IntToC@nb+1)& (0+255),7,b
  4418  0006C2  D01C               	goto	l2874
  4419                           
  4420                           ; BSR set to: 0
  4421                           ;uart.c: 176: {
  4422                           ;uart.c: 177: nb *= (-1);
  4423  0006C4  C06E  F060         	movff	IntToC@nb,___wmul@multiplier
  4424  0006C8  C06F  F061         	movff	IntToC@nb+1,___wmul@multiplier+1
  4425  0006CC  0EFF               	movlw	255
  4426  0006CE  0100               	movlb	0	; () banked
  4427  0006D0  6F63               	movwf	(___wmul@multiplicand+1)& (0+255),b
  4428  0006D2  6962               	setf	___wmul@multiplicand& (0+255),b
  4429  0006D4  ECB6  F00B         	call	___wmul	;wreg free
  4430  0006D8  C060  F06E         	movff	?___wmul,IntToC@nb
  4431  0006DC  C061  F06F         	movff	?___wmul+1,IntToC@nb+1
  4432                           
  4433                           ;uart.c: 178: out[j++] = '-';
  4434  0006E0  0EA8               	movlw	low IntToC@out
  4435  0006E2  0100               	movlb	0	; () banked
  4436  0006E4  257C               	addwf	IntToC@j& (0+255),w,b
  4437  0006E6  6ED9               	movwf	fsr2l,c
  4438  0006E8  0E00               	movlw	high IntToC@out
  4439  0006EA  0100               	movlb	0	; () banked
  4440  0006EC  217D               	addwfc	(IntToC@j+1)& (0+255),w,b
  4441  0006EE  6EDA               	movwf	fsr2h,c
  4442  0006F0  0E2D               	movlw	45
  4443  0006F2  6EDF               	movwf	indf2,c
  4444                           
  4445                           ; BSR set to: 0
  4446  0006F4  0100               	movlb	0	; () banked
  4447  0006F6  4B7C               	infsnz	IntToC@j& (0+255),f,b
  4448  0006F8  2B7D               	incf	(IntToC@j+1)& (0+255),f,b
  4449  0006FA  D000               	goto	l2874
  4450  0006FC                     l2874:
  4451                           
  4452                           ; BSR set to: 0
  4453                           ;uart.c: 179: }
  4454                           ;uart.c: 183: i[0] = (nb / 10000);
  4455  0006FC  C06E  F066         	movff	IntToC@nb,___awdiv@dividend
  4456  000700  C06F  F067         	movff	IntToC@nb+1,___awdiv@dividend+1
  4457  000704  0E27               	movlw	39
  4458  000706  0100               	movlb	0	; () banked
  4459  000708  6F69               	movwf	(___awdiv@divisor+1)& (0+255),b
  4460  00070A  0E10               	movlw	16
  4461  00070C  6F68               	movwf	___awdiv@divisor& (0+255),b
  4462  00070E  ECE7  F007         	call	___awdiv	;wreg free
  4463  000712  C066  F072         	movff	?___awdiv,IntToC@i
  4464  000716  C067  F073         	movff	?___awdiv+1,IntToC@i+1
  4465                           
  4466                           ;uart.c: 184: i[1] = (nb - i[0] * 10000) / 1000;
  4467  00071A  C072  F060         	movff	IntToC@i,___wmul@multiplier
  4468  00071E  C073  F061         	movff	IntToC@i+1,___wmul@multiplier+1
  4469  000722  0E27               	movlw	39
  4470  000724  0100               	movlb	0	; () banked
  4471  000726  6F63               	movwf	(___wmul@multiplicand+1)& (0+255),b
  4472  000728  0E10               	movlw	16
  4473  00072A  6F62               	movwf	___wmul@multiplicand& (0+255),b
  4474  00072C  ECB6  F00B         	call	___wmul	;wreg free
  4475  000730  0100               	movlb	0	; () banked
  4476  000732  1F60               	comf	?___wmul& (0+255),f,b
  4477  000734  0100               	movlb	0	; () banked
  4478  000736  1F61               	comf	(?___wmul+1)& (0+255),f,b
  4479  000738  0100               	movlb	0	; () banked
  4480  00073A  4B60               	infsnz	?___wmul& (0+255),f,b
  4481  00073C  2B61               	incf	(?___wmul+1)& (0+255),f,b
  4482  00073E  0100               	movlb	0	; () banked
  4483  000740  516E               	movf	IntToC@nb& (0+255),w,b
  4484  000742  0100               	movlb	0	; () banked
  4485  000744  2560               	addwf	?___wmul& (0+255),w,b
  4486  000746  0100               	movlb	0	; () banked
  4487  000748  6F66               	movwf	___awdiv@dividend& (0+255),b
  4488  00074A  0100               	movlb	0	; () banked
  4489  00074C  516F               	movf	(IntToC@nb+1)& (0+255),w,b
  4490  00074E  0100               	movlb	0	; () banked
  4491  000750  2161               	addwfc	(?___wmul+1)& (0+255),w,b
  4492  000752  0100               	movlb	0	; () banked
  4493  000754  6F67               	movwf	(___awdiv@dividend+1)& (0+255),b
  4494  000756  0E03               	movlw	3
  4495  000758  0100               	movlb	0	; () banked
  4496  00075A  6F69               	movwf	(___awdiv@divisor+1)& (0+255),b
  4497  00075C  0EE8               	movlw	232
  4498  00075E  6F68               	movwf	___awdiv@divisor& (0+255),b
  4499  000760  ECE7  F007         	call	___awdiv	;wreg free
  4500  000764  C066  F074         	movff	?___awdiv,IntToC@i+2
  4501  000768  C067  F075         	movff	?___awdiv+1,IntToC@i+3
  4502                           
  4503                           ;uart.c: 185: i[2] = (nb - i[0] * 10000 - i[1] * 1000) / 100;
  4504  00076C  C072  F060         	movff	IntToC@i,___wmul@multiplier
  4505  000770  C073  F061         	movff	IntToC@i+1,___wmul@multiplier+1
  4506  000774  0E27               	movlw	39
  4507  000776  0100               	movlb	0	; () banked
  4508  000778  6F63               	movwf	(___wmul@multiplicand+1)& (0+255),b
  4509  00077A  0E10               	movlw	16
  4510  00077C  6F62               	movwf	___wmul@multiplicand& (0+255),b
  4511  00077E  ECB6  F00B         	call	___wmul	;wreg free
  4512  000782  C060  F070         	movff	?___wmul,??_IntToC
  4513  000786  C061  F071         	movff	?___wmul+1,??_IntToC+1
  4514  00078A  C074  F060         	movff	IntToC@i+2,___wmul@multiplier
  4515  00078E  C075  F061         	movff	IntToC@i+3,___wmul@multiplier+1
  4516  000792  0E03               	movlw	3
  4517  000794  0100               	movlb	0	; () banked
  4518  000796  6F63               	movwf	(___wmul@multiplicand+1)& (0+255),b
  4519  000798  0EE8               	movlw	232
  4520  00079A  6F62               	movwf	___wmul@multiplicand& (0+255),b
  4521  00079C  ECB6  F00B         	call	___wmul	;wreg free
  4522  0007A0  0100               	movlb	0	; () banked
  4523  0007A2  5160               	movf	?___wmul& (0+255),w,b
  4524  0007A4  0100               	movlb	0	; () banked
  4525  0007A6  2770               	addwf	??_IntToC& (0+255),f,b
  4526  0007A8  0100               	movlb	0	; () banked
  4527  0007AA  5161               	movf	(?___wmul+1)& (0+255),w,b
  4528  0007AC  0100               	movlb	0	; () banked
  4529  0007AE  2371               	addwfc	(??_IntToC+1)& (0+255),f,b
  4530  0007B0  0100               	movlb	0	; () banked
  4531  0007B2  1F70               	comf	??_IntToC& (0+255),f,b
  4532  0007B4  1F71               	comf	(??_IntToC+1)& (0+255),f,b
  4533  0007B6  4B70               	infsnz	??_IntToC& (0+255),f,b
  4534  0007B8  2B71               	incf	(??_IntToC+1)& (0+255),f,b
  4535  0007BA  0100               	movlb	0	; () banked
  4536  0007BC  516E               	movf	IntToC@nb& (0+255),w,b
  4537  0007BE  0100               	movlb	0	; () banked
  4538  0007C0  2570               	addwf	??_IntToC& (0+255),w,b
  4539  0007C2  0100               	movlb	0	; () banked
  4540  0007C4  6F66               	movwf	___awdiv@dividend& (0+255),b
  4541  0007C6  0100               	movlb	0	; () banked
  4542  0007C8  516F               	movf	(IntToC@nb+1)& (0+255),w,b
  4543  0007CA  0100               	movlb	0	; () banked
  4544  0007CC  2171               	addwfc	(??_IntToC+1)& (0+255),w,b
  4545  0007CE  0100               	movlb	0	; () banked
  4546  0007D0  6F67               	movwf	(___awdiv@dividend+1)& (0+255),b
  4547  0007D2  0E00               	movlw	0
  4548  0007D4  0100               	movlb	0	; () banked
  4549  0007D6  6F69               	movwf	(___awdiv@divisor+1)& (0+255),b
  4550  0007D8  0E64               	movlw	100
  4551  0007DA  6F68               	movwf	___awdiv@divisor& (0+255),b
  4552  0007DC  ECE7  F007         	call	___awdiv	;wreg free
  4553  0007E0  C066  F076         	movff	?___awdiv,IntToC@i+4
  4554  0007E4  C067  F077         	movff	?___awdiv+1,IntToC@i+5
  4555                           
  4556                           ;uart.c: 186: i[3] = (nb - i[0] * 10000 - i[1] * 1000 - i[2] * 100) / 10;
  4557  0007E8  C072  F060         	movff	IntToC@i,___wmul@multiplier
  4558  0007EC  C073  F061         	movff	IntToC@i+1,___wmul@multiplier+1
  4559  0007F0  0E27               	movlw	39
  4560  0007F2  0100               	movlb	0	; () banked
  4561  0007F4  6F63               	movwf	(___wmul@multiplicand+1)& (0+255),b
  4562  0007F6  0E10               	movlw	16
  4563  0007F8  6F62               	movwf	___wmul@multiplicand& (0+255),b
  4564  0007FA  ECB6  F00B         	call	___wmul	;wreg free
  4565  0007FE  C060  F070         	movff	?___wmul,??_IntToC
  4566  000802  C061  F071         	movff	?___wmul+1,??_IntToC+1
  4567  000806  C074  F060         	movff	IntToC@i+2,___wmul@multiplier
  4568  00080A  C075  F061         	movff	IntToC@i+3,___wmul@multiplier+1
  4569  00080E  0E03               	movlw	3
  4570  000810  0100               	movlb	0	; () banked
  4571  000812  6F63               	movwf	(___wmul@multiplicand+1)& (0+255),b
  4572  000814  0EE8               	movlw	232
  4573  000816  6F62               	movwf	___wmul@multiplicand& (0+255),b
  4574  000818  ECB6  F00B         	call	___wmul	;wreg free
  4575  00081C  0100               	movlb	0	; () banked
  4576  00081E  5160               	movf	?___wmul& (0+255),w,b
  4577  000820  0100               	movlb	0	; () banked
  4578  000822  2770               	addwf	??_IntToC& (0+255),f,b
  4579  000824  0100               	movlb	0	; () banked
  4580  000826  5161               	movf	(?___wmul+1)& (0+255),w,b
  4581  000828  0100               	movlb	0	; () banked
  4582  00082A  2371               	addwfc	(??_IntToC+1)& (0+255),f,b
  4583  00082C  C076  F060         	movff	IntToC@i+4,___wmul@multiplier
  4584  000830  C077  F061         	movff	IntToC@i+5,___wmul@multiplier+1
  4585  000834  0E00               	movlw	0
  4586  000836  0100               	movlb	0	; () banked
  4587  000838  6F63               	movwf	(___wmul@multiplicand+1)& (0+255),b
  4588  00083A  0E64               	movlw	100
  4589  00083C  6F62               	movwf	___wmul@multiplicand& (0+255),b
  4590  00083E  ECB6  F00B         	call	___wmul	;wreg free
  4591  000842  0100               	movlb	0	; () banked
  4592  000844  5160               	movf	?___wmul& (0+255),w,b
  4593  000846  0100               	movlb	0	; () banked
  4594  000848  2770               	addwf	??_IntToC& (0+255),f,b
  4595  00084A  0100               	movlb	0	; () banked
  4596  00084C  5161               	movf	(?___wmul+1)& (0+255),w,b
  4597  00084E  0100               	movlb	0	; () banked
  4598  000850  2371               	addwfc	(??_IntToC+1)& (0+255),f,b
  4599  000852  0100               	movlb	0	; () banked
  4600  000854  1F70               	comf	??_IntToC& (0+255),f,b
  4601  000856  1F71               	comf	(??_IntToC+1)& (0+255),f,b
  4602  000858  4B70               	infsnz	??_IntToC& (0+255),f,b
  4603  00085A  2B71               	incf	(??_IntToC+1)& (0+255),f,b
  4604  00085C  0100               	movlb	0	; () banked
  4605  00085E  516E               	movf	IntToC@nb& (0+255),w,b
  4606  000860  0100               	movlb	0	; () banked
  4607  000862  2570               	addwf	??_IntToC& (0+255),w,b
  4608  000864  0100               	movlb	0	; () banked
  4609  000866  6F66               	movwf	___awdiv@dividend& (0+255),b
  4610  000868  0100               	movlb	0	; () banked
  4611  00086A  516F               	movf	(IntToC@nb+1)& (0+255),w,b
  4612  00086C  0100               	movlb	0	; () banked
  4613  00086E  2171               	addwfc	(??_IntToC+1)& (0+255),w,b
  4614  000870  0100               	movlb	0	; () banked
  4615  000872  6F67               	movwf	(___awdiv@dividend+1)& (0+255),b
  4616  000874  0E00               	movlw	0
  4617  000876  0100               	movlb	0	; () banked
  4618  000878  6F69               	movwf	(___awdiv@divisor+1)& (0+255),b
  4619  00087A  0E0A               	movlw	10
  4620  00087C  6F68               	movwf	___awdiv@divisor& (0+255),b
  4621  00087E  ECE7  F007         	call	___awdiv	;wreg free
  4622  000882  C066  F078         	movff	?___awdiv,IntToC@i+6
  4623  000886  C067  F079         	movff	?___awdiv+1,IntToC@i+7
  4624                           
  4625                           ;uart.c: 187: i[4] = (nb - i[0] * 10000 - i[1] * 1000 - i[2] * 100 - i[3] * 10);
  4626  00088A  C072  F060         	movff	IntToC@i,___wmul@multiplier
  4627  00088E  C073  F061         	movff	IntToC@i+1,___wmul@multiplier+1
  4628  000892  0E27               	movlw	39
  4629  000894  0100               	movlb	0	; () banked
  4630  000896  6F63               	movwf	(___wmul@multiplicand+1)& (0+255),b
  4631  000898  0E10               	movlw	16
  4632  00089A  6F62               	movwf	___wmul@multiplicand& (0+255),b
  4633  00089C  ECB6  F00B         	call	___wmul	;wreg free
  4634  0008A0  C060  F070         	movff	?___wmul,??_IntToC
  4635  0008A4  C061  F071         	movff	?___wmul+1,??_IntToC+1
  4636  0008A8  C074  F060         	movff	IntToC@i+2,___wmul@multiplier
  4637  0008AC  C075  F061         	movff	IntToC@i+3,___wmul@multiplier+1
  4638  0008B0  0E03               	movlw	3
  4639  0008B2  0100               	movlb	0	; () banked
  4640  0008B4  6F63               	movwf	(___wmul@multiplicand+1)& (0+255),b
  4641  0008B6  0EE8               	movlw	232
  4642  0008B8  6F62               	movwf	___wmul@multiplicand& (0+255),b
  4643  0008BA  ECB6  F00B         	call	___wmul	;wreg free
  4644  0008BE  0100               	movlb	0	; () banked
  4645  0008C0  5160               	movf	?___wmul& (0+255),w,b
  4646  0008C2  0100               	movlb	0	; () banked
  4647  0008C4  2770               	addwf	??_IntToC& (0+255),f,b
  4648  0008C6  0100               	movlb	0	; () banked
  4649  0008C8  5161               	movf	(?___wmul+1)& (0+255),w,b
  4650  0008CA  0100               	movlb	0	; () banked
  4651  0008CC  2371               	addwfc	(??_IntToC+1)& (0+255),f,b
  4652  0008CE  C076  F060         	movff	IntToC@i+4,___wmul@multiplier
  4653  0008D2  C077  F061         	movff	IntToC@i+5,___wmul@multiplier+1
  4654  0008D6  0E00               	movlw	0
  4655  0008D8  0100               	movlb	0	; () banked
  4656  0008DA  6F63               	movwf	(___wmul@multiplicand+1)& (0+255),b
  4657  0008DC  0E64               	movlw	100
  4658  0008DE  6F62               	movwf	___wmul@multiplicand& (0+255),b
  4659  0008E0  ECB6  F00B         	call	___wmul	;wreg free
  4660  0008E4  0100               	movlb	0	; () banked
  4661  0008E6  5160               	movf	?___wmul& (0+255),w,b
  4662  0008E8  0100               	movlb	0	; () banked
  4663  0008EA  2770               	addwf	??_IntToC& (0+255),f,b
  4664  0008EC  0100               	movlb	0	; () banked
  4665  0008EE  5161               	movf	(?___wmul+1)& (0+255),w,b
  4666  0008F0  0100               	movlb	0	; () banked
  4667  0008F2  2371               	addwfc	(??_IntToC+1)& (0+255),f,b
  4668  0008F4  C078  F060         	movff	IntToC@i+6,___wmul@multiplier
  4669  0008F8  C079  F061         	movff	IntToC@i+7,___wmul@multiplier+1
  4670  0008FC  0E00               	movlw	0
  4671  0008FE  0100               	movlb	0	; () banked
  4672  000900  6F63               	movwf	(___wmul@multiplicand+1)& (0+255),b
  4673  000902  0E0A               	movlw	10
  4674  000904  6F62               	movwf	___wmul@multiplicand& (0+255),b
  4675  000906  ECB6  F00B         	call	___wmul	;wreg free
  4676  00090A  0100               	movlb	0	; () banked
  4677  00090C  5160               	movf	?___wmul& (0+255),w,b
  4678  00090E  0100               	movlb	0	; () banked
  4679  000910  2770               	addwf	??_IntToC& (0+255),f,b
  4680  000912  0100               	movlb	0	; () banked
  4681  000914  5161               	movf	(?___wmul+1)& (0+255),w,b
  4682  000916  0100               	movlb	0	; () banked
  4683  000918  2371               	addwfc	(??_IntToC+1)& (0+255),f,b
  4684  00091A  0100               	movlb	0	; () banked
  4685  00091C  1F70               	comf	??_IntToC& (0+255),f,b
  4686  00091E  1F71               	comf	(??_IntToC+1)& (0+255),f,b
  4687  000920  4B70               	infsnz	??_IntToC& (0+255),f,b
  4688  000922  2B71               	incf	(??_IntToC+1)& (0+255),f,b
  4689  000924  0100               	movlb	0	; () banked
  4690  000926  516E               	movf	IntToC@nb& (0+255),w,b
  4691  000928  0100               	movlb	0	; () banked
  4692  00092A  2570               	addwf	??_IntToC& (0+255),w,b
  4693  00092C  0100               	movlb	0	; () banked
  4694  00092E  6F7A               	movwf	(IntToC@i+8)& (0+255),b
  4695  000930  0100               	movlb	0	; () banked
  4696  000932  516F               	movf	(IntToC@nb+1)& (0+255),w,b
  4697  000934  0100               	movlb	0	; () banked
  4698  000936  2171               	addwfc	(??_IntToC+1)& (0+255),w,b
  4699  000938  0100               	movlb	0	; () banked
  4700  00093A  6F7B               	movwf	(IntToC@i+9)& (0+255),b
  4701                           
  4702                           ; BSR set to: 0
  4703                           ;uart.c: 189: out[j++] = (unsigned char)(i[0] + 48);
  4704  00093C  0EA8               	movlw	low IntToC@out
  4705  00093E  0100               	movlb	0	; () banked
  4706  000940  257C               	addwf	IntToC@j& (0+255),w,b
  4707  000942  6ED9               	movwf	fsr2l,c
  4708  000944  0E00               	movlw	high IntToC@out
  4709  000946  0100               	movlb	0	; () banked
  4710  000948  217D               	addwfc	(IntToC@j+1)& (0+255),w,b
  4711  00094A  6EDA               	movwf	fsr2h,c
  4712  00094C  0100               	movlb	0	; () banked
  4713  00094E  5172               	movf	IntToC@i& (0+255),w,b
  4714  000950  0F30               	addlw	48
  4715  000952  6EDF               	movwf	indf2,c
  4716                           
  4717                           ; BSR set to: 0
  4718  000954  0100               	movlb	0	; () banked
  4719  000956  4B7C               	infsnz	IntToC@j& (0+255),f,b
  4720  000958  2B7D               	incf	(IntToC@j+1)& (0+255),f,b
  4721                           
  4722                           ; BSR set to: 0
  4723                           ;uart.c: 190: out[j++] = (unsigned char)(i[1] + 48);
  4724  00095A  0EA8               	movlw	low IntToC@out
  4725  00095C  0100               	movlb	0	; () banked
  4726  00095E  257C               	addwf	IntToC@j& (0+255),w,b
  4727  000960  6ED9               	movwf	fsr2l,c
  4728  000962  0E00               	movlw	high IntToC@out
  4729  000964  0100               	movlb	0	; () banked
  4730  000966  217D               	addwfc	(IntToC@j+1)& (0+255),w,b
  4731  000968  6EDA               	movwf	fsr2h,c
  4732  00096A  0100               	movlb	0	; () banked
  4733  00096C  5174               	movf	(IntToC@i+2)& (0+255),w,b
  4734  00096E  0F30               	addlw	48
  4735  000970  6EDF               	movwf	indf2,c
  4736                           
  4737                           ; BSR set to: 0
  4738  000972  0100               	movlb	0	; () banked
  4739  000974  4B7C               	infsnz	IntToC@j& (0+255),f,b
  4740  000976  2B7D               	incf	(IntToC@j+1)& (0+255),f,b
  4741                           
  4742                           ; BSR set to: 0
  4743                           ;uart.c: 191: out[j++] = (unsigned char)(i[2] + 48);
  4744  000978  0EA8               	movlw	low IntToC@out
  4745  00097A  0100               	movlb	0	; () banked
  4746  00097C  257C               	addwf	IntToC@j& (0+255),w,b
  4747  00097E  6ED9               	movwf	fsr2l,c
  4748  000980  0E00               	movlw	high IntToC@out
  4749  000982  0100               	movlb	0	; () banked
  4750  000984  217D               	addwfc	(IntToC@j+1)& (0+255),w,b
  4751  000986  6EDA               	movwf	fsr2h,c
  4752  000988  0100               	movlb	0	; () banked
  4753  00098A  5176               	movf	(IntToC@i+4)& (0+255),w,b
  4754  00098C  0F30               	addlw	48
  4755  00098E  6EDF               	movwf	indf2,c
  4756                           
  4757                           ; BSR set to: 0
  4758  000990  0100               	movlb	0	; () banked
  4759  000992  4B7C               	infsnz	IntToC@j& (0+255),f,b
  4760  000994  2B7D               	incf	(IntToC@j+1)& (0+255),f,b
  4761                           
  4762                           ; BSR set to: 0
  4763                           ;uart.c: 192: out[j++] = (unsigned char)(i[3] + 48);
  4764  000996  0EA8               	movlw	low IntToC@out
  4765  000998  0100               	movlb	0	; () banked
  4766  00099A  257C               	addwf	IntToC@j& (0+255),w,b
  4767  00099C  6ED9               	movwf	fsr2l,c
  4768  00099E  0E00               	movlw	high IntToC@out
  4769  0009A0  0100               	movlb	0	; () banked
  4770  0009A2  217D               	addwfc	(IntToC@j+1)& (0+255),w,b
  4771  0009A4  6EDA               	movwf	fsr2h,c
  4772  0009A6  0100               	movlb	0	; () banked
  4773  0009A8  5178               	movf	(IntToC@i+6)& (0+255),w,b
  4774  0009AA  0F30               	addlw	48
  4775  0009AC  6EDF               	movwf	indf2,c
  4776                           
  4777                           ; BSR set to: 0
  4778  0009AE  0100               	movlb	0	; () banked
  4779  0009B0  4B7C               	infsnz	IntToC@j& (0+255),f,b
  4780  0009B2  2B7D               	incf	(IntToC@j+1)& (0+255),f,b
  4781                           
  4782                           ; BSR set to: 0
  4783                           ;uart.c: 193: out[j++] = (unsigned char)(i[4] + 48);
  4784  0009B4  0EA8               	movlw	low IntToC@out
  4785  0009B6  0100               	movlb	0	; () banked
  4786  0009B8  257C               	addwf	IntToC@j& (0+255),w,b
  4787  0009BA  6ED9               	movwf	fsr2l,c
  4788  0009BC  0E00               	movlw	high IntToC@out
  4789  0009BE  0100               	movlb	0	; () banked
  4790  0009C0  217D               	addwfc	(IntToC@j+1)& (0+255),w,b
  4791  0009C2  6EDA               	movwf	fsr2h,c
  4792  0009C4  0100               	movlb	0	; () banked
  4793  0009C6  517A               	movf	(IntToC@i+8)& (0+255),w,b
  4794  0009C8  0F30               	addlw	48
  4795  0009CA  6EDF               	movwf	indf2,c
  4796                           
  4797                           ; BSR set to: 0
  4798  0009CC  0100               	movlb	0	; () banked
  4799  0009CE  4B7C               	infsnz	IntToC@j& (0+255),f,b
  4800  0009D0  2B7D               	incf	(IntToC@j+1)& (0+255),f,b
  4801                           
  4802                           ; BSR set to: 0
  4803                           ;uart.c: 194: out[j++] = '\0';
  4804  0009D2  0EA8               	movlw	low IntToC@out
  4805  0009D4  0100               	movlb	0	; () banked
  4806  0009D6  257C               	addwf	IntToC@j& (0+255),w,b
  4807  0009D8  6ED9               	movwf	fsr2l,c
  4808  0009DA  0E00               	movlw	high IntToC@out
  4809  0009DC  0100               	movlb	0	; () banked
  4810  0009DE  217D               	addwfc	(IntToC@j+1)& (0+255),w,b
  4811  0009E0  6EDA               	movwf	fsr2h,c
  4812  0009E2  0E00               	movlw	0
  4813  0009E4  6EDF               	movwf	indf2,c
  4814                           
  4815                           ; BSR set to: 0
  4816  0009E6  0100               	movlb	0	; () banked
  4817  0009E8  4B7C               	infsnz	IntToC@j& (0+255),f,b
  4818  0009EA  2B7D               	incf	(IntToC@j+1)& (0+255),f,b
  4819                           
  4820                           ; BSR set to: 0
  4821                           ;uart.c: 196: return out;
  4822  0009EC  0EA8               	movlw	low IntToC@out
  4823  0009EE  0100               	movlb	0	; () banked
  4824  0009F0  6F6E               	movwf	?_IntToC& (0+255),b
  4825  0009F2  0E00               	movlw	high IntToC@out
  4826  0009F4  0100               	movlb	0	; () banked
  4827  0009F6  6F6F               	movwf	(?_IntToC+1)& (0+255),b
  4828  0009F8  D000               	goto	l263
  4829  0009FA                     l263:
  4830                           
  4831                           ; BSR set to: 0
  4832  0009FA  0012               	return		;funcret
  4833  0009FC                     __end_of_IntToC:
  4834                           	opt stack 0
  4835                           tblptru	equ	0xFF8
  4836                           tblptrh	equ	0xFF7
  4837                           tblptrl	equ	0xFF6
  4838                           tablat	equ	0xFF5
  4839                           prodh	equ	0xFF4
  4840                           prodl	equ	0xFF3
  4841                           intcon	equ	0xFF2
  4842                           intcon2	equ	0xFF1
  4843                           intcon3	equ	0xFF0
  4844                           indf0	equ	0xFEF
  4845                           postinc0	equ	0xFEE
  4846                           fsr0h	equ	0xFEA
  4847                           fsr0l	equ	0xFE9
  4848                           wreg	equ	0xFE8
  4849                           indf2	equ	0xFDF
  4850                           fsr2h	equ	0xFDA
  4851                           fsr2l	equ	0xFD9
  4852                           status	equ	0xFD8
  4853                           
  4854 ;; *************** function ___wmul *****************
  4855 ;; Defined at:
  4856 ;;		line 15 in file "C:\Program Files (x86)\Microchip\xc8\v1.34\sources\common\Umul16.c"
  4857 ;; Parameters:    Size  Location     Type
  4858 ;;  multiplier      2    0[BANK0 ] unsigned int 
  4859 ;;  multiplicand    2    2[BANK0 ] unsigned int 
  4860 ;; Auto vars:     Size  Location     Type
  4861 ;;  product         2    4[BANK0 ] unsigned int 
  4862 ;; Return value:  Size  Location     Type
  4863 ;;                  2    0[BANK0 ] unsigned int 
  4864 ;; Registers used:
  4865 ;;		wreg, status,2, status,0, prodl, prodh
  4866 ;; Tracked objects:
  4867 ;;		On entry : 0/0
  4868 ;;		On exit  : 0/0
  4869 ;;		Unchanged: 0/0
  4870 ;; Data sizes:     COMRAM   BANK0   BANK1   BANK2
  4871 ;;      Params:         0       4       0       0
  4872 ;;      Locals:         0       2       0       0
  4873 ;;      Temps:          0       0       0       0
  4874 ;;      Totals:         0       6       0       0
  4875 ;;Total ram usage:        6 bytes
  4876 ;; Hardware stack levels used:    1
  4877 ;; Hardware stack levels required when called:    6
  4878 ;; This function calls:
  4879 ;;		Nothing
  4880 ;; This function is called by:
  4881 ;;		_IntToC
  4882 ;; This function uses a non-reentrant model
  4883 ;;
  4884                           
  4885                           	psect	text25
  4886  00176C                     __ptext25:
  4887                           	opt stack 0
  4888  00176C                     ___wmul:
  4889                           	opt stack 22
  4890                           
  4891                           ; BSR set to: 0
  4892                           ;incstack = 0
  4893  00176C  0100               	movlb	0	; () banked
  4894  00176E  5160               	movf	___wmul@multiplier& (0+255),w,b
  4895  001770  0100               	movlb	0	; () banked
  4896  001772  0362               	mulwf	___wmul@multiplicand& (0+255),b
  4897  001774  CFF3 F064          	movff	prodl,___wmul@product
  4898  001778  CFF4 F065          	movff	prodh,___wmul@product+1
  4899  00177C  0100               	movlb	0	; () banked
  4900  00177E  5160               	movf	___wmul@multiplier& (0+255),w,b
  4901  001780  0100               	movlb	0	; () banked
  4902  001782  0363               	mulwf	(___wmul@multiplicand+1)& (0+255),b
  4903  001784  50F3               	movf	prodl,w,c
  4904  001786  0100               	movlb	0	; () banked
  4905  001788  2765               	addwf	(___wmul@product+1)& (0+255),f,b
  4906  00178A  0100               	movlb	0	; () banked
  4907  00178C  5161               	movf	(___wmul@multiplier+1)& (0+255),w,b
  4908  00178E  0100               	movlb	0	; () banked
  4909  001790  0362               	mulwf	___wmul@multiplicand& (0+255),b
  4910  001792  50F3               	movf	prodl,w,c
  4911  001794  0100               	movlb	0	; () banked
  4912  001796  2765               	addwf	(___wmul@product+1)& (0+255),f,b
  4913                           
  4914                           ; BSR set to: 0
  4915  001798  C064  F060         	movff	___wmul@product,?___wmul
  4916  00179C  C065  F061         	movff	___wmul@product+1,?___wmul+1
  4917  0017A0  D000               	goto	l509
  4918  0017A2                     l509:
  4919                           
  4920                           ; BSR set to: 0
  4921  0017A2  0012               	return		;funcret
  4922  0017A4                     __end_of___wmul:
  4923                           	opt stack 0
  4924                           tblptru	equ	0xFF8
  4925                           tblptrh	equ	0xFF7
  4926                           tblptrl	equ	0xFF6
  4927                           tablat	equ	0xFF5
  4928                           prodh	equ	0xFF4
  4929                           prodl	equ	0xFF3
  4930                           intcon	equ	0xFF2
  4931                           intcon2	equ	0xFF1
  4932                           intcon3	equ	0xFF0
  4933                           indf0	equ	0xFEF
  4934                           postinc0	equ	0xFEE
  4935                           fsr0h	equ	0xFEA
  4936                           fsr0l	equ	0xFE9
  4937                           wreg	equ	0xFE8
  4938                           indf2	equ	0xFDF
  4939                           fsr2h	equ	0xFDA
  4940                           fsr2l	equ	0xFD9
  4941                           status	equ	0xFD8
  4942                           
  4943 ;; *************** function ___awdiv *****************
  4944 ;; Defined at:
  4945 ;;		line 8 in file "C:\Program Files (x86)\Microchip\xc8\v1.34\sources\common\awdiv.c"
  4946 ;; Parameters:    Size  Location     Type
  4947 ;;  dividend        2    6[BANK0 ] int 
  4948 ;;  divisor         2    8[BANK0 ] int 
  4949 ;; Auto vars:     Size  Location     Type
  4950 ;;  quotient        2   12[BANK0 ] int 
  4951 ;;  sign            1   11[BANK0 ] unsigned char 
  4952 ;;  counter         1   10[BANK0 ] unsigned char 
  4953 ;; Return value:  Size  Location     Type
  4954 ;;                  2    6[BANK0 ] int 
  4955 ;; Registers used:
  4956 ;;		wreg, status,2, status,0
  4957 ;; Tracked objects:
  4958 ;;		On entry : 0/0
  4959 ;;		On exit  : 0/0
  4960 ;;		Unchanged: 0/0
  4961 ;; Data sizes:     COMRAM   BANK0   BANK1   BANK2
  4962 ;;      Params:         0       4       0       0
  4963 ;;      Locals:         0       4       0       0
  4964 ;;      Temps:          0       0       0       0
  4965 ;;      Totals:         0       8       0       0
  4966 ;;Total ram usage:        8 bytes
  4967 ;; Hardware stack levels used:    1
  4968 ;; Hardware stack levels required when called:    6
  4969 ;; This function calls:
  4970 ;;		Nothing
  4971 ;; This function is called by:
  4972 ;;		_PutcUART
  4973 ;;		_IntToC
  4974 ;; This function uses a non-reentrant model
  4975 ;;
  4976                           
  4977                           	psect	text26
  4978  000FCE                     __ptext26:
  4979                           	opt stack 0
  4980  000FCE                     ___awdiv:
  4981                           	opt stack 22
  4982                           
  4983                           ; BSR set to: 0
  4984                           ;incstack = 0
  4985  000FCE  0E00               	movlw	0
  4986  000FD0  0100               	movlb	0	; () banked
  4987  000FD2  6F6B               	movwf	___awdiv@sign& (0+255),b
  4988                           
  4989                           ; BSR set to: 0
  4990  000FD4  0100               	movlb	0	; () banked
  4991  000FD6  AF69               	btfss	(___awdiv@divisor+1)& (0+255),7,b
  4992  000FD8  D009               	goto	l2694
  4993                           
  4994                           ; BSR set to: 0
  4995  000FDA  0100               	movlb	0	; () banked
  4996  000FDC  6D68               	negf	___awdiv@divisor& (0+255),b
  4997  000FDE  1F69               	comf	(___awdiv@divisor+1)& (0+255),f,b
  4998  000FE0  B0D8               	btfsc	status,0,c
  4999  000FE2  2B69               	incf	(___awdiv@divisor+1)& (0+255),f,b
  5000                           
  5001                           ; BSR set to: 0
  5002  000FE4  0E01               	movlw	1
  5003  000FE6  0100               	movlb	0	; () banked
  5004  000FE8  6F6B               	movwf	___awdiv@sign& (0+255),b
  5005  000FEA  D000               	goto	l2694
  5006  000FEC                     l2694:
  5007                           
  5008                           ; BSR set to: 0
  5009  000FEC  0100               	movlb	0	; () banked
  5010  000FEE  AF67               	btfss	(___awdiv@dividend+1)& (0+255),7,b
  5011  000FF0  D009               	goto	l2700
  5012                           
  5013                           ; BSR set to: 0
  5014  000FF2  0100               	movlb	0	; () banked
  5015  000FF4  6D66               	negf	___awdiv@dividend& (0+255),b
  5016  000FF6  1F67               	comf	(___awdiv@dividend+1)& (0+255),f,b
  5017  000FF8  B0D8               	btfsc	status,0,c
  5018  000FFA  2B67               	incf	(___awdiv@dividend+1)& (0+255),f,b
  5019                           
  5020                           ; BSR set to: 0
  5021  000FFC  0E01               	movlw	1
  5022  000FFE  0100               	movlb	0	; () banked
  5023  001000  1B6B               	xorwf	___awdiv@sign& (0+255),f,b
  5024  001002  D000               	goto	l2700
  5025  001004                     l2700:
  5026                           
  5027                           ; BSR set to: 0
  5028  001004  0E00               	movlw	0
  5029  001006  0100               	movlb	0	; () banked
  5030  001008  6F6D               	movwf	(___awdiv@quotient+1)& (0+255),b
  5031  00100A  0E00               	movlw	0
  5032  00100C  6F6C               	movwf	___awdiv@quotient& (0+255),b
  5033                           
  5034                           ; BSR set to: 0
  5035  00100E  0100               	movlb	0	; () banked
  5036  001010  5168               	movf	___awdiv@divisor& (0+255),w,b
  5037  001012  0100               	movlb	0	; () banked
  5038  001014  1169               	iorwf	(___awdiv@divisor+1)& (0+255),w,b
  5039  001016  B4D8               	btfsc	status,2,c
  5040  001018  D031               	goto	l2722
  5041                           
  5042                           ; BSR set to: 0
  5043  00101A  0E01               	movlw	1
  5044  00101C  0100               	movlb	0	; () banked
  5045  00101E  6F6A               	movwf	___awdiv@counter& (0+255),b
  5046  001020  D007               	goto	l2708
  5047  001022                     l2706:
  5048                           
  5049                           ; BSR set to: 0
  5050  001022  0100               	movlb	0	; () banked
  5051  001024  90D8               	bcf	status,0,c
  5052  001026  3768               	rlcf	___awdiv@divisor& (0+255),f,b
  5053  001028  3769               	rlcf	(___awdiv@divisor+1)& (0+255),f,b
  5054  00102A  0100               	movlb	0	; () banked
  5055  00102C  2B6A               	incf	___awdiv@counter& (0+255),f,b
  5056  00102E  D000               	goto	l2708
  5057  001030                     l2708:
  5058                           
  5059                           ; BSR set to: 0
  5060  001030  0100               	movlb	0	; () banked
  5061  001032  BF69               	btfsc	(___awdiv@divisor+1)& (0+255),7,b
  5062  001034  D002               	goto	l2710
  5063  001036  D7F5               	goto	l2706
  5064                           
  5065                           ; BSR set to: 0
  5066  001038  D000               	goto	l2710
  5067  00103A                     l2710:
  5068                           
  5069                           ; BSR set to: 0
  5070  00103A  0100               	movlb	0	; () banked
  5071  00103C  90D8               	bcf	status,0,c
  5072  00103E  376C               	rlcf	___awdiv@quotient& (0+255),f,b
  5073  001040  376D               	rlcf	(___awdiv@quotient+1)& (0+255),f,b
  5074                           
  5075                           ; BSR set to: 0
  5076  001042  0100               	movlb	0	; () banked
  5077  001044  5168               	movf	___awdiv@divisor& (0+255),w,b
  5078  001046  0100               	movlb	0	; () banked
  5079  001048  5D66               	subwf	___awdiv@dividend& (0+255),w,b
  5080  00104A  0100               	movlb	0	; () banked
  5081  00104C  5169               	movf	(___awdiv@divisor+1)& (0+255),w,b
  5082  00104E  0100               	movlb	0	; () banked
  5083  001050  5967               	subwfb	(___awdiv@dividend+1)& (0+255),w,b
  5084  001052  A0D8               	btfss	status,0,c
  5085  001054  D00B               	goto	l2718
  5086                           
  5087                           ; BSR set to: 0
  5088  001056  0100               	movlb	0	; () banked
  5089  001058  5168               	movf	___awdiv@divisor& (0+255),w,b
  5090  00105A  0100               	movlb	0	; () banked
  5091  00105C  5F66               	subwf	___awdiv@dividend& (0+255),f,b
  5092  00105E  0100               	movlb	0	; () banked
  5093  001060  5169               	movf	(___awdiv@divisor+1)& (0+255),w,b
  5094  001062  0100               	movlb	0	; () banked
  5095  001064  5B67               	subwfb	(___awdiv@dividend+1)& (0+255),f,b
  5096                           
  5097                           ; BSR set to: 0
  5098  001066  0100               	movlb	0	; () banked
  5099  001068  816C               	bsf	___awdiv@quotient& (0+255),0,b
  5100  00106A  D000               	goto	l2718
  5101  00106C                     l2718:
  5102                           
  5103                           ; BSR set to: 0
  5104  00106C  0100               	movlb	0	; () banked
  5105  00106E  90D8               	bcf	status,0,c
  5106  001070  3369               	rrcf	(___awdiv@divisor+1)& (0+255),f,b
  5107  001072  3368               	rrcf	___awdiv@divisor& (0+255),f,b
  5108                           
  5109                           ; BSR set to: 0
  5110  001074  0100               	movlb	0	; () banked
  5111  001076  2F6A               	decfsz	___awdiv@counter& (0+255),f,b
  5112  001078  D7E0               	goto	l2710
  5113                           
  5114                           ; BSR set to: 0
  5115  00107A  D000               	goto	l2722
  5116  00107C                     l2722:
  5117                           
  5118                           ; BSR set to: 0
  5119  00107C  0100               	movlb	0	; () banked
  5120  00107E  516B               	movf	___awdiv@sign& (0+255),w,b
  5121  001080  0100               	movlb	0	; () banked
  5122  001082  B4D8               	btfsc	status,2,c
  5123  001084  D006               	goto	l2726
  5124                           
  5125                           ; BSR set to: 0
  5126  001086  0100               	movlb	0	; () banked
  5127  001088  6D6C               	negf	___awdiv@quotient& (0+255),b
  5128  00108A  1F6D               	comf	(___awdiv@quotient+1)& (0+255),f,b
  5129  00108C  B0D8               	btfsc	status,0,c
  5130  00108E  2B6D               	incf	(___awdiv@quotient+1)& (0+255),f,b
  5131  001090  D000               	goto	l2726
  5132  001092                     l2726:
  5133                           
  5134                           ; BSR set to: 0
  5135  001092  C06C  F066         	movff	___awdiv@quotient,?___awdiv
  5136  001096  C06D  F067         	movff	___awdiv@quotient+1,?___awdiv+1
  5137  00109A  D000               	goto	l702
  5138  00109C                     l702:
  5139                           
  5140                           ; BSR set to: 0
  5141  00109C  0012               	return		;funcret
  5142  00109E                     __end_of___awdiv:
  5143                           	opt stack 0
  5144                           tblptru	equ	0xFF8
  5145                           tblptrh	equ	0xFF7
  5146                           tblptrl	equ	0xFF6
  5147                           tablat	equ	0xFF5
  5148                           prodh	equ	0xFF4
  5149                           prodl	equ	0xFF3
  5150                           intcon	equ	0xFF2
  5151                           intcon2	equ	0xFF1
  5152                           intcon3	equ	0xFF0
  5153                           indf0	equ	0xFEF
  5154                           postinc0	equ	0xFEE
  5155                           fsr0h	equ	0xFEA
  5156                           fsr0l	equ	0xFE9
  5157                           wreg	equ	0xFE8
  5158                           indf2	equ	0xFDF
  5159                           fsr2h	equ	0xFDA
  5160                           fsr2l	equ	0xFD9
  5161                           status	equ	0xFD8
  5162                           
  5163 ;; *************** function _low_isr *****************
  5164 ;; Defined at:
  5165 ;;		line 33 in file "interruptions.c"
  5166 ;; Parameters:    Size  Location     Type
  5167 ;;		None
  5168 ;; Auto vars:     Size  Location     Type
  5169 ;;		None
  5170 ;; Return value:  Size  Location     Type
  5171 ;;		None               void
  5172 ;; Registers used:
  5173 ;;		wreg, fsr2l, fsr2h, status,2, status,0, prodl, prodh, cstack
  5174 ;; Tracked objects:
  5175 ;;		On entry : 0/0
  5176 ;;		On exit  : 0/0
  5177 ;;		Unchanged: 0/0
  5178 ;; Data sizes:     COMRAM   BANK0   BANK1   BANK2
  5179 ;;      Params:         0       0       0       0
  5180 ;;      Locals:         0       0       0       0
  5181 ;;      Temps:         17       0       0       0
  5182 ;;      Totals:        17       0       0       0
  5183 ;;Total ram usage:       17 bytes
  5184 ;; Hardware stack levels used:    1
  5185 ;; Hardware stack levels required when called:    5
  5186 ;; This function calls:
  5187 ;;		_subroutine_interruptions
  5188 ;; This function is called by:
  5189 ;;		Interrupt level 1
  5190 ;; This function uses a non-reentrant model
  5191 ;;
  5192                           
  5193                           	psect	intcodelo
  5194  000018                     __pintcodelo:
  5195                           	opt stack 0
  5196  000018                     _low_isr:
  5197                           	opt stack 21
  5198                           
  5199                           ; BSR set to: 0
  5200                           ;incstack = 0
  5201  000018  CFD8 F004          	movff	status,??_low_isr
  5202  00001C  CFE8 F005          	movff	wreg,??_low_isr+1
  5203  000020  CFE0 F006          	movff	bsr,??_low_isr+2
  5204  000024  CFFA F007          	movff	pclath,??_low_isr+3
  5205  000028  CFFB F008          	movff	pclatu,??_low_isr+4
  5206  00002C  CFE9 F009          	movff	fsr0l,??_low_isr+5
  5207  000030  CFEA F00A          	movff	fsr0h,??_low_isr+6
  5208  000034  CFE1 F00B          	movff	fsr1l,??_low_isr+7
  5209  000038  CFE2 F00C          	movff	fsr1h,??_low_isr+8
  5210  00003C  CFD9 F00D          	movff	fsr2l,??_low_isr+9
  5211  000040  CFDA F00E          	movff	fsr2h,??_low_isr+10
  5212  000044  CFF3 F00F          	movff	prodl,??_low_isr+11
  5213  000048  CFF4 F010          	movff	prodh,??_low_isr+12
  5214  00004C  CFF6 F011          	movff	tblptrl,??_low_isr+13
  5215  000050  CFF7 F012          	movff	tblptrh,??_low_isr+14
  5216  000054  CFF8 F013          	movff	tblptru,??_low_isr+15
  5217  000058  CFF5 F014          	movff	tablat,??_low_isr+16
  5218                           
  5219                           ;interruptions.c: 35: subroutine_interruptions(0b0);
  5220  00005C  0E00               	movlw	0
  5221  00005E  EC99  F009         	call	_subroutine_interruptions
  5222  000062  C014  FFF5         	movff	??_low_isr+16,tablat
  5223  000066  C013  FFF8         	movff	??_low_isr+15,tblptru
  5224  00006A  C012  FFF7         	movff	??_low_isr+14,tblptrh
  5225  00006E  C011  FFF6         	movff	??_low_isr+13,tblptrl
  5226  000072  C010  FFF4         	movff	??_low_isr+12,prodh
  5227  000076  C00F  FFF3         	movff	??_low_isr+11,prodl
  5228  00007A  C00E  FFDA         	movff	??_low_isr+10,fsr2h
  5229  00007E  C00D  FFD9         	movff	??_low_isr+9,fsr2l
  5230  000082  C00C  FFE2         	movff	??_low_isr+8,fsr1h
  5231  000086  C00B  FFE1         	movff	??_low_isr+7,fsr1l
  5232  00008A  C00A  FFEA         	movff	??_low_isr+6,fsr0h
  5233  00008E  C009  FFE9         	movff	??_low_isr+5,fsr0l
  5234  000092  C008  FFFB         	movff	??_low_isr+4,pclatu
  5235  000096  C007  FFFA         	movff	??_low_isr+3,pclath
  5236  00009A  C006  FFE0         	movff	??_low_isr+2,bsr
  5237  00009E  C005  FFE8         	movff	??_low_isr+1,wreg
  5238  0000A2  C004  FFD8         	movff	??_low_isr,status
  5239  0000A6  0010               	retfie	
  5240  0000A8                     __end_of_low_isr:
  5241                           	opt stack 0
  5242                           pclatu	equ	0xFFB
  5243                           pclath	equ	0xFFA
  5244                           tblptru	equ	0xFF8
  5245                           tblptrh	equ	0xFF7
  5246                           tblptrl	equ	0xFF6
  5247                           tablat	equ	0xFF5
  5248                           prodh	equ	0xFF4
  5249                           prodl	equ	0xFF3
  5250                           intcon	equ	0xFF2
  5251                           intcon2	equ	0xFF1
  5252                           intcon3	equ	0xFF0
  5253                           indf0	equ	0xFEF
  5254                           postinc0	equ	0xFEE
  5255                           fsr0h	equ	0xFEA
  5256                           fsr0l	equ	0xFE9
  5257                           wreg	equ	0xFE8
  5258                           fsr1h	equ	0xFE2
  5259                           fsr1l	equ	0xFE1
  5260                           bsr	equ	0xFE0
  5261                           indf2	equ	0xFDF
  5262                           fsr2h	equ	0xFDA
  5263                           fsr2l	equ	0xFD9
  5264                           status	equ	0xFD8
  5265                           
  5266 ;; *************** function _subroutine_interruptions *****************
  5267 ;; Defined at:
  5268 ;;		line 43 in file "interruptions.c"
  5269 ;; Parameters:    Size  Location     Type
  5270 ;;  priorite        1    wreg     unsigned char 
  5271 ;; Auto vars:     Size  Location     Type
  5272 ;;  priorite        1    2[COMRAM] unsigned char 
  5273 ;; Return value:  Size  Location     Type
  5274 ;;		None               void
  5275 ;; Registers used:
  5276 ;;		wreg, fsr2l, fsr2h, status,2, status,0, prodl, prodh, cstack
  5277 ;; Tracked objects:
  5278 ;;		On entry : 0/0
  5279 ;;		On exit  : 0/0
  5280 ;;		Unchanged: 0/0
  5281 ;; Data sizes:     COMRAM   BANK0   BANK1   BANK2
  5282 ;;      Params:         0       0       0       0
  5283 ;;      Locals:         1       0       0       0
  5284 ;;      Temps:          0       0       0       0
  5285 ;;      Totals:         1       0       0       0
  5286 ;;Total ram usage:        1 bytes
  5287 ;; Hardware stack levels used:    1
  5288 ;; Hardware stack levels required when called:    4
  5289 ;; This function calls:
  5290 ;;		_interrupt_RX
  5291 ;;		_interrupt_TX
  5292 ;;		_interruption_INT0
  5293 ;;		_interruption_QEI
  5294 ;;		_interruption_timer0
  5295 ;;		_interruption_timer1
  5296 ;;		_interruption_timer2
  5297 ;;		_interuption_QEI_sens
  5298 ;; This function is called by:
  5299 ;;		_low_isr
  5300 ;; This function uses a non-reentrant model
  5301 ;;
  5302                           
  5303                           	psect	text28
  5304  001332                     __ptext28:
  5305                           	opt stack 0
  5306  001332                     _subroutine_interruptions:
  5307                           	opt stack 21
  5308                           
  5309                           ;incstack = 0
  5310                           ;subroutine_interruptions@priorite stored from wreg
  5311  001332  6E03               	movwf	subroutine_interruptions@priorite,c
  5312                           
  5313                           ;interruptions.c: 45: if ( PIR3bits.IC2QEIF == 1 && 0b0 == 1 && priorite == 0b1)
  5314  001334  50A4               	movf	4004,w,c	;volatile
  5315  001336  D006               	goto	i1l327
  5316  001338  0403               	decf	subroutine_interruptions@priorite,w,c
  5317  00133A  A4D8               	btfss	status,2,c
  5318  00133C  D003               	goto	i1l327
  5319                           
  5320                           ;interruptions.c: 46: {
  5321                           ;interruptions.c: 47: interruption_QEI();
  5322  00133E  EC97  F00C         	call	_interruption_QEI	;wreg free
  5323                           
  5324                           ;interruptions.c: 48: }
  5325  001342  D038               	goto	i1l342
  5326  001344                     i1l327:
  5327                           
  5328                           ;interruptions.c: 49: else if ( PIR3bits.IC3DRIF == 1 && 0b0 == 1 && priorite == 0b1)
  5329  001344  50A4               	movf	4004,w,c	;volatile
  5330  001346  D006               	goto	i1l329
  5331  001348  0403               	decf	subroutine_interruptions@priorite,w,c
  5332  00134A  A4D8               	btfss	status,2,c
  5333  00134C  D003               	goto	i1l329
  5334                           
  5335                           ;interruptions.c: 50: {
  5336                           ;interruptions.c: 51: interuption_QEI_sens();
  5337  00134E  ECB8  F00C         	call	_interuption_QEI_sens	;wreg free
  5338                           
  5339                           ;interruptions.c: 52: }
  5340  001352  D030               	goto	i1l342
  5341  001354                     i1l329:
  5342                           
  5343                           ;interruptions.c: 53: else if ( INTCONbits.TMR0IF == 1 && 0b0 == 1 && priorite == 0b1)
  5344  001354  50F2               	movf	intcon,w,c	;volatile
  5345  001356  D006               	goto	i1l331
  5346  001358  0403               	decf	subroutine_interruptions@priorite,w,c
  5347  00135A  A4D8               	btfss	status,2,c
  5348  00135C  D003               	goto	i1l331
  5349                           
  5350                           ;interruptions.c: 54: {
  5351                           ;interruptions.c: 55: interruption_timer0();
  5352  00135E  ECB0  F00C         	call	_interruption_timer0	;wreg free
  5353                           
  5354                           ;interruptions.c: 56: }
  5355  001362  D028               	goto	i1l342
  5356  001364                     i1l331:
  5357                           
  5358                           ;interruptions.c: 57: else if ( PIR1bits.TMR1IF == 1 && 0b1 == 1 && priorite == 0b1)
  5359  001364  A09E               	btfss	3998,0,c	;volatile
  5360  001366  D006               	goto	i1l333
  5361  001368  0403               	decf	subroutine_interruptions@priorite,w,c
  5362  00136A  A4D8               	btfss	status,2,c
  5363  00136C  D003               	goto	i1l333
  5364                           
  5365                           ;interruptions.c: 58: {
  5366                           ;interruptions.c: 59: interruption_timer1();
  5367  00136E  EC18  F00B         	call	_interruption_timer1	;wreg free
  5368                           
  5369                           ;interruptions.c: 60: }
  5370  001372  D020               	goto	i1l342
  5371  001374                     i1l333:
  5372                           
  5373                           ;interruptions.c: 61: else if ( PIR1bits.TMR2IF == 1 && 0b0 == 1 && priorite == 0b0)
  5374  001374  509E               	movf	3998,w,c	;volatile
  5375  001376  D006               	goto	i1l335
  5376  001378  5003               	movf	subroutine_interruptions@priorite,w,c
  5377  00137A  A4D8               	btfss	status,2,c
  5378  00137C  D003               	goto	i1l335
  5379                           
  5380                           ;interruptions.c: 62: {
  5381                           ;interruptions.c: 63: interruption_timer2();
  5382  00137E  ECBA  F00C         	call	_interruption_timer2	;wreg free
  5383                           
  5384                           ;interruptions.c: 64: }
  5385  001382  D018               	goto	i1l342
  5386  001384                     i1l335:
  5387                           
  5388                           ;interruptions.c: 65: else if (INTCONbits.INT0IF == 1 && 0b1 == 1 && priorite == 0b1)
  5389  001384  A2F2               	btfss	intcon,1,c	;volatile
  5390  001386  D006               	goto	i1l337
  5391  001388  0403               	decf	subroutine_interruptions@priorite,w,c
  5392  00138A  A4D8               	btfss	status,2,c
  5393  00138C  D003               	goto	i1l337
  5394                           
  5395                           ;interruptions.c: 66: {
  5396                           ;interruptions.c: 67: interruption_INT0();
  5397  00138E  EC2D  F00C         	call	_interruption_INT0	;wreg free
  5398                           
  5399                           ;interruptions.c: 68: }
  5400  001392  D010               	goto	i1l342
  5401  001394                     i1l337:
  5402                           
  5403                           ;interruptions.c: 85: else if ( PIR1bits.RCIF == 1 && 0b1 == 1 && priorite == 0b1)
  5404  001394  AA9E               	btfss	3998,5,c	;volatile
  5405  001396  D006               	goto	i1l339
  5406  001398  0403               	decf	subroutine_interruptions@priorite,w,c
  5407  00139A  A4D8               	btfss	status,2,c
  5408  00139C  D003               	goto	i1l339
  5409                           
  5410                           ;interruptions.c: 86: {
  5411                           ;interruptions.c: 87: interrupt_RX();
  5412  00139E  EC5E  F00B         	call	_interrupt_RX	;wreg free
  5413                           
  5414                           ;interruptions.c: 88: }
  5415  0013A2  D008               	goto	i1l342
  5416  0013A4                     i1l339:
  5417                           
  5418                           ;interruptions.c: 89: else if (PIR1bits.TXIF == 1 && 0b0 == 1 && priorite == 0b0)
  5419  0013A4  509E               	movf	3998,w,c	;volatile
  5420  0013A6  D006               	goto	i1l342
  5421  0013A8  5003               	movf	subroutine_interruptions@priorite,w,c
  5422  0013AA  A4D8               	btfss	status,2,c
  5423  0013AC  D003               	goto	i1l342
  5424                           
  5425                           ;interruptions.c: 90: {
  5426                           ;interruptions.c: 91: interrupt_TX();
  5427  0013AE  ECBC  F00C         	call	_interrupt_TX	;wreg free
  5428  0013B2  D000               	goto	i1l342
  5429  0013B4                     i1l342:
  5430  0013B4  0012               	return		;funcret
  5431  0013B6                     __end_of_subroutine_interruptions:
  5432                           	opt stack 0
  5433                           pclatu	equ	0xFFB
  5434                           pclath	equ	0xFFA
  5435                           tblptru	equ	0xFF8
  5436                           tblptrh	equ	0xFF7
  5437                           tblptrl	equ	0xFF6
  5438                           tablat	equ	0xFF5
  5439                           prodh	equ	0xFF4
  5440                           prodl	equ	0xFF3
  5441                           intcon	equ	0xFF2
  5442                           intcon2	equ	0xFF1
  5443                           intcon3	equ	0xFF0
  5444                           indf0	equ	0xFEF
  5445                           postinc0	equ	0xFEE
  5446                           fsr0h	equ	0xFEA
  5447                           fsr0l	equ	0xFE9
  5448                           wreg	equ	0xFE8
  5449                           fsr1h	equ	0xFE2
  5450                           fsr1l	equ	0xFE1
  5451                           bsr	equ	0xFE0
  5452                           indf2	equ	0xFDF
  5453                           fsr2h	equ	0xFDA
  5454                           fsr2l	equ	0xFD9
  5455                           status	equ	0xFD8
  5456                           
  5457 ;; *************** function _interuption_QEI_sens *****************
  5458 ;; Defined at:
  5459 ;;		line 186 in file "interruptions.c"
  5460 ;; Parameters:    Size  Location     Type
  5461 ;;		None
  5462 ;; Auto vars:     Size  Location     Type
  5463 ;;		None
  5464 ;; Return value:  Size  Location     Type
  5465 ;;		None               void
  5466 ;; Registers used:
  5467 ;;		None
  5468 ;; Tracked objects:
  5469 ;;		On entry : 0/0
  5470 ;;		On exit  : 0/0
  5471 ;;		Unchanged: 0/0
  5472 ;; Data sizes:     COMRAM   BANK0   BANK1   BANK2
  5473 ;;      Params:         0       0       0       0
  5474 ;;      Locals:         0       0       0       0
  5475 ;;      Temps:          0       0       0       0
  5476 ;;      Totals:         0       0       0       0
  5477 ;;Total ram usage:        0 bytes
  5478 ;; Hardware stack levels used:    1
  5479 ;; Hardware stack levels required when called:    3
  5480 ;; This function calls:
  5481 ;;		Nothing
  5482 ;; This function is called by:
  5483 ;;		_subroutine_interruptions
  5484 ;; This function uses a non-reentrant model
  5485 ;;
  5486                           
  5487                           	psect	text29
  5488  001970                     __ptext29:
  5489                           	opt stack 0
  5490  001970                     _interuption_QEI_sens:
  5491                           	opt stack 21
  5492                           
  5493                           ;interruptions.c: 188: PIR3bits.IC3DRIF = 0;
  5494                           
  5495                           ;incstack = 0
  5496  001970  96A4               	bcf	4004,3,c	;volatile
  5497  001972  0012               	return		;funcret
  5498  001974                     __end_of_interuption_QEI_sens:
  5499                           	opt stack 0
  5500                           pclatu	equ	0xFFB
  5501                           pclath	equ	0xFFA
  5502                           tblptru	equ	0xFF8
  5503                           tblptrh	equ	0xFF7
  5504                           tblptrl	equ	0xFF6
  5505                           tablat	equ	0xFF5
  5506                           prodh	equ	0xFF4
  5507                           prodl	equ	0xFF3
  5508                           intcon	equ	0xFF2
  5509                           intcon2	equ	0xFF1
  5510                           intcon3	equ	0xFF0
  5511                           indf0	equ	0xFEF
  5512                           postinc0	equ	0xFEE
  5513                           fsr0h	equ	0xFEA
  5514                           fsr0l	equ	0xFE9
  5515                           wreg	equ	0xFE8
  5516                           fsr1h	equ	0xFE2
  5517                           fsr1l	equ	0xFE1
  5518                           bsr	equ	0xFE0
  5519                           indf2	equ	0xFDF
  5520                           fsr2h	equ	0xFDA
  5521                           fsr2l	equ	0xFD9
  5522                           status	equ	0xFD8
  5523                           
  5524 ;; *************** function _interruption_timer2 *****************
  5525 ;; Defined at:
  5526 ;;		line 129 in file "interruptions.c"
  5527 ;; Parameters:    Size  Location     Type
  5528 ;;		None
  5529 ;; Auto vars:     Size  Location     Type
  5530 ;;		None
  5531 ;; Return value:  Size  Location     Type
  5532 ;;		None               void
  5533 ;; Registers used:
  5534 ;;		None
  5535 ;; Tracked objects:
  5536 ;;		On entry : 0/0
  5537 ;;		On exit  : 0/0
  5538 ;;		Unchanged: 0/0
  5539 ;; Data sizes:     COMRAM   BANK0   BANK1   BANK2
  5540 ;;      Params:         0       0       0       0
  5541 ;;      Locals:         0       0       0       0
  5542 ;;      Temps:          0       0       0       0
  5543 ;;      Totals:         0       0       0       0
  5544 ;;Total ram usage:        0 bytes
  5545 ;; Hardware stack levels used:    1
  5546 ;; Hardware stack levels required when called:    3
  5547 ;; This function calls:
  5548 ;;		Nothing
  5549 ;; This function is called by:
  5550 ;;		_subroutine_interruptions
  5551 ;; This function uses a non-reentrant model
  5552 ;;
  5553                           
  5554                           	psect	text30
  5555  001974                     __ptext30:
  5556                           	opt stack 0
  5557  001974                     _interruption_timer2:
  5558                           	opt stack 21
  5559                           
  5560                           ;interruptions.c: 131: PIR1bits.TMR2IF = 0;
  5561                           
  5562                           ;incstack = 0
  5563  001974  929E               	bcf	3998,1,c	;volatile
  5564  001976  0012               	return		;funcret
  5565  001978                     __end_of_interruption_timer2:
  5566                           	opt stack 0
  5567                           pclatu	equ	0xFFB
  5568                           pclath	equ	0xFFA
  5569                           tblptru	equ	0xFF8
  5570                           tblptrh	equ	0xFF7
  5571                           tblptrl	equ	0xFF6
  5572                           tablat	equ	0xFF5
  5573                           prodh	equ	0xFF4
  5574                           prodl	equ	0xFF3
  5575                           intcon	equ	0xFF2
  5576                           intcon2	equ	0xFF1
  5577                           intcon3	equ	0xFF0
  5578                           indf0	equ	0xFEF
  5579                           postinc0	equ	0xFEE
  5580                           fsr0h	equ	0xFEA
  5581                           fsr0l	equ	0xFE9
  5582                           wreg	equ	0xFE8
  5583                           fsr1h	equ	0xFE2
  5584                           fsr1l	equ	0xFE1
  5585                           bsr	equ	0xFE0
  5586                           indf2	equ	0xFDF
  5587                           fsr2h	equ	0xFDA
  5588                           fsr2l	equ	0xFD9
  5589                           status	equ	0xFD8
  5590                           
  5591 ;; *************** function _interruption_timer1 *****************
  5592 ;; Defined at:
  5593 ;;		line 112 in file "interruptions.c"
  5594 ;; Parameters:    Size  Location     Type
  5595 ;;		None
  5596 ;; Auto vars:     Size  Location     Type
  5597 ;;		None
  5598 ;; Return value:  Size  Location     Type
  5599 ;;		None               void
  5600 ;; Registers used:
  5601 ;;		wreg, fsr2l, fsr2h, status,2, status,0, prodl, prodh
  5602 ;; Tracked objects:
  5603 ;;		On entry : 0/0
  5604 ;;		On exit  : 0/0
  5605 ;;		Unchanged: 0/0
  5606 ;; Data sizes:     COMRAM   BANK0   BANK1   BANK2
  5607 ;;      Params:         0       0       0       0
  5608 ;;      Locals:         0       0       0       0
  5609 ;;      Temps:          1       0       0       0
  5610 ;;      Totals:         1       0       0       0
  5611 ;;Total ram usage:        1 bytes
  5612 ;; Hardware stack levels used:    1
  5613 ;; Hardware stack levels required when called:    3
  5614 ;; This function calls:
  5615 ;;		Nothing
  5616 ;; This function is called by:
  5617 ;;		_subroutine_interruptions
  5618 ;; This function uses a non-reentrant model
  5619 ;;
  5620                           
  5621                           	psect	text31
  5622  001630                     __ptext31:
  5623                           	opt stack 0
  5624  001630                     _interruption_timer1:
  5625                           	opt stack 21
  5626                           
  5627                           ;interruptions.c: 114: PIR1bits.TMR1IF = 0;
  5628                           
  5629                           ;incstack = 0
  5630  001630  909E               	bcf	3998,0,c	;volatile
  5631                           
  5632                           ;interruptions.c: 115: TMR1 = 65535 - 810;
  5633  001632  0EFC               	movlw	252
  5634  001634  6ECF               	movwf	4047,c	;volatile
  5635  001636  0ED5               	movlw	213
  5636  001638  6ECE               	movwf	4046,c	;volatile
  5637                           
  5638                           ;interruptions.c: 117: if (uart_logiciel.transmission_en_cours == 1)
  5639  00163A  0444               	decf	_uart_logiciel+11,w,c
  5640  00163C  A4D8               	btfss	status,2,c
  5641  00163E  D018               	goto	i1l348
  5642                           
  5643                           ;interruptions.c: 118: {
  5644                           ;interruptions.c: 119: PORTCbits.RC5 = uart_logiciel.buffer_uart[uart_logiciel.indice];
  5645  001640  5045               	movf	_uart_logiciel+12,w,c
  5646  001642  0D01               	mullw	1
  5647  001644  0E39               	movlw	low _uart_logiciel
  5648  001646  24F3               	addwf	prodl,w,c
  5649  001648  6ED9               	movwf	fsr2l,c
  5650  00164A  0E00               	movlw	high _uart_logiciel
  5651  00164C  20F4               	addwfc	prodh,w,c
  5652  00164E  6EDA               	movwf	fsr2h,c
  5653  001650  50DF               	movf	indf2,w,c
  5654  001652  6E01               	movwf	??_interruption_timer1& (0+255),c
  5655  001654  3A01               	swapf	??_interruption_timer1,f,c
  5656  001656  4601               	rlncf	??_interruption_timer1,f,c
  5657  001658  5082               	movf	3970,w,c	;volatile
  5658  00165A  1801               	xorwf	??_interruption_timer1,w,c
  5659  00165C  0BDF               	andlw	-33
  5660  00165E  1801               	xorwf	??_interruption_timer1,w,c
  5661  001660  6E82               	movwf	3970,c	;volatile
  5662                           
  5663                           ;interruptions.c: 120: uart_logiciel.indice++;
  5664  001662  2A45               	incf	_uart_logiciel+12,f,c
  5665                           
  5666                           ;interruptions.c: 122: if (uart_logiciel.indice > 10)
  5667  001664  0E0A               	movlw	10
  5668  001666  6445               	cpfsgt	_uart_logiciel+12,c
  5669  001668  D005               	goto	i1l351
  5670                           
  5671                           ;interruptions.c: 123: uart_logiciel.transmission_en_cours = 0;
  5672  00166A  0E00               	movlw	0
  5673  00166C  6E44               	movwf	_uart_logiciel+11,c
  5674                           
  5675                           ;interruptions.c: 124: }
  5676  00166E  D002               	goto	i1l351
  5677  001670                     i1l348:
  5678                           
  5679                           ;interruptions.c: 125: else
  5680                           ;interruptions.c: 126: PORTCbits.RC5 = 1;
  5681  001670  8A82               	bsf	3970,5,c	;volatile
  5682  001672  D000               	goto	i1l351
  5683  001674                     i1l351:
  5684  001674  0012               	return		;funcret
  5685  001676                     __end_of_interruption_timer1:
  5686                           	opt stack 0
  5687                           pclatu	equ	0xFFB
  5688                           pclath	equ	0xFFA
  5689                           tblptru	equ	0xFF8
  5690                           tblptrh	equ	0xFF7
  5691                           tblptrl	equ	0xFF6
  5692                           tablat	equ	0xFF5
  5693                           prodh	equ	0xFF4
  5694                           prodl	equ	0xFF3
  5695                           intcon	equ	0xFF2
  5696                           intcon2	equ	0xFF1
  5697                           intcon3	equ	0xFF0
  5698                           indf0	equ	0xFEF
  5699                           postinc0	equ	0xFEE
  5700                           fsr0h	equ	0xFEA
  5701                           fsr0l	equ	0xFE9
  5702                           wreg	equ	0xFE8
  5703                           fsr1h	equ	0xFE2
  5704                           fsr1l	equ	0xFE1
  5705                           bsr	equ	0xFE0
  5706                           indf2	equ	0xFDF
  5707                           fsr2h	equ	0xFDA
  5708                           fsr2l	equ	0xFD9
  5709                           status	equ	0xFD8
  5710                           
  5711 ;; *************** function _interruption_timer0 *****************
  5712 ;; Defined at:
  5713 ;;		line 104 in file "interruptions.c"
  5714 ;; Parameters:    Size  Location     Type
  5715 ;;		None
  5716 ;; Auto vars:     Size  Location     Type
  5717 ;;		None
  5718 ;; Return value:  Size  Location     Type
  5719 ;;		None               void
  5720 ;; Registers used:
  5721 ;;		wreg, status,2
  5722 ;; Tracked objects:
  5723 ;;		On entry : 0/0
  5724 ;;		On exit  : 0/0
  5725 ;;		Unchanged: 0/0
  5726 ;; Data sizes:     COMRAM   BANK0   BANK1   BANK2
  5727 ;;      Params:         0       0       0       0
  5728 ;;      Locals:         0       0       0       0
  5729 ;;      Temps:          0       0       0       0
  5730 ;;      Totals:         0       0       0       0
  5731 ;;Total ram usage:        0 bytes
  5732 ;; Hardware stack levels used:    1
  5733 ;; Hardware stack levels required when called:    3
  5734 ;; This function calls:
  5735 ;;		Nothing
  5736 ;; This function is called by:
  5737 ;;		_subroutine_interruptions
  5738 ;; This function uses a non-reentrant model
  5739 ;;
  5740                           
  5741                           	psect	text32
  5742  001960                     __ptext32:
  5743                           	opt stack 0
  5744  001960                     _interruption_timer0:
  5745                           	opt stack 21
  5746                           
  5747                           ;interruptions.c: 106: INTCONbits.TMR0IF = 0;
  5748                           
  5749                           ;incstack = 0
  5750  001960  94F2               	bcf	intcon,2,c	;volatile
  5751                           
  5752                           ;interruptions.c: 107: TMR0L = 131;
  5753  001962  0E83               	movlw	131
  5754  001964  6ED6               	movwf	4054,c	;volatile
  5755  001966  0012               	return		;funcret
  5756  001968                     __end_of_interruption_timer0:
  5757                           	opt stack 0
  5758                           pclatu	equ	0xFFB
  5759                           pclath	equ	0xFFA
  5760                           tblptru	equ	0xFF8
  5761                           tblptrh	equ	0xFF7
  5762                           tblptrl	equ	0xFF6
  5763                           tablat	equ	0xFF5
  5764                           prodh	equ	0xFF4
  5765                           prodl	equ	0xFF3
  5766                           intcon	equ	0xFF2
  5767                           intcon2	equ	0xFF1
  5768                           intcon3	equ	0xFF0
  5769                           indf0	equ	0xFEF
  5770                           postinc0	equ	0xFEE
  5771                           fsr0h	equ	0xFEA
  5772                           fsr0l	equ	0xFE9
  5773                           wreg	equ	0xFE8
  5774                           fsr1h	equ	0xFE2
  5775                           fsr1l	equ	0xFE1
  5776                           bsr	equ	0xFE0
  5777                           indf2	equ	0xFDF
  5778                           fsr2h	equ	0xFDA
  5779                           fsr2l	equ	0xFD9
  5780                           status	equ	0xFD8
  5781                           
  5782 ;; *************** function _interruption_QEI *****************
  5783 ;; Defined at:
  5784 ;;		line 170 in file "interruptions.c"
  5785 ;; Parameters:    Size  Location     Type
  5786 ;;		None
  5787 ;; Auto vars:     Size  Location     Type
  5788 ;;		None
  5789 ;; Return value:  Size  Location     Type
  5790 ;;		None               void
  5791 ;; Registers used:
  5792 ;;		status,2, status,0
  5793 ;; Tracked objects:
  5794 ;;		On entry : 0/0
  5795 ;;		On exit  : 0/0
  5796 ;;		Unchanged: 0/0
  5797 ;; Data sizes:     COMRAM   BANK0   BANK1   BANK2
  5798 ;;      Params:         0       0       0       0
  5799 ;;      Locals:         0       0       0       0
  5800 ;;      Temps:          0       0       0       0
  5801 ;;      Totals:         0       0       0       0
  5802 ;;Total ram usage:        0 bytes
  5803 ;; Hardware stack levels used:    1
  5804 ;; Hardware stack levels required when called:    3
  5805 ;; This function calls:
  5806 ;;		Nothing
  5807 ;; This function is called by:
  5808 ;;		_subroutine_interruptions
  5809 ;; This function uses a non-reentrant model
  5810 ;;
  5811                           
  5812                           	psect	text33
  5813  00192E                     __ptext33:
  5814                           	opt stack 0
  5815  00192E                     _interruption_QEI:
  5816                           	opt stack 21
  5817                           
  5818                           ;interruptions.c: 172: PIR3bits.IC2QEIF = 0;
  5819                           
  5820                           ;incstack = 0
  5821  00192E  94A4               	bcf	4004,2,c	;volatile
  5822                           
  5823                           ;interruptions.c: 173: QEICONbits.QERR = 0;
  5824  001930  9CB6               	bcf	4022,6,c	;volatile
  5825                           
  5826                           ;interruptions.c: 175: if (QEICONbits.UPDOWN == 1)
  5827  001932  AAB6               	btfss	4022,5,c	;volatile
  5828  001934  D002               	goto	i1l1346
  5829                           
  5830                           ;interruptions.c: 176: {
  5831                           ;interruptions.c: 177: OVERFLOW_CODEUR++;
  5832  001936  2A38               	incf	_OVERFLOW_CODEUR,f,c
  5833                           
  5834                           ;interruptions.c: 178: }
  5835  001938  D002               	goto	i1l372
  5836  00193A                     i1l1346:
  5837                           
  5838                           ;interruptions.c: 179: else
  5839                           ;interruptions.c: 180: {
  5840                           ;interruptions.c: 181: OVERFLOW_CODEUR--;
  5841  00193A  0638               	decf	_OVERFLOW_CODEUR,f,c
  5842  00193C  D000               	goto	i1l372
  5843  00193E                     i1l372:
  5844  00193E  0012               	return		;funcret
  5845  001940                     __end_of_interruption_QEI:
  5846                           	opt stack 0
  5847                           pclatu	equ	0xFFB
  5848                           pclath	equ	0xFFA
  5849                           tblptru	equ	0xFF8
  5850                           tblptrh	equ	0xFF7
  5851                           tblptrl	equ	0xFF6
  5852                           tablat	equ	0xFF5
  5853                           prodh	equ	0xFF4
  5854                           prodl	equ	0xFF3
  5855                           intcon	equ	0xFF2
  5856                           intcon2	equ	0xFF1
  5857                           intcon3	equ	0xFF0
  5858                           indf0	equ	0xFEF
  5859                           postinc0	equ	0xFEE
  5860                           fsr0h	equ	0xFEA
  5861                           fsr0l	equ	0xFE9
  5862                           wreg	equ	0xFE8
  5863                           fsr1h	equ	0xFE2
  5864                           fsr1l	equ	0xFE1
  5865                           bsr	equ	0xFE0
  5866                           indf2	equ	0xFDF
  5867                           fsr2h	equ	0xFDA
  5868                           fsr2l	equ	0xFD9
  5869                           status	equ	0xFD8
  5870                           
  5871 ;; *************** function _interruption_INT0 *****************
  5872 ;; Defined at:
  5873 ;;		line 141 in file "interruptions.c"
  5874 ;; Parameters:    Size  Location     Type
  5875 ;;		None
  5876 ;; Auto vars:     Size  Location     Type
  5877 ;;		None
  5878 ;; Return value:  Size  Location     Type
  5879 ;;		None               void
  5880 ;; Registers used:
  5881 ;;		wreg, status,2, status,0
  5882 ;; Tracked objects:
  5883 ;;		On entry : 0/0
  5884 ;;		On exit  : 0/0
  5885 ;;		Unchanged: 0/0
  5886 ;; Data sizes:     COMRAM   BANK0   BANK1   BANK2
  5887 ;;      Params:         0       0       0       0
  5888 ;;      Locals:         0       0       0       0
  5889 ;;      Temps:          2       0       0       0
  5890 ;;      Totals:         2       0       0       0
  5891 ;;Total ram usage:        2 bytes
  5892 ;; Hardware stack levels used:    1
  5893 ;; Hardware stack levels required when called:    3
  5894 ;; This function calls:
  5895 ;;		Nothing
  5896 ;; This function is called by:
  5897 ;;		_subroutine_interruptions
  5898 ;; This function uses a non-reentrant model
  5899 ;;
  5900                           
  5901                           	psect	text34
  5902  00185A                     __ptext34:
  5903                           	opt stack 0
  5904  00185A                     _interruption_INT0:
  5905                           	opt stack 21
  5906                           
  5907                           ;interruptions.c: 143: if (flag_cpateur == 0)
  5908                           
  5909                           ;incstack = 0
  5910  00185A  0100               	movlb	0	; () banked
  5911  00185C  51A7               	movf	_flag_cpateur& (0+255),w,b
  5912  00185E  A4D8               	btfss	status,2,c
  5913  001860  D00F               	goto	i1l2102
  5914                           
  5915                           ; BSR set to: 0
  5916                           ;interruptions.c: 144: {
  5917                           ;interruptions.c: 146: flag_cpateur = 1;
  5918  001862  0E01               	movlw	1
  5919  001864  0100               	movlb	0	; () banked
  5920  001866  6FA7               	movwf	_flag_cpateur& (0+255),b
  5921                           
  5922                           ; BSR set to: 0
  5923                           ;interruptions.c: 148: position.nouvelle = POSCNTH * 256 + POSCNTL;
  5924  001868  5067               	movf	3943,w,c	;volatile
  5925  00186A  6E02               	movwf	(??_interruption_INT0+1)& (0+255),c
  5926  00186C  6A01               	clrf	??_interruption_INT0& (0+255),c
  5927  00186E  5066               	movf	3942,w,c	;volatile
  5928  001870  2401               	addwf	??_interruption_INT0,w,c
  5929  001872  0100               	movlb	0	; () banked
  5930  001874  6F91               	movwf	(_position+2)& (0+255),b
  5931  001876  0E00               	movlw	0
  5932  001878  2002               	addwfc	??_interruption_INT0+1,w,c
  5933  00187A  0100               	movlb	0	; () banked
  5934  00187C  6F92               	movwf	(_position+3)& (0+255),b
  5935  00187E  D000               	goto	i1l2102
  5936  001880                     i1l2102:
  5937                           
  5938                           ; BSR set to: 0
  5939                           ;interruptions.c: 153: }
  5940                           ;interruptions.c: 154: INTCONbits.INT0IF = 0;
  5941  001880  92F2               	bcf	intcon,1,c	;volatile
  5942                           
  5943                           ; BSR set to: 0
  5944  001882  0012               	return		;funcret
  5945  001884                     __end_of_interruption_INT0:
  5946                           	opt stack 0
  5947                           pclatu	equ	0xFFB
  5948                           pclath	equ	0xFFA
  5949                           tblptru	equ	0xFF8
  5950                           tblptrh	equ	0xFF7
  5951                           tblptrl	equ	0xFF6
  5952                           tablat	equ	0xFF5
  5953                           prodh	equ	0xFF4
  5954                           prodl	equ	0xFF3
  5955                           intcon	equ	0xFF2
  5956                           intcon2	equ	0xFF1
  5957                           intcon3	equ	0xFF0
  5958                           indf0	equ	0xFEF
  5959                           postinc0	equ	0xFEE
  5960                           fsr0h	equ	0xFEA
  5961                           fsr0l	equ	0xFE9
  5962                           wreg	equ	0xFE8
  5963                           fsr1h	equ	0xFE2
  5964                           fsr1l	equ	0xFE1
  5965                           bsr	equ	0xFE0
  5966                           indf2	equ	0xFDF
  5967                           fsr2h	equ	0xFDA
  5968                           fsr2l	equ	0xFD9
  5969                           status	equ	0xFD8
  5970                           
  5971 ;; *************** function _interrupt_TX *****************
  5972 ;; Defined at:
  5973 ;;		line 219 in file "interruptions.c"
  5974 ;; Parameters:    Size  Location     Type
  5975 ;;		None
  5976 ;; Auto vars:     Size  Location     Type
  5977 ;;		None
  5978 ;; Return value:  Size  Location     Type
  5979 ;;		None               void
  5980 ;; Registers used:
  5981 ;;		None
  5982 ;; Tracked objects:
  5983 ;;		On entry : 0/0
  5984 ;;		On exit  : 0/0
  5985 ;;		Unchanged: 0/0
  5986 ;; Data sizes:     COMRAM   BANK0   BANK1   BANK2
  5987 ;;      Params:         0       0       0       0
  5988 ;;      Locals:         0       0       0       0
  5989 ;;      Temps:          0       0       0       0
  5990 ;;      Totals:         0       0       0       0
  5991 ;;Total ram usage:        0 bytes
  5992 ;; Hardware stack levels used:    1
  5993 ;; Hardware stack levels required when called:    3
  5994 ;; This function calls:
  5995 ;;		Nothing
  5996 ;; This function is called by:
  5997 ;;		_subroutine_interruptions
  5998 ;; This function uses a non-reentrant model
  5999 ;;
  6000                           
  6001                           	psect	text35
  6002  001978                     __ptext35:
  6003                           	opt stack 0
  6004  001978                     _interrupt_TX:
  6005                           	opt stack 21
  6006                           
  6007                           ;interruptions.c: 221: PIR1bits.TXIF = 0;
  6008                           
  6009                           ; BSR set to: 0
  6010                           ;incstack = 0
  6011  001978  989E               	bcf	3998,4,c	;volatile
  6012  00197A  0012               	return		;funcret
  6013  00197C                     __end_of_interrupt_TX:
  6014                           	opt stack 0
  6015                           pclatu	equ	0xFFB
  6016                           pclath	equ	0xFFA
  6017                           tblptru	equ	0xFF8
  6018                           tblptrh	equ	0xFF7
  6019                           tblptrl	equ	0xFF6
  6020                           tablat	equ	0xFF5
  6021                           prodh	equ	0xFF4
  6022                           prodl	equ	0xFF3
  6023                           intcon	equ	0xFF2
  6024                           intcon2	equ	0xFF1
  6025                           intcon3	equ	0xFF0
  6026                           indf0	equ	0xFEF
  6027                           postinc0	equ	0xFEE
  6028                           fsr0h	equ	0xFEA
  6029                           fsr0l	equ	0xFE9
  6030                           wreg	equ	0xFE8
  6031                           fsr1h	equ	0xFE2
  6032                           fsr1l	equ	0xFE1
  6033                           bsr	equ	0xFE0
  6034                           indf2	equ	0xFDF
  6035                           fsr2h	equ	0xFDA
  6036                           fsr2l	equ	0xFD9
  6037                           status	equ	0xFD8
  6038                           
  6039 ;; *************** function _interrupt_RX *****************
  6040 ;; Defined at:
  6041 ;;		line 200 in file "interruptions.c"
  6042 ;; Parameters:    Size  Location     Type
  6043 ;;		None
  6044 ;; Auto vars:     Size  Location     Type
  6045 ;;  temp            1    0[COMRAM] unsigned char 
  6046 ;; Return value:  Size  Location     Type
  6047 ;;		None               void
  6048 ;; Registers used:
  6049 ;;		wreg, fsr2l, fsr2h, status,2, status,0, prodl, prodh
  6050 ;; Tracked objects:
  6051 ;;		On entry : 0/0
  6052 ;;		On exit  : 0/0
  6053 ;;		Unchanged: 0/0
  6054 ;; Data sizes:     COMRAM   BANK0   BANK1   BANK2
  6055 ;;      Params:         0       0       0       0
  6056 ;;      Locals:         1       0       0       0
  6057 ;;      Temps:          0       0       0       0
  6058 ;;      Totals:         1       0       0       0
  6059 ;;Total ram usage:        1 bytes
  6060 ;; Hardware stack levels used:    1
  6061 ;; Hardware stack levels required when called:    3
  6062 ;; This function calls:
  6063 ;;		Nothing
  6064 ;; This function is called by:
  6065 ;;		_subroutine_interruptions
  6066 ;; This function uses a non-reentrant model
  6067 ;;
  6068                           
  6069                           	psect	text36
  6070  0016BC                     __ptext36:
  6071                           	opt stack 0
  6072  0016BC                     _interrupt_RX:
  6073                           	opt stack 21
  6074                           
  6075                           ;interruptions.c: 202: PIR1bits.RCIF = 0;
  6076                           
  6077                           ;incstack = 0
  6078  0016BC  9A9E               	bcf	3998,5,c	;volatile
  6079                           
  6080                           ;interruptions.c: 203: PORTBbits.RB0 = 1;
  6081  0016BE  8081               	bsf	3969,0,c	;volatile
  6082                           
  6083                           ;interruptions.c: 205: if (uart_reception.indice < 100)
  6084  0016C0  0E64               	movlw	100
  6085  0016C2  0101               	movlb	1	; () banked
  6086  0016C4  6164               	cpfslt	(_uart_reception+100)& (0+255),b
  6087  0016C6  D011               	goto	i1l2114
  6088                           
  6089                           ; BSR set to: 1
  6090                           ;interruptions.c: 206: {
  6091                           ;interruptions.c: 207: uart_reception.buffer_reeption[uart_reception.indice] = RCREG;
  6092  0016C8  0101               	movlb	1	; () banked
  6093  0016CA  5164               	movf	(_uart_reception+100)& (0+255),w,b
  6094  0016CC  0D01               	mullw	1
  6095  0016CE  0E00               	movlw	low _uart_reception
  6096  0016D0  24F3               	addwf	prodl,w,c
  6097  0016D2  6ED9               	movwf	fsr2l,c
  6098  0016D4  0E01               	movlw	high _uart_reception
  6099  0016D6  20F4               	addwfc	prodh,w,c
  6100  0016D8  6EDA               	movwf	fsr2h,c
  6101  0016DA  CFAE FFDF          	movff	4014,indf2	;volatile
  6102                           
  6103                           ; BSR set to: 1
  6104                           ;interruptions.c: 208: uart_reception.buffer_vide = 0;
  6105  0016DE  0E00               	movlw	0
  6106  0016E0  0101               	movlb	1	; () banked
  6107  0016E2  6F66               	movwf	(_uart_reception+102)& (0+255),b
  6108                           
  6109                           ; BSR set to: 1
  6110                           ;interruptions.c: 209: uart_reception.indice++;
  6111  0016E4  0101               	movlb	1	; () banked
  6112  0016E6  2B64               	incf	(_uart_reception+100)& (0+255),f,b
  6113                           
  6114                           ;interruptions.c: 210: }
  6115  0016E8  D006               	goto	i1l383
  6116  0016EA                     i1l2114:
  6117                           
  6118                           ; BSR set to: 1
  6119                           ;interruptions.c: 211: else
  6120                           ;interruptions.c: 212: {
  6121                           ;interruptions.c: 213: uart_reception.buffer_plein = 1;
  6122  0016EA  0E01               	movlw	1
  6123  0016EC  0101               	movlb	1	; () banked
  6124  0016EE  6F65               	movwf	(_uart_reception+101)& (0+255),b
  6125                           
  6126                           ; BSR set to: 1
  6127                           ;interruptions.c: 214: uint8_t temp = RCREG;
  6128  0016F0  CFAE F001          	movff	4014,interrupt_RX@temp	;volatile
  6129  0016F4  D000               	goto	i1l383
  6130  0016F6                     i1l383:
  6131                           
  6132                           ; BSR set to: 1
  6133  0016F6  0012               	return		;funcret
  6134  0016F8                     __end_of_interrupt_RX:
  6135                           	opt stack 0
  6136                           pclatu	equ	0xFFB
  6137                           pclath	equ	0xFFA
  6138                           tblptru	equ	0xFF8
  6139                           tblptrh	equ	0xFF7
  6140                           tblptrl	equ	0xFF6
  6141                           tablat	equ	0xFF5
  6142                           prodh	equ	0xFF4
  6143                           prodl	equ	0xFF3
  6144                           intcon	equ	0xFF2
  6145                           intcon2	equ	0xFF1
  6146                           intcon3	equ	0xFF0
  6147                           indf0	equ	0xFEF
  6148                           postinc0	equ	0xFEE
  6149                           fsr0h	equ	0xFEA
  6150                           fsr0l	equ	0xFE9
  6151                           wreg	equ	0xFE8
  6152                           fsr1h	equ	0xFE2
  6153                           fsr1l	equ	0xFE1
  6154                           bsr	equ	0xFE0
  6155                           indf2	equ	0xFDF
  6156                           fsr2h	equ	0xFDA
  6157                           fsr2l	equ	0xFD9
  6158                           status	equ	0xFD8
  6159                           
  6160 ;; *************** function _high_isr *****************
  6161 ;; Defined at:
  6162 ;;		line 27 in file "interruptions.c"
  6163 ;; Parameters:    Size  Location     Type
  6164 ;;		None
  6165 ;; Auto vars:     Size  Location     Type
  6166 ;;		None
  6167 ;; Return value:  Size  Location     Type
  6168 ;;		None               void
  6169 ;; Registers used:
  6170 ;;		wreg, fsr2l, fsr2h, status,2, status,0, prodl, prodh, cstack
  6171 ;; Tracked objects:
  6172 ;;		On entry : 0/0
  6173 ;;		On exit  : 0/0
  6174 ;;		Unchanged: 0/0
  6175 ;; Data sizes:     COMRAM   BANK0   BANK1   BANK2
  6176 ;;      Params:         0       0       0       0
  6177 ;;      Locals:         0       0       0       0
  6178 ;;      Temps:         14       0       0       0
  6179 ;;      Totals:        14       0       0       0
  6180 ;;Total ram usage:       14 bytes
  6181 ;; Hardware stack levels used:    1
  6182 ;; Hardware stack levels required when called:    2
  6183 ;; This function calls:
  6184 ;;		i2_subroutine_interruptions
  6185 ;; This function is called by:
  6186 ;;		Interrupt level 2
  6187 ;; This function uses a non-reentrant model
  6188 ;;
  6189                           
  6190                           	psect	intcode
  6191  000008                     __pintcode:
  6192                           	opt stack 0
  6193  000008                     _high_isr:
  6194                           	opt stack 21
  6195                           
  6196                           ; BSR set to: 1
  6197                           ;incstack = 0
  6198  000008  CFFA F018          	movff	pclath,??_high_isr
  6199  00000C  CFFB F019          	movff	pclatu,??_high_isr+1
  6200  000010  CFE9 F01A          	movff	fsr0l,??_high_isr+2
  6201  000014  EF8F  F00A         	goto	int_func
  6202                           pclatu	equ	0xFFB
  6203                           pclath	equ	0xFFA
  6204                           tblptru	equ	0xFF8
  6205                           tblptrh	equ	0xFF7
  6206                           tblptrl	equ	0xFF6
  6207                           tablat	equ	0xFF5
  6208                           prodh	equ	0xFF4
  6209                           prodl	equ	0xFF3
  6210                           intcon	equ	0xFF2
  6211                           intcon2	equ	0xFF1
  6212                           intcon3	equ	0xFF0
  6213                           indf0	equ	0xFEF
  6214                           postinc0	equ	0xFEE
  6215                           fsr0h	equ	0xFEA
  6216                           fsr0l	equ	0xFE9
  6217                           wreg	equ	0xFE8
  6218                           fsr1h	equ	0xFE2
  6219                           fsr1l	equ	0xFE1
  6220                           bsr	equ	0xFE0
  6221                           indf2	equ	0xFDF
  6222                           fsr2h	equ	0xFDA
  6223                           fsr2l	equ	0xFD9
  6224                           status	equ	0xFD8
  6225                           
  6226                           	psect	intcode_body
  6227  00151E                     __pintcode_body:
  6228                           	opt stack 21
  6229  00151E                     int_func:
  6230                           	opt stack 21
  6231  00151E  CFEA F01B          	movff	fsr0h,??_high_isr+3
  6232  001522  CFE1 F01C          	movff	fsr1l,??_high_isr+4
  6233  001526  CFE2 F01D          	movff	fsr1h,??_high_isr+5
  6234  00152A  CFD9 F01E          	movff	fsr2l,??_high_isr+6
  6235  00152E  CFDA F01F          	movff	fsr2h,??_high_isr+7
  6236  001532  CFF3 F020          	movff	prodl,??_high_isr+8
  6237  001536  CFF4 F021          	movff	prodh,??_high_isr+9
  6238  00153A  CFF6 F022          	movff	tblptrl,??_high_isr+10
  6239  00153E  CFF7 F023          	movff	tblptrh,??_high_isr+11
  6240  001542  CFF8 F024          	movff	tblptru,??_high_isr+12
  6241  001546  CFF5 F025          	movff	tablat,??_high_isr+13
  6242                           
  6243                           ;interruptions.c: 29: subroutine_interruptions(0b1);
  6244  00154A  0E01               	movlw	1
  6245  00154C  ECDB  F009         	call	i2_subroutine_interruptions
  6246  001550  C025  FFF5         	movff	??_high_isr+13,tablat
  6247  001554  C024  FFF8         	movff	??_high_isr+12,tblptru
  6248  001558  C023  FFF7         	movff	??_high_isr+11,tblptrh
  6249  00155C  C022  FFF6         	movff	??_high_isr+10,tblptrl
  6250  001560  C021  FFF4         	movff	??_high_isr+9,prodh
  6251  001564  C020  FFF3         	movff	??_high_isr+8,prodl
  6252  001568  C01F  FFDA         	movff	??_high_isr+7,fsr2h
  6253  00156C  C01E  FFD9         	movff	??_high_isr+6,fsr2l
  6254  001570  C01D  FFE2         	movff	??_high_isr+5,fsr1h
  6255  001574  C01C  FFE1         	movff	??_high_isr+4,fsr1l
  6256  001578  C01B  FFEA         	movff	??_high_isr+3,fsr0h
  6257  00157C  C01A  FFE9         	movff	??_high_isr+2,fsr0l
  6258  001580  C019  FFFB         	movff	??_high_isr+1,pclatu
  6259  001584  C018  FFFA         	movff	??_high_isr,pclath
  6260  001588  0011               	retfie		f
  6261  00158A                     __end_of_high_isr:
  6262                           	opt stack 0
  6263                           pclatu	equ	0xFFB
  6264                           pclath	equ	0xFFA
  6265                           tblptru	equ	0xFF8
  6266                           tblptrh	equ	0xFF7
  6267                           tblptrl	equ	0xFF6
  6268                           tablat	equ	0xFF5
  6269                           prodh	equ	0xFF4
  6270                           prodl	equ	0xFF3
  6271                           intcon	equ	0xFF2
  6272                           intcon2	equ	0xFF1
  6273                           intcon3	equ	0xFF0
  6274                           indf0	equ	0xFEF
  6275                           postinc0	equ	0xFEE
  6276                           fsr0h	equ	0xFEA
  6277                           fsr0l	equ	0xFE9
  6278                           wreg	equ	0xFE8
  6279                           fsr1h	equ	0xFE2
  6280                           fsr1l	equ	0xFE1
  6281                           bsr	equ	0xFE0
  6282                           indf2	equ	0xFDF
  6283                           fsr2h	equ	0xFDA
  6284                           fsr2l	equ	0xFD9
  6285                           status	equ	0xFD8
  6286                           
  6287 ;; *************** function i2_subroutine_interruptions *****************
  6288 ;; Defined at:
  6289 ;;		line 43 in file "interruptions.c"
  6290 ;; Parameters:    Size  Location     Type
  6291 ;;  priorite        1    wreg     unsigned char 
  6292 ;; Auto vars:     Size  Location     Type
  6293 ;;  priorite        1   22[COMRAM] unsigned char 
  6294 ;; Return value:  Size  Location     Type
  6295 ;;		None               void
  6296 ;; Registers used:
  6297 ;;		wreg, fsr2l, fsr2h, status,2, status,0, prodl, prodh, cstack
  6298 ;; Tracked objects:
  6299 ;;		On entry : 0/0
  6300 ;;		On exit  : 0/0
  6301 ;;		Unchanged: 0/0
  6302 ;; Data sizes:     COMRAM   BANK0   BANK1   BANK2
  6303 ;;      Params:         0       0       0       0
  6304 ;;      Locals:         1       0       0       0
  6305 ;;      Temps:          0       0       0       0
  6306 ;;      Totals:         1       0       0       0
  6307 ;;Total ram usage:        1 bytes
  6308 ;; Hardware stack levels used:    1
  6309 ;; Hardware stack levels required when called:    1
  6310 ;; This function calls:
  6311 ;;		i2_interrupt_RX
  6312 ;;		i2_interrupt_TX
  6313 ;;		i2_interruption_INT0
  6314 ;;		i2_interruption_QEI
  6315 ;;		i2_interruption_timer0
  6316 ;;		i2_interruption_timer1
  6317 ;;		i2_interruption_timer2
  6318 ;;		i2_interuption_QEI_sens
  6319 ;; This function is called by:
  6320 ;;		_high_isr
  6321 ;; This function uses a non-reentrant model
  6322 ;;
  6323                           
  6324                           	psect	text38
  6325  0013B6                     __ptext38:
  6326                           	opt stack 0
  6327  0013B6                     i2_subroutine_interruptions:
  6328                           	opt stack 21
  6329                           
  6330                           ;incstack = 0
  6331                           ;i2subroutine_interruptions@priorite stored from wreg
  6332  0013B6  6E17               	movwf	i2subroutine_interruptions@priorite,c
  6333                           
  6334                           ;interruptions.c: 45: if ( PIR3bits.IC2QEIF == 1 && 0b0 == 1 && priorite == 0b1)
  6335  0013B8  50A4               	movf	4004,w,c	;volatile
  6336  0013BA  D006               	goto	i2l327
  6337  0013BC  0417               	decf	i2subroutine_interruptions@priorite,w,c
  6338  0013BE  A4D8               	btfss	status,2,c
  6339  0013C0  D003               	goto	i2l327
  6340                           
  6341                           ;interruptions.c: 46: {
  6342                           ;interruptions.c: 47: interruption_QEI();
  6343  0013C2  ECA0  F00C         	call	i2_interruption_QEI	;wreg free
  6344                           
  6345                           ;interruptions.c: 48: }
  6346  0013C6  D038               	goto	i2l342
  6347  0013C8                     i2l327:
  6348                           
  6349                           ;interruptions.c: 49: else if ( PIR3bits.IC3DRIF == 1 && 0b0 == 1 && priorite == 0b1)
  6350  0013C8  50A4               	movf	4004,w,c	;volatile
  6351  0013CA  D006               	goto	i2l329
  6352  0013CC  0417               	decf	i2subroutine_interruptions@priorite,w,c
  6353  0013CE  A4D8               	btfss	status,2,c
  6354  0013D0  D003               	goto	i2l329
  6355                           
  6356                           ;interruptions.c: 50: {
  6357                           ;interruptions.c: 51: interuption_QEI_sens();
  6358  0013D2  ECBE  F00C         	call	i2_interuption_QEI_sens	;wreg free
  6359                           
  6360                           ;interruptions.c: 52: }
  6361  0013D6  D030               	goto	i2l342
  6362  0013D8                     i2l329:
  6363                           
  6364                           ;interruptions.c: 53: else if ( INTCONbits.TMR0IF == 1 && 0b0 == 1 && priorite == 0b1)
  6365  0013D8  50F2               	movf	intcon,w,c	;volatile
  6366  0013DA  D006               	goto	i2l331
  6367  0013DC  0417               	decf	i2subroutine_interruptions@priorite,w,c
  6368  0013DE  A4D8               	btfss	status,2,c
  6369  0013E0  D003               	goto	i2l331
  6370                           
  6371                           ;interruptions.c: 54: {
  6372                           ;interruptions.c: 55: interruption_timer0();
  6373  0013E2  ECB4  F00C         	call	i2_interruption_timer0	;wreg free
  6374                           
  6375                           ;interruptions.c: 56: }
  6376  0013E6  D028               	goto	i2l342
  6377  0013E8                     i2l331:
  6378                           
  6379                           ;interruptions.c: 57: else if ( PIR1bits.TMR1IF == 1 && 0b1 == 1 && priorite == 0b1)
  6380  0013E8  A09E               	btfss	3998,0,c	;volatile
  6381  0013EA  D006               	goto	i2l333
  6382  0013EC  0417               	decf	i2subroutine_interruptions@priorite,w,c
  6383  0013EE  A4D8               	btfss	status,2,c
  6384  0013F0  D003               	goto	i2l333
  6385                           
  6386                           ;interruptions.c: 58: {
  6387                           ;interruptions.c: 59: interruption_timer1();
  6388  0013F2  EC3B  F00B         	call	i2_interruption_timer1	;wreg free
  6389                           
  6390                           ;interruptions.c: 60: }
  6391  0013F6  D020               	goto	i2l342
  6392  0013F8                     i2l333:
  6393                           
  6394                           ;interruptions.c: 61: else if ( PIR1bits.TMR2IF == 1 && 0b0 == 1 && priorite == 0b0)
  6395  0013F8  509E               	movf	3998,w,c	;volatile
  6396  0013FA  D006               	goto	i2l335
  6397  0013FC  5017               	movf	i2subroutine_interruptions@priorite,w,c
  6398  0013FE  A4D8               	btfss	status,2,c
  6399  001400  D003               	goto	i2l335
  6400                           
  6401                           ;interruptions.c: 62: {
  6402                           ;interruptions.c: 63: interruption_timer2();
  6403  001402  ECC0  F00C         	call	i2_interruption_timer2	;wreg free
  6404                           
  6405                           ;interruptions.c: 64: }
  6406  001406  D018               	goto	i2l342
  6407  001408                     i2l335:
  6408                           
  6409                           ;interruptions.c: 65: else if (INTCONbits.INT0IF == 1 && 0b1 == 1 && priorite == 0b1)
  6410  001408  A2F2               	btfss	intcon,1,c	;volatile
  6411  00140A  D006               	goto	i2l337
  6412  00140C  0417               	decf	i2subroutine_interruptions@priorite,w,c
  6413  00140E  A4D8               	btfss	status,2,c
  6414  001410  D003               	goto	i2l337
  6415                           
  6416                           ;interruptions.c: 66: {
  6417                           ;interruptions.c: 67: interruption_INT0();
  6418  001412  EC42  F00C         	call	i2_interruption_INT0	;wreg free
  6419                           
  6420                           ;interruptions.c: 68: }
  6421  001416  D010               	goto	i2l342
  6422  001418                     i2l337:
  6423                           
  6424                           ;interruptions.c: 85: else if ( PIR1bits.RCIF == 1 && 0b1 == 1 && priorite == 0b1)
  6425  001418  AA9E               	btfss	3998,5,c	;volatile
  6426  00141A  D006               	goto	i2l339
  6427  00141C  0417               	decf	i2subroutine_interruptions@priorite,w,c
  6428  00141E  A4D8               	btfss	status,2,c
  6429  001420  D003               	goto	i2l339
  6430                           
  6431                           ;interruptions.c: 86: {
  6432                           ;interruptions.c: 87: interrupt_RX();
  6433  001422  EC7C  F00B         	call	i2_interrupt_RX	;wreg free
  6434                           
  6435                           ;interruptions.c: 88: }
  6436  001426  D008               	goto	i2l342
  6437  001428                     i2l339:
  6438                           
  6439                           ;interruptions.c: 89: else if (PIR1bits.TXIF == 1 && 0b0 == 1 && priorite == 0b0)
  6440  001428  509E               	movf	3998,w,c	;volatile
  6441  00142A  D006               	goto	i2l342
  6442  00142C  5017               	movf	i2subroutine_interruptions@priorite,w,c
  6443  00142E  A4D8               	btfss	status,2,c
  6444  001430  D003               	goto	i2l342
  6445                           
  6446                           ;interruptions.c: 90: {
  6447                           ;interruptions.c: 91: interrupt_TX();
  6448  001432  ECC2  F00C         	call	i2_interrupt_TX	;wreg free
  6449  001436  D000               	goto	i2l342
  6450  001438                     i2l342:
  6451  001438  0012               	return		;funcret
  6452  00143A                     __end_ofi2_subroutine_interruptions:
  6453                           	opt stack 0
  6454                           pclatu	equ	0xFFB
  6455                           pclath	equ	0xFFA
  6456                           tblptru	equ	0xFF8
  6457                           tblptrh	equ	0xFF7
  6458                           tblptrl	equ	0xFF6
  6459                           tablat	equ	0xFF5
  6460                           prodh	equ	0xFF4
  6461                           prodl	equ	0xFF3
  6462                           intcon	equ	0xFF2
  6463                           intcon2	equ	0xFF1
  6464                           intcon3	equ	0xFF0
  6465                           indf0	equ	0xFEF
  6466                           postinc0	equ	0xFEE
  6467                           fsr0h	equ	0xFEA
  6468                           fsr0l	equ	0xFE9
  6469                           wreg	equ	0xFE8
  6470                           fsr1h	equ	0xFE2
  6471                           fsr1l	equ	0xFE1
  6472                           bsr	equ	0xFE0
  6473                           indf2	equ	0xFDF
  6474                           fsr2h	equ	0xFDA
  6475                           fsr2l	equ	0xFD9
  6476                           status	equ	0xFD8
  6477                           
  6478 ;; *************** function i2_interuption_QEI_sens *****************
  6479 ;; Defined at:
  6480 ;;		line 186 in file "interruptions.c"
  6481 ;; Parameters:    Size  Location     Type
  6482 ;;		None
  6483 ;; Auto vars:     Size  Location     Type
  6484 ;;		None
  6485 ;; Return value:  Size  Location     Type
  6486 ;;		None               void
  6487 ;; Registers used:
  6488 ;;		None
  6489 ;; Tracked objects:
  6490 ;;		On entry : 0/0
  6491 ;;		On exit  : 0/0
  6492 ;;		Unchanged: 0/0
  6493 ;; Data sizes:     COMRAM   BANK0   BANK1   BANK2
  6494 ;;      Params:         0       0       0       0
  6495 ;;      Locals:         0       0       0       0
  6496 ;;      Temps:          0       0       0       0
  6497 ;;      Totals:         0       0       0       0
  6498 ;;Total ram usage:        0 bytes
  6499 ;; Hardware stack levels used:    1
  6500 ;; This function calls:
  6501 ;;		Nothing
  6502 ;; This function is called by:
  6503 ;;		i2_subroutine_interruptions
  6504 ;; This function uses a non-reentrant model
  6505 ;;
  6506                           
  6507                           	psect	text39
  6508  00197C                     __ptext39:
  6509                           	opt stack 0
  6510  00197C                     i2_interuption_QEI_sens:
  6511                           	opt stack 21
  6512                           
  6513                           ;interruptions.c: 188: PIR3bits.IC3DRIF = 0;
  6514                           
  6515                           ;incstack = 0
  6516  00197C  96A4               	bcf	4004,3,c	;volatile
  6517  00197E  0012               	return		;funcret
  6518  001980                     __end_ofi2_interuption_QEI_sens:
  6519                           	opt stack 0
  6520                           pclatu	equ	0xFFB
  6521                           pclath	equ	0xFFA
  6522                           tblptru	equ	0xFF8
  6523                           tblptrh	equ	0xFF7
  6524                           tblptrl	equ	0xFF6
  6525                           tablat	equ	0xFF5
  6526                           prodh	equ	0xFF4
  6527                           prodl	equ	0xFF3
  6528                           intcon	equ	0xFF2
  6529                           intcon2	equ	0xFF1
  6530                           intcon3	equ	0xFF0
  6531                           indf0	equ	0xFEF
  6532                           postinc0	equ	0xFEE
  6533                           fsr0h	equ	0xFEA
  6534                           fsr0l	equ	0xFE9
  6535                           wreg	equ	0xFE8
  6536                           fsr1h	equ	0xFE2
  6537                           fsr1l	equ	0xFE1
  6538                           bsr	equ	0xFE0
  6539                           indf2	equ	0xFDF
  6540                           fsr2h	equ	0xFDA
  6541                           fsr2l	equ	0xFD9
  6542                           status	equ	0xFD8
  6543                           
  6544 ;; *************** function i2_interruption_timer2 *****************
  6545 ;; Defined at:
  6546 ;;		line 129 in file "interruptions.c"
  6547 ;; Parameters:    Size  Location     Type
  6548 ;;		None
  6549 ;; Auto vars:     Size  Location     Type
  6550 ;;		None
  6551 ;; Return value:  Size  Location     Type
  6552 ;;		None               void
  6553 ;; Registers used:
  6554 ;;		None
  6555 ;; Tracked objects:
  6556 ;;		On entry : 0/0
  6557 ;;		On exit  : 0/0
  6558 ;;		Unchanged: 0/0
  6559 ;; Data sizes:     COMRAM   BANK0   BANK1   BANK2
  6560 ;;      Params:         0       0       0       0
  6561 ;;      Locals:         0       0       0       0
  6562 ;;      Temps:          0       0       0       0
  6563 ;;      Totals:         0       0       0       0
  6564 ;;Total ram usage:        0 bytes
  6565 ;; Hardware stack levels used:    1
  6566 ;; This function calls:
  6567 ;;		Nothing
  6568 ;; This function is called by:
  6569 ;;		i2_subroutine_interruptions
  6570 ;; This function uses a non-reentrant model
  6571 ;;
  6572                           
  6573                           	psect	text40
  6574  001980                     __ptext40:
  6575                           	opt stack 0
  6576  001980                     i2_interruption_timer2:
  6577                           	opt stack 21
  6578                           
  6579                           ;interruptions.c: 131: PIR1bits.TMR2IF = 0;
  6580                           
  6581                           ;incstack = 0
  6582  001980  929E               	bcf	3998,1,c	;volatile
  6583  001982  0012               	return		;funcret
  6584  001984                     __end_ofi2_interruption_timer2:
  6585                           	opt stack 0
  6586                           pclatu	equ	0xFFB
  6587                           pclath	equ	0xFFA
  6588                           tblptru	equ	0xFF8
  6589                           tblptrh	equ	0xFF7
  6590                           tblptrl	equ	0xFF6
  6591                           tablat	equ	0xFF5
  6592                           prodh	equ	0xFF4
  6593                           prodl	equ	0xFF3
  6594                           intcon	equ	0xFF2
  6595                           intcon2	equ	0xFF1
  6596                           intcon3	equ	0xFF0
  6597                           indf0	equ	0xFEF
  6598                           postinc0	equ	0xFEE
  6599                           fsr0h	equ	0xFEA
  6600                           fsr0l	equ	0xFE9
  6601                           wreg	equ	0xFE8
  6602                           fsr1h	equ	0xFE2
  6603                           fsr1l	equ	0xFE1
  6604                           bsr	equ	0xFE0
  6605                           indf2	equ	0xFDF
  6606                           fsr2h	equ	0xFDA
  6607                           fsr2l	equ	0xFD9
  6608                           status	equ	0xFD8
  6609                           
  6610 ;; *************** function i2_interruption_timer1 *****************
  6611 ;; Defined at:
  6612 ;;		line 112 in file "interruptions.c"
  6613 ;; Parameters:    Size  Location     Type
  6614 ;;		None
  6615 ;; Auto vars:     Size  Location     Type
  6616 ;;		None
  6617 ;; Return value:  Size  Location     Type
  6618 ;;		None               void
  6619 ;; Registers used:
  6620 ;;		wreg, fsr2l, fsr2h, status,2, status,0, prodl, prodh
  6621 ;; Tracked objects:
  6622 ;;		On entry : 0/0
  6623 ;;		On exit  : 0/0
  6624 ;;		Unchanged: 0/0
  6625 ;; Data sizes:     COMRAM   BANK0   BANK1   BANK2
  6626 ;;      Params:         0       0       0       0
  6627 ;;      Locals:         0       0       0       0
  6628 ;;      Temps:          1       0       0       0
  6629 ;;      Totals:         1       0       0       0
  6630 ;;Total ram usage:        1 bytes
  6631 ;; Hardware stack levels used:    1
  6632 ;; This function calls:
  6633 ;;		Nothing
  6634 ;; This function is called by:
  6635 ;;		i2_subroutine_interruptions
  6636 ;; This function uses a non-reentrant model
  6637 ;;
  6638                           
  6639                           	psect	text41
  6640  001676                     __ptext41:
  6641                           	opt stack 0
  6642  001676                     i2_interruption_timer1:
  6643                           	opt stack 21
  6644                           
  6645                           ;interruptions.c: 114: PIR1bits.TMR1IF = 0;
  6646                           
  6647                           ;incstack = 0
  6648  001676  909E               	bcf	3998,0,c	;volatile
  6649                           
  6650                           ;interruptions.c: 115: TMR1 = 65535 - 810;
  6651  001678  0EFC               	movlw	252
  6652  00167A  6ECF               	movwf	4047,c	;volatile
  6653  00167C  0ED5               	movlw	213
  6654  00167E  6ECE               	movwf	4046,c	;volatile
  6655                           
  6656                           ;interruptions.c: 117: if (uart_logiciel.transmission_en_cours == 1)
  6657  001680  0444               	decf	_uart_logiciel+11,w,c
  6658  001682  A4D8               	btfss	status,2,c
  6659  001684  D018               	goto	i2l348
  6660                           
  6661                           ;interruptions.c: 118: {
  6662                           ;interruptions.c: 119: PORTCbits.RC5 = uart_logiciel.buffer_uart[uart_logiciel.indice];
  6663  001686  5045               	movf	_uart_logiciel+12,w,c
  6664  001688  0D01               	mullw	1
  6665  00168A  0E39               	movlw	low _uart_logiciel
  6666  00168C  24F3               	addwf	prodl,w,c
  6667  00168E  6ED9               	movwf	fsr2l,c
  6668  001690  0E00               	movlw	high _uart_logiciel
  6669  001692  20F4               	addwfc	prodh,w,c
  6670  001694  6EDA               	movwf	fsr2h,c
  6671  001696  50DF               	movf	indf2,w,c
  6672  001698  6E15               	movwf	??i2_interruption_timer1& (0+255),c
  6673  00169A  3A15               	swapf	??i2_interruption_timer1,f,c
  6674  00169C  4615               	rlncf	??i2_interruption_timer1,f,c
  6675  00169E  5082               	movf	3970,w,c	;volatile
  6676  0016A0  1815               	xorwf	??i2_interruption_timer1,w,c
  6677  0016A2  0BDF               	andlw	-33
  6678  0016A4  1815               	xorwf	??i2_interruption_timer1,w,c
  6679  0016A6  6E82               	movwf	3970,c	;volatile
  6680                           
  6681                           ;interruptions.c: 120: uart_logiciel.indice++;
  6682  0016A8  2A45               	incf	_uart_logiciel+12,f,c
  6683                           
  6684                           ;interruptions.c: 122: if (uart_logiciel.indice > 10)
  6685  0016AA  0E0A               	movlw	10
  6686  0016AC  6445               	cpfsgt	_uart_logiciel+12,c
  6687  0016AE  D005               	goto	i2l351
  6688                           
  6689                           ;interruptions.c: 123: uart_logiciel.transmission_en_cours = 0;
  6690  0016B0  0E00               	movlw	0
  6691  0016B2  6E44               	movwf	_uart_logiciel+11,c
  6692                           
  6693                           ;interruptions.c: 124: }
  6694  0016B4  D002               	goto	i2l351
  6695  0016B6                     i2l348:
  6696                           
  6697                           ;interruptions.c: 125: else
  6698                           ;interruptions.c: 126: PORTCbits.RC5 = 1;
  6699  0016B6  8A82               	bsf	3970,5,c	;volatile
  6700  0016B8  D000               	goto	i2l351
  6701  0016BA                     i2l351:
  6702  0016BA  0012               	return		;funcret
  6703  0016BC                     __end_ofi2_interruption_timer1:
  6704                           	opt stack 0
  6705                           pclatu	equ	0xFFB
  6706                           pclath	equ	0xFFA
  6707                           tblptru	equ	0xFF8
  6708                           tblptrh	equ	0xFF7
  6709                           tblptrl	equ	0xFF6
  6710                           tablat	equ	0xFF5
  6711                           prodh	equ	0xFF4
  6712                           prodl	equ	0xFF3
  6713                           intcon	equ	0xFF2
  6714                           intcon2	equ	0xFF1
  6715                           intcon3	equ	0xFF0
  6716                           indf0	equ	0xFEF
  6717                           postinc0	equ	0xFEE
  6718                           fsr0h	equ	0xFEA
  6719                           fsr0l	equ	0xFE9
  6720                           wreg	equ	0xFE8
  6721                           fsr1h	equ	0xFE2
  6722                           fsr1l	equ	0xFE1
  6723                           bsr	equ	0xFE0
  6724                           indf2	equ	0xFDF
  6725                           fsr2h	equ	0xFDA
  6726                           fsr2l	equ	0xFD9
  6727                           status	equ	0xFD8
  6728                           
  6729 ;; *************** function i2_interruption_timer0 *****************
  6730 ;; Defined at:
  6731 ;;		line 104 in file "interruptions.c"
  6732 ;; Parameters:    Size  Location     Type
  6733 ;;		None
  6734 ;; Auto vars:     Size  Location     Type
  6735 ;;		None
  6736 ;; Return value:  Size  Location     Type
  6737 ;;		None               void
  6738 ;; Registers used:
  6739 ;;		wreg, status,2
  6740 ;; Tracked objects:
  6741 ;;		On entry : 0/0
  6742 ;;		On exit  : 0/0
  6743 ;;		Unchanged: 0/0
  6744 ;; Data sizes:     COMRAM   BANK0   BANK1   BANK2
  6745 ;;      Params:         0       0       0       0
  6746 ;;      Locals:         0       0       0       0
  6747 ;;      Temps:          0       0       0       0
  6748 ;;      Totals:         0       0       0       0
  6749 ;;Total ram usage:        0 bytes
  6750 ;; Hardware stack levels used:    1
  6751 ;; This function calls:
  6752 ;;		Nothing
  6753 ;; This function is called by:
  6754 ;;		i2_subroutine_interruptions
  6755 ;; This function uses a non-reentrant model
  6756 ;;
  6757                           
  6758                           	psect	text42
  6759  001968                     __ptext42:
  6760                           	opt stack 0
  6761  001968                     i2_interruption_timer0:
  6762                           	opt stack 21
  6763                           
  6764                           ;interruptions.c: 106: INTCONbits.TMR0IF = 0;
  6765                           
  6766                           ;incstack = 0
  6767  001968  94F2               	bcf	intcon,2,c	;volatile
  6768                           
  6769                           ;interruptions.c: 107: TMR0L = 131;
  6770  00196A  0E83               	movlw	131
  6771  00196C  6ED6               	movwf	4054,c	;volatile
  6772  00196E  0012               	return		;funcret
  6773  001970                     __end_ofi2_interruption_timer0:
  6774                           	opt stack 0
  6775                           pclatu	equ	0xFFB
  6776                           pclath	equ	0xFFA
  6777                           tblptru	equ	0xFF8
  6778                           tblptrh	equ	0xFF7
  6779                           tblptrl	equ	0xFF6
  6780                           tablat	equ	0xFF5
  6781                           prodh	equ	0xFF4
  6782                           prodl	equ	0xFF3
  6783                           intcon	equ	0xFF2
  6784                           intcon2	equ	0xFF1
  6785                           intcon3	equ	0xFF0
  6786                           indf0	equ	0xFEF
  6787                           postinc0	equ	0xFEE
  6788                           fsr0h	equ	0xFEA
  6789                           fsr0l	equ	0xFE9
  6790                           wreg	equ	0xFE8
  6791                           fsr1h	equ	0xFE2
  6792                           fsr1l	equ	0xFE1
  6793                           bsr	equ	0xFE0
  6794                           indf2	equ	0xFDF
  6795                           fsr2h	equ	0xFDA
  6796                           fsr2l	equ	0xFD9
  6797                           status	equ	0xFD8
  6798                           
  6799 ;; *************** function i2_interruption_QEI *****************
  6800 ;; Defined at:
  6801 ;;		line 170 in file "interruptions.c"
  6802 ;; Parameters:    Size  Location     Type
  6803 ;;		None
  6804 ;; Auto vars:     Size  Location     Type
  6805 ;;		None
  6806 ;; Return value:  Size  Location     Type
  6807 ;;		None               void
  6808 ;; Registers used:
  6809 ;;		status,2, status,0
  6810 ;; Tracked objects:
  6811 ;;		On entry : 0/0
  6812 ;;		On exit  : 0/0
  6813 ;;		Unchanged: 0/0
  6814 ;; Data sizes:     COMRAM   BANK0   BANK1   BANK2
  6815 ;;      Params:         0       0       0       0
  6816 ;;      Locals:         0       0       0       0
  6817 ;;      Temps:          0       0       0       0
  6818 ;;      Totals:         0       0       0       0
  6819 ;;Total ram usage:        0 bytes
  6820 ;; Hardware stack levels used:    1
  6821 ;; This function calls:
  6822 ;;		Nothing
  6823 ;; This function is called by:
  6824 ;;		i2_subroutine_interruptions
  6825 ;; This function uses a non-reentrant model
  6826 ;;
  6827                           
  6828                           	psect	text43
  6829  001940                     __ptext43:
  6830                           	opt stack 0
  6831  001940                     i2_interruption_QEI:
  6832                           	opt stack 21
  6833                           
  6834                           ;interruptions.c: 172: PIR3bits.IC2QEIF = 0;
  6835                           
  6836                           ;incstack = 0
  6837  001940  94A4               	bcf	4004,2,c	;volatile
  6838                           
  6839                           ;interruptions.c: 173: QEICONbits.QERR = 0;
  6840  001942  9CB6               	bcf	4022,6,c	;volatile
  6841                           
  6842                           ;interruptions.c: 175: if (QEICONbits.UPDOWN == 1)
  6843  001944  AAB6               	btfss	4022,5,c	;volatile
  6844  001946  D002               	goto	i2l2324
  6845                           
  6846                           ;interruptions.c: 176: {
  6847                           ;interruptions.c: 177: OVERFLOW_CODEUR++;
  6848  001948  2A38               	incf	_OVERFLOW_CODEUR,f,c
  6849                           
  6850                           ;interruptions.c: 178: }
  6851  00194A  D002               	goto	i2l372
  6852  00194C                     i2l2324:
  6853                           
  6854                           ;interruptions.c: 179: else
  6855                           ;interruptions.c: 180: {
  6856                           ;interruptions.c: 181: OVERFLOW_CODEUR--;
  6857  00194C  0638               	decf	_OVERFLOW_CODEUR,f,c
  6858  00194E  D000               	goto	i2l372
  6859  001950                     i2l372:
  6860  001950  0012               	return		;funcret
  6861  001952                     __end_ofi2_interruption_QEI:
  6862                           	opt stack 0
  6863                           pclatu	equ	0xFFB
  6864                           pclath	equ	0xFFA
  6865                           tblptru	equ	0xFF8
  6866                           tblptrh	equ	0xFF7
  6867                           tblptrl	equ	0xFF6
  6868                           tablat	equ	0xFF5
  6869                           prodh	equ	0xFF4
  6870                           prodl	equ	0xFF3
  6871                           intcon	equ	0xFF2
  6872                           intcon2	equ	0xFF1
  6873                           intcon3	equ	0xFF0
  6874                           indf0	equ	0xFEF
  6875                           postinc0	equ	0xFEE
  6876                           fsr0h	equ	0xFEA
  6877                           fsr0l	equ	0xFE9
  6878                           wreg	equ	0xFE8
  6879                           fsr1h	equ	0xFE2
  6880                           fsr1l	equ	0xFE1
  6881                           bsr	equ	0xFE0
  6882                           indf2	equ	0xFDF
  6883                           fsr2h	equ	0xFDA
  6884                           fsr2l	equ	0xFD9
  6885                           status	equ	0xFD8
  6886                           
  6887 ;; *************** function i2_interruption_INT0 *****************
  6888 ;; Defined at:
  6889 ;;		line 141 in file "interruptions.c"
  6890 ;; Parameters:    Size  Location     Type
  6891 ;;		None
  6892 ;; Auto vars:     Size  Location     Type
  6893 ;;		None
  6894 ;; Return value:  Size  Location     Type
  6895 ;;		None               void
  6896 ;; Registers used:
  6897 ;;		wreg, status,2, status,0
  6898 ;; Tracked objects:
  6899 ;;		On entry : 0/0
  6900 ;;		On exit  : 0/0
  6901 ;;		Unchanged: 0/0
  6902 ;; Data sizes:     COMRAM   BANK0   BANK1   BANK2
  6903 ;;      Params:         0       0       0       0
  6904 ;;      Locals:         0       0       0       0
  6905 ;;      Temps:          2       0       0       0
  6906 ;;      Totals:         2       0       0       0
  6907 ;;Total ram usage:        2 bytes
  6908 ;; Hardware stack levels used:    1
  6909 ;; This function calls:
  6910 ;;		Nothing
  6911 ;; This function is called by:
  6912 ;;		i2_subroutine_interruptions
  6913 ;; This function uses a non-reentrant model
  6914 ;;
  6915                           
  6916                           	psect	text44
  6917  001884                     __ptext44:
  6918                           	opt stack 0
  6919  001884                     i2_interruption_INT0:
  6920                           	opt stack 21
  6921                           
  6922                           ;interruptions.c: 143: if (flag_cpateur == 0)
  6923                           
  6924                           ;incstack = 0
  6925  001884  0100               	movlb	0	; () banked
  6926  001886  51A7               	movf	_flag_cpateur& (0+255),w,b
  6927  001888  A4D8               	btfss	status,2,c
  6928  00188A  D00F               	goto	i2l2318
  6929                           
  6930                           ; BSR set to: 0
  6931                           ;interruptions.c: 144: {
  6932                           ;interruptions.c: 146: flag_cpateur = 1;
  6933  00188C  0E01               	movlw	1
  6934  00188E  0100               	movlb	0	; () banked
  6935  001890  6FA7               	movwf	_flag_cpateur& (0+255),b
  6936                           
  6937                           ; BSR set to: 0
  6938                           ;interruptions.c: 148: position.nouvelle = POSCNTH * 256 + POSCNTL;
  6939  001892  5067               	movf	3943,w,c	;volatile
  6940  001894  6E16               	movwf	(??i2_interruption_INT0+1)& (0+255),c
  6941  001896  6A15               	clrf	??i2_interruption_INT0& (0+255),c
  6942  001898  5066               	movf	3942,w,c	;volatile
  6943  00189A  2415               	addwf	??i2_interruption_INT0,w,c
  6944  00189C  0100               	movlb	0	; () banked
  6945  00189E  6F91               	movwf	(_position+2)& (0+255),b
  6946  0018A0  0E00               	movlw	0
  6947  0018A2  2016               	addwfc	??i2_interruption_INT0+1,w,c
  6948  0018A4  0100               	movlb	0	; () banked
  6949  0018A6  6F92               	movwf	(_position+3)& (0+255),b
  6950  0018A8  D000               	goto	i2l2318
  6951  0018AA                     i2l2318:
  6952                           
  6953                           ; BSR set to: 0
  6954                           ;interruptions.c: 153: }
  6955                           ;interruptions.c: 154: INTCONbits.INT0IF = 0;
  6956  0018AA  92F2               	bcf	intcon,1,c	;volatile
  6957                           
  6958                           ; BSR set to: 0
  6959  0018AC  0012               	return		;funcret
  6960  0018AE                     __end_ofi2_interruption_INT0:
  6961                           	opt stack 0
  6962                           pclatu	equ	0xFFB
  6963                           pclath	equ	0xFFA
  6964                           tblptru	equ	0xFF8
  6965                           tblptrh	equ	0xFF7
  6966                           tblptrl	equ	0xFF6
  6967                           tablat	equ	0xFF5
  6968                           prodh	equ	0xFF4
  6969                           prodl	equ	0xFF3
  6970                           intcon	equ	0xFF2
  6971                           intcon2	equ	0xFF1
  6972                           intcon3	equ	0xFF0
  6973                           indf0	equ	0xFEF
  6974                           postinc0	equ	0xFEE
  6975                           fsr0h	equ	0xFEA
  6976                           fsr0l	equ	0xFE9
  6977                           wreg	equ	0xFE8
  6978                           fsr1h	equ	0xFE2
  6979                           fsr1l	equ	0xFE1
  6980                           bsr	equ	0xFE0
  6981                           indf2	equ	0xFDF
  6982                           fsr2h	equ	0xFDA
  6983                           fsr2l	equ	0xFD9
  6984                           status	equ	0xFD8
  6985                           
  6986 ;; *************** function i2_interrupt_TX *****************
  6987 ;; Defined at:
  6988 ;;		line 219 in file "interruptions.c"
  6989 ;; Parameters:    Size  Location     Type
  6990 ;;		None
  6991 ;; Auto vars:     Size  Location     Type
  6992 ;;		None
  6993 ;; Return value:  Size  Location     Type
  6994 ;;		None               void
  6995 ;; Registers used:
  6996 ;;		None
  6997 ;; Tracked objects:
  6998 ;;		On entry : 0/0
  6999 ;;		On exit  : 0/0
  7000 ;;		Unchanged: 0/0
  7001 ;; Data sizes:     COMRAM   BANK0   BANK1   BANK2
  7002 ;;      Params:         0       0       0       0
  7003 ;;      Locals:         0       0       0       0
  7004 ;;      Temps:          0       0       0       0
  7005 ;;      Totals:         0       0       0       0
  7006 ;;Total ram usage:        0 bytes
  7007 ;; Hardware stack levels used:    1
  7008 ;; This function calls:
  7009 ;;		Nothing
  7010 ;; This function is called by:
  7011 ;;		i2_subroutine_interruptions
  7012 ;; This function uses a non-reentrant model
  7013 ;;
  7014                           
  7015                           	psect	text45
  7016  001984                     __ptext45:
  7017                           	opt stack 0
  7018  001984                     i2_interrupt_TX:
  7019                           	opt stack 21
  7020                           
  7021                           ;interruptions.c: 221: PIR1bits.TXIF = 0;
  7022                           
  7023                           ; BSR set to: 0
  7024                           ;incstack = 0
  7025  001984  989E               	bcf	3998,4,c	;volatile
  7026  001986  0012               	return		;funcret
  7027  001988                     __end_ofi2_interrupt_TX:
  7028                           	opt stack 0
  7029                           pclatu	equ	0xFFB
  7030                           pclath	equ	0xFFA
  7031                           tblptru	equ	0xFF8
  7032                           tblptrh	equ	0xFF7
  7033                           tblptrl	equ	0xFF6
  7034                           tablat	equ	0xFF5
  7035                           prodh	equ	0xFF4
  7036                           prodl	equ	0xFF3
  7037                           intcon	equ	0xFF2
  7038                           intcon2	equ	0xFF1
  7039                           intcon3	equ	0xFF0
  7040                           indf0	equ	0xFEF
  7041                           postinc0	equ	0xFEE
  7042                           fsr0h	equ	0xFEA
  7043                           fsr0l	equ	0xFE9
  7044                           wreg	equ	0xFE8
  7045                           fsr1h	equ	0xFE2
  7046                           fsr1l	equ	0xFE1
  7047                           bsr	equ	0xFE0
  7048                           indf2	equ	0xFDF
  7049                           fsr2h	equ	0xFDA
  7050                           fsr2l	equ	0xFD9
  7051                           status	equ	0xFD8
  7052                           
  7053 ;; *************** function i2_interrupt_RX *****************
  7054 ;; Defined at:
  7055 ;;		line 200 in file "interruptions.c"
  7056 ;; Parameters:    Size  Location     Type
  7057 ;;		None
  7058 ;; Auto vars:     Size  Location     Type
  7059 ;;  interrupt_RX    1   20[COMRAM] unsigned char 
  7060 ;; Return value:  Size  Location     Type
  7061 ;;		None               void
  7062 ;; Registers used:
  7063 ;;		wreg, fsr2l, fsr2h, status,2, status,0, prodl, prodh
  7064 ;; Tracked objects:
  7065 ;;		On entry : 0/0
  7066 ;;		On exit  : 0/0
  7067 ;;		Unchanged: 0/0
  7068 ;; Data sizes:     COMRAM   BANK0   BANK1   BANK2
  7069 ;;      Params:         0       0       0       0
  7070 ;;      Locals:         1       0       0       0
  7071 ;;      Temps:          0       0       0       0
  7072 ;;      Totals:         1       0       0       0
  7073 ;;Total ram usage:        1 bytes
  7074 ;; Hardware stack levels used:    1
  7075 ;; This function calls:
  7076 ;;		Nothing
  7077 ;; This function is called by:
  7078 ;;		i2_subroutine_interruptions
  7079 ;; This function uses a non-reentrant model
  7080 ;;
  7081                           
  7082                           	psect	text46
  7083  0016F8                     __ptext46:
  7084                           	opt stack 0
  7085  0016F8                     i2_interrupt_RX:
  7086                           	opt stack 21
  7087                           
  7088                           ;interruptions.c: 202: PIR1bits.RCIF = 0;
  7089                           
  7090                           ;incstack = 0
  7091  0016F8  9A9E               	bcf	3998,5,c	;volatile
  7092                           
  7093                           ;interruptions.c: 203: PORTBbits.RB0 = 1;
  7094  0016FA  8081               	bsf	3969,0,c	;volatile
  7095                           
  7096                           ;interruptions.c: 205: if (uart_reception.indice < 100)
  7097  0016FC  0E64               	movlw	100
  7098  0016FE  0101               	movlb	1	; () banked
  7099  001700  6164               	cpfslt	(_uart_reception+100)& (0+255),b
  7100  001702  D011               	goto	i2l2338
  7101                           
  7102                           ; BSR set to: 1
  7103                           ;interruptions.c: 206: {
  7104                           ;interruptions.c: 207: uart_reception.buffer_reeption[uart_reception.indice] = RCREG;
  7105  001704  0101               	movlb	1	; () banked
  7106  001706  5164               	movf	(_uart_reception+100)& (0+255),w,b
  7107  001708  0D01               	mullw	1
  7108  00170A  0E00               	movlw	low _uart_reception
  7109  00170C  24F3               	addwf	prodl,w,c
  7110  00170E  6ED9               	movwf	fsr2l,c
  7111  001710  0E01               	movlw	high _uart_reception
  7112  001712  20F4               	addwfc	prodh,w,c
  7113  001714  6EDA               	movwf	fsr2h,c
  7114  001716  CFAE FFDF          	movff	4014,indf2	;volatile
  7115                           
  7116                           ; BSR set to: 1
  7117                           ;interruptions.c: 208: uart_reception.buffer_vide = 0;
  7118  00171A  0E00               	movlw	0
  7119  00171C  0101               	movlb	1	; () banked
  7120  00171E  6F66               	movwf	(_uart_reception+102)& (0+255),b
  7121                           
  7122                           ; BSR set to: 1
  7123                           ;interruptions.c: 209: uart_reception.indice++;
  7124  001720  0101               	movlb	1	; () banked
  7125  001722  2B64               	incf	(_uart_reception+100)& (0+255),f,b
  7126                           
  7127                           ;interruptions.c: 210: }
  7128  001724  D006               	goto	i2l383
  7129  001726                     i2l2338:
  7130                           
  7131                           ; BSR set to: 1
  7132                           ;interruptions.c: 211: else
  7133                           ;interruptions.c: 212: {
  7134                           ;interruptions.c: 213: uart_reception.buffer_plein = 1;
  7135  001726  0E01               	movlw	1
  7136  001728  0101               	movlb	1	; () banked
  7137  00172A  6F65               	movwf	(_uart_reception+101)& (0+255),b
  7138                           
  7139                           ; BSR set to: 1
  7140                           ;interruptions.c: 214: uint8_t temp = RCREG;
  7141  00172C  CFAE F015          	movff	4014,i2interrupt_RX@temp	;volatile
  7142  001730  D000               	goto	i2l383
  7143  001732                     i2l383:
  7144                           
  7145                           ; BSR set to: 1
  7146  001732  0012               	return		;funcret
  7147  001734                     __end_ofi2_interrupt_RX:
  7148                           	opt stack 0
  7149                           pclatu	equ	0xFFB
  7150                           pclath	equ	0xFFA
  7151                           tblptru	equ	0xFF8
  7152                           tblptrh	equ	0xFF7
  7153                           tblptrl	equ	0xFF6
  7154                           tablat	equ	0xFF5
  7155                           prodh	equ	0xFF4
  7156                           prodl	equ	0xFF3
  7157                           intcon	equ	0xFF2
  7158                           intcon2	equ	0xFF1
  7159                           intcon3	equ	0xFF0
  7160                           indf0	equ	0xFEF
  7161                           postinc0	equ	0xFEE
  7162                           fsr0h	equ	0xFEA
  7163                           fsr0l	equ	0xFE9
  7164                           wreg	equ	0xFE8
  7165                           fsr1h	equ	0xFE2
  7166                           fsr1l	equ	0xFE1
  7167                           bsr	equ	0xFE0
  7168                           indf2	equ	0xFDF
  7169                           fsr2h	equ	0xFDA
  7170                           fsr2l	equ	0xFD9
  7171                           status	equ	0xFD8
  7172                           pclatu	equ	0xFFB
  7173                           pclath	equ	0xFFA
  7174                           tblptru	equ	0xFF8
  7175                           tblptrh	equ	0xFF7
  7176                           tblptrl	equ	0xFF6
  7177                           tablat	equ	0xFF5
  7178                           prodh	equ	0xFF4
  7179                           prodl	equ	0xFF3
  7180                           intcon	equ	0xFF2
  7181                           intcon2	equ	0xFF1
  7182                           intcon3	equ	0xFF0
  7183                           indf0	equ	0xFEF
  7184                           postinc0	equ	0xFEE
  7185                           fsr0h	equ	0xFEA
  7186                           fsr0l	equ	0xFE9
  7187                           wreg	equ	0xFE8
  7188                           fsr1h	equ	0xFE2
  7189                           fsr1l	equ	0xFE1
  7190                           bsr	equ	0xFE0
  7191                           indf2	equ	0xFDF
  7192                           fsr2h	equ	0xFDA
  7193                           fsr2l	equ	0xFD9
  7194                           status	equ	0xFD8
  7195                           
  7196                           	psect	rparam
  7197  0000                     pclatu	equ	0xFFB
  7198                           pclath	equ	0xFFA
  7199                           tblptru	equ	0xFF8
  7200                           tblptrh	equ	0xFF7
  7201                           tblptrl	equ	0xFF6
  7202                           tablat	equ	0xFF5
  7203                           prodh	equ	0xFF4
  7204                           prodl	equ	0xFF3
  7205                           intcon	equ	0xFF2
  7206                           intcon2	equ	0xFF1
  7207                           intcon3	equ	0xFF0
  7208                           indf0	equ	0xFEF
  7209                           postinc0	equ	0xFEE
  7210                           fsr0h	equ	0xFEA
  7211                           fsr0l	equ	0xFE9
  7212                           wreg	equ	0xFE8
  7213                           fsr1h	equ	0xFE2
  7214                           fsr1l	equ	0xFE1
  7215                           bsr	equ	0xFE0
  7216                           indf2	equ	0xFDF
  7217                           fsr2h	equ	0xFDA
  7218                           fsr2l	equ	0xFD9
  7219                           status	equ	0xFD8


Data Sizes:
    Strings     52
    Constant    0
    Data        0
    BSS         171
    Persistent  0
    Stack       0

Auto Spaces:
    Space          Size  Autos    Used
    COMRAM           95     37      72
    BANK0           160     47      80
    BANK1           256      0     103
    BANK2           256      0       0

Pointer List with Targets:

    sp__IntToC	PTR unsigned char  size(2) Largest target is 8
		 -> IntToC@out(BANK0[8]), 

    PutsUART@chaine	PTR const unsigned char  size(2) Largest target is 24
		 -> IntToC@out(BANK0[8]), STR_4(CODE[20]), STR_3(CODE[8]), STR_2(CODE[3]), 
		 -> STR_1(CODE[24]), 


Critical Paths under _main in COMRAM

    None.

Critical Paths under _high_isr in COMRAM

    _high_isr->i2_subroutine_interruptions
    i2_subroutine_interruptions->i2_interruption_INT0

Critical Paths under _low_isr in COMRAM

    _low_isr->_subroutine_interruptions
    _subroutine_interruptions->_interruption_INT0

Critical Paths under _main in BANK0

    _main->_PutIntUART
    _envoit_pwm->___ftmul
    _conversion_angle->___ftdiv
    ___lwtoft->___ftpack
    ___ftmul->___ftpack
    ___ftdiv->___lwtoft
    _PutIntUART->_PutsUART
    _PutsUART->_IntToC
    _PutcUART->___awdiv
    _IntToC->___awdiv
    ___awdiv->___wmul

Critical Paths under _high_isr in BANK0

    None.

Critical Paths under _low_isr in BANK0

    None.

Critical Paths under _main in BANK1

    None.

Critical Paths under _high_isr in BANK1

    None.

Critical Paths under _low_isr in BANK1

    None.

Critical Paths under _main in BANK2

    None.

Critical Paths under _high_isr in BANK2

    None.

Critical Paths under _low_isr in BANK2

    None.

Call Graph Tables:

 ---------------------------------------------------------------------------------
 (Depth) Function   	        Calls       Base Space   Used Autos Params    Refs
 ---------------------------------------------------------------------------------
 (0) _main                                                 9     4      5   28605
                                             38 BANK0      9     4      5
                         _PutIntUART
                           _PutsUART
                            ___fttol
                   _conversion_angle
                         _envoit_pwm
                        _init_system
 ---------------------------------------------------------------------------------
 (1) _init_system                                          0     0      0       0
                    _ConfigInterrupt
                        _ConfigPorts
                         _config_QEI
                         _config_pwm
                        _config_uart
                       _init_timer_0
                 _init_uart_logiciel
                _init_uart_reception
                        _reglage_PID
 ---------------------------------------------------------------------------------
 (2) _reglage_PID                                          0     0      0       0
 ---------------------------------------------------------------------------------
 (2) _init_uart_reception                                  0     0      0       0
 ---------------------------------------------------------------------------------
 (2) _init_uart_logiciel                                   0     0      0       0
                       _init_timer_1
 ---------------------------------------------------------------------------------
 (3) _init_timer_1                                         0     0      0       0
 ---------------------------------------------------------------------------------
 (2) _init_timer_0                                         0     0      0       0
 ---------------------------------------------------------------------------------
 (2) _config_uart                                          0     0      0       0
 ---------------------------------------------------------------------------------
 (2) _config_pwm                                           0     0      0       0
 ---------------------------------------------------------------------------------
 (2) _config_QEI                                           0     0      0       0
 ---------------------------------------------------------------------------------
 (2) _ConfigPorts                                          0     0      0       0
 ---------------------------------------------------------------------------------
 (2) _ConfigInterrupt                                      0     0      0       0
 ---------------------------------------------------------------------------------
 (1) _envoit_pwm                                           6     3      3    6311
                                             23 BANK0      6     3      3
                             ___ftge
                            ___ftmul
                            ___ftneg
                            ___fttol
 ---------------------------------------------------------------------------------
 (2) ___fttol                                             15    11      4     679
                                              0 BANK0     15    11      4
 ---------------------------------------------------------------------------------
 (2) ___ftneg                                              3     0      3     296
                                              0 BANK0      3     0      3
 ---------------------------------------------------------------------------------
 (2) ___ftge                                               9     3      6     968
                                              0 BANK0      9     3      6
 ---------------------------------------------------------------------------------
 (1) _conversion_angle                                     3     3      0    9828
                                             26 BANK0      3     3      0
                            ___ftdiv
                            ___ftmul
                           ___lwtoft
 ---------------------------------------------------------------------------------
 (2) ___lwtoft                                             3     0      3    2536
                                              8 BANK0      3     0      3
                           ___ftpack
 ---------------------------------------------------------------------------------
 (2) ___ftmul                                             15     9      6    3954
                                              8 BANK0     15     9      6
                           ___ftpack
 ---------------------------------------------------------------------------------
 (2) ___ftdiv                                             15     9      6    3270
                                             11 BANK0     15     9      6
                           ___ftpack
                           ___lwtoft (ARG)
 ---------------------------------------------------------------------------------
 (3) ___ftpack                                             8     3      5    2428
                                              0 BANK0      8     3      5
 ---------------------------------------------------------------------------------
 (1) _PutIntUART                                           3     1      2    8623
                                             35 BANK0      3     1      2
                             _IntToC
                           _PutsUART
                            ___fttol (ARG)
 ---------------------------------------------------------------------------------
 (1) _PutsUART                                             5     3      2    3158
                                             30 BANK0      5     3      2
                             _IntToC (ARG)
                           _PutcUART
 ---------------------------------------------------------------------------------
 (2) _PutcUART                                             8     7      1    2680
                                             14 BANK0      8     7      1
                            ___awdiv
 ---------------------------------------------------------------------------------
 (2) _IntToC                                              16    14      2    5249
                                             14 BANK0     16    14      2
                            ___awdiv
                             ___wmul
 ---------------------------------------------------------------------------------
 (3) ___wmul                                               6     2      4    1926
                                              0 BANK0      6     2      4
 ---------------------------------------------------------------------------------
 (3) ___awdiv                                              8     4      4    2139
                                              6 BANK0      8     4      4
                             ___wmul (ARG)
 ---------------------------------------------------------------------------------
 Estimated maximum stack depth 3
 ---------------------------------------------------------------------------------
 (Depth) Function   	        Calls       Base Space   Used Autos Params    Refs
 ---------------------------------------------------------------------------------
 (5) _low_isr                                             17    17      0     177
                                              3 COMRAM    17    17      0
           _subroutine_interruptions
 ---------------------------------------------------------------------------------
 (6) _subroutine_interruptions                             1     1      0     177
                                              2 COMRAM     1     1      0
                       _interrupt_RX
                       _interrupt_TX
                  _interruption_INT0
                   _interruption_QEI
                _interruption_timer0
                _interruption_timer1
                _interruption_timer2
               _interuption_QEI_sens
 ---------------------------------------------------------------------------------
 (7) _interuption_QEI_sens                                 0     0      0       0
 ---------------------------------------------------------------------------------
 (7) _interruption_timer2                                  0     0      0       0
 ---------------------------------------------------------------------------------
 (7) _interruption_timer1                                  1     1      0       0
                                              0 COMRAM     1     1      0
 ---------------------------------------------------------------------------------
 (7) _interruption_timer0                                  0     0      0       0
 ---------------------------------------------------------------------------------
 (7) _interruption_QEI                                     0     0      0       0
 ---------------------------------------------------------------------------------
 (7) _interruption_INT0                                    2     2      0       0
                                              0 COMRAM     2     2      0
 ---------------------------------------------------------------------------------
 (7) _interrupt_TX                                         0     0      0       0
 ---------------------------------------------------------------------------------
 (7) _interrupt_RX                                         1     1      0       1
                                              0 COMRAM     1     1      0
 ---------------------------------------------------------------------------------
 Estimated maximum stack depth 7
 ---------------------------------------------------------------------------------
 (Depth) Function   	        Calls       Base Space   Used Autos Params    Refs
 ---------------------------------------------------------------------------------
 (8) _high_isr                                            14    14      0     177
                                             23 COMRAM    14    14      0
         i2_subroutine_interruptions
 ---------------------------------------------------------------------------------
 (9) i2_subroutine_interruptions                           1     1      0     177
                                             22 COMRAM     1     1      0
                     i2_interrupt_RX
                     i2_interrupt_TX
                i2_interruption_INT0
                 i2_interruption_QEI
              i2_interruption_timer0
              i2_interruption_timer1
              i2_interruption_timer2
             i2_interuption_QEI_sens
 ---------------------------------------------------------------------------------
 (10) i2_interuption_QEI_sens                              0     0      0       0
 ---------------------------------------------------------------------------------
 (10) i2_interruption_timer2                               0     0      0       0
 ---------------------------------------------------------------------------------
 (10) i2_interruption_timer1                               1     1      0       0
                                             20 COMRAM     1     1      0
 ---------------------------------------------------------------------------------
 (10) i2_interruption_timer0                               0     0      0       0
 ---------------------------------------------------------------------------------
 (10) i2_interruption_QEI                                  0     0      0       0
 ---------------------------------------------------------------------------------
 (10) i2_interruption_INT0                                 2     2      0       0
                                             20 COMRAM     2     2      0
 ---------------------------------------------------------------------------------
 (10) i2_interrupt_TX                                      0     0      0       0
 ---------------------------------------------------------------------------------
 (10) i2_interrupt_RX                                      1     1      0       1
                                             20 COMRAM     1     1      0
 ---------------------------------------------------------------------------------
 Estimated maximum stack depth 10
 ---------------------------------------------------------------------------------

 Call Graph Graphs:

 _main (ROOT)
   _PutIntUART
     _IntToC
       ___awdiv
         ___wmul (ARG)
       ___wmul
     _PutsUART
       _IntToC (ARG)
         ___awdiv
           ___wmul (ARG)
         ___wmul
       _PutcUART (ARG)
         ___awdiv
           ___wmul (ARG)
     ___fttol (ARG)
   _PutsUART
     _IntToC (ARG)
       ___awdiv
         ___wmul (ARG)
       ___wmul
     _PutcUART (ARG)
       ___awdiv
         ___wmul (ARG)
   ___fttol
   _conversion_angle
     ___ftdiv
       ___ftpack
       ___lwtoft (ARG)
         ___ftpack
     ___ftmul
       ___ftpack
     ___lwtoft
       ___ftpack
   _envoit_pwm
     ___ftge
     ___ftmul
       ___ftpack
     ___ftneg
     ___fttol
   _init_system
     _ConfigInterrupt
     _ConfigPorts
     _config_QEI
     _config_pwm
     _config_uart
     _init_timer_0
     _init_uart_logiciel
       _init_timer_1
     _init_uart_reception
     _reglage_PID

 _low_isr (ROOT)
   _subroutine_interruptions
     _interrupt_RX
     _interrupt_TX
     _interruption_INT0
     _interruption_QEI
     _interruption_timer0
     _interruption_timer1
     _interruption_timer2
     _interuption_QEI_sens

 _high_isr (ROOT)
   i2_subroutine_interruptions
     i2_interrupt_RX
     i2_interrupt_TX
     i2_interruption_INT0
     i2_interruption_QEI
     i2_interruption_timer0
     i2_interruption_timer1
     i2_interruption_timer2
     i2_interuption_QEI_sens

 Address spaces:
Name               Size   Autos  Total    Cost      Usage
BIGRAM             2FF      0       0      10        0.0%
EEDATA             100      0       0       0        0.0%
BITBANK2           100      0       0       8        0.0%
BANK2              100      0       0       9        0.0%
BITBANK1           100      0       0       6        0.0%
BANK1              100      0      67       7       40.2%
BITBANK0            A0      0       0       4        0.0%
BANK0               A0     2F      50       5       50.0%
BITCOMRAM           5F      0       0       0        0.0%
COMRAM              5F     25      48       1       75.8%
BITSFR               0      0       0      40        0.0%
SFR                  0      0       0      40        0.0%
STACK                0      0       0       2        0.0%
NULL                 0      0       0       0        0.0%
ABS                  0      0      FF       3        0.0%
DATA                 0      0      FF      11        0.0%
CODE                 0      0       0       0        0.0%


Microchip Technology PIC18 Macro Assembler V1.34 build -361300703 
Symbol Table                                                                                   Fri Apr 24 23:45:58 2015

             __end_ofi2_interrupt_RX 1734               __end_ofi2_interrupt_TX 1988  
                     _ERREUR_VITESSE 0026                                   l33 1216  
                                 l25 1194                         ___awdiv@sign 006B  
                                 bsr 000FE0                 ?_init_uart_reception 0001  
                ___wmul@multiplicand 0062                         __CFG_CP0$OFF 000000  
                       __CFG_CP1$OFF 000000                         __CFG_CP2$OFF 000000  
                       __CFG_CP3$OFF 000000                                  l246 06B2  
                                l263 09FA                                  l239 0348  
                                l442 0F10                                  l509 17A2  
                                l445 0F92                                  l702 109C  
                                l904 0B56                                  l817 0EEA  
                                l914 17C6                                  l828 0EB2  
                                l925 0DCA                                  l892 0C60  
                                l889 0C98                                  l898 116A  
                       __CFG_CPB$OFF 000000                                  _PID 009A  
                       __CFG_CPD$OFF 000000                                  prod 000FF3  
                                wreg 000FE8  __size_ofi2_subroutine_interruptions 0084  
                       __CFG_LVP$OFF 000000                         ___ftdiv@cntr 0074  
                       ___ftdiv@sign 0079                                 l1054 1858  
                               l3000 0AEC                                 l3010 0B30  
                               l3002 0AF4                                 l3006 0B14  
                               l3022 1122                                 l3110 0F88  
                               l3018 10E0                                 l3042 0CC4  
                               l3114 0F96                                 l3106 0F1E  
                               l3028 1166                                 l3060 0D48  
                               l3070 0D7A                                 l3072 0D8C  
                               l3064 0D5C                                 l3224 11BA  
                               l3066 0D64                                 l3074 0D9A  
                               l2700 1004                                 l2710 103A  
                               l3078 0DB8                                 l2706 1022  
                               l2722 107C                                 l2802 0EDC  
                               l2708 1030                                 l2740 0354  
                               l2726 1092                                 l2718 106C  
                               l2806 14B4                                 l2780 0E0C  
                               l2932 0BBC                                 l2694 0FEC  
                               l2790 0EA2                                 l2782 0E3E  
                               l2774 0DE6                                 l2926 0B82  
                               l2952 0C1E                                 l2928 0BA8  
                               l2874 06FC                                 l2786 0E60  
                               l2778 0DFC                                 l2962 0C72  
                               l2796 0EBE                                 l2788 0E92  
                               l2972 0A26                                 l2974 0A4C  
                               l2992 0AB0                                 l2978 0A60  
                               l2996 0AD0                                 STR_1 0301  
                               STR_2 032A                                 STR_3 032D  
                               STR_4 0319                                 u2311 0A3C  
                               u2241 0B6E                                 u2410 0CEA  
                               u2180 14D4                                 u2261 0B98  
                               u2190 1516                                 u2415 0CE0  
                               u2187 14CA                                 u2291 0A12  
                               u2197 150C                                 u2391 0CB0  
                               _TMR1 000FCE                                 _main 116C  
                       ___ftpack@arg 0060                         ___ftpack@exp 0063  
                               fsr0h 000FEA                                 fsr1h 000FE2  
                               indf0 000FEF                                 fsr0l 000FE9  
                               fsr2h 000FDA                                 fsr1l 000FE1  
                               indf2 000FDF                                 fsr2l 000FD9  
                               pclat 000FFA                                 prodh 000FF4  
                               prodl 000FF3                                 start 00A8  
                      __CFG_IESO$OFF 000000                        __CFG_MCLRE$ON 000000  
                       ___ftmul@cntr 0075                         ___param_bank 000010  
                       ___ftmul@sign 0076                conversion_angle@angle 007A  
                __end_of_ConfigPorts 12AA              ??i2_interruption_timer0 0015  
            ??i2_interruption_timer1 0015              ??i2_interruption_timer2 0015  
                    ?i2_interrupt_RX 0001                      ?i2_interrupt_TX 0001  
                       ___fttol@exp1 006E                         ___fttol@lval 006A  
              ??_init_uart_reception 0060              __end_of_ConfigInterrupt 1332  
                              ?_main 0086                      __end_of___awdiv 109E  
                    __end_of___ftdiv 0C9A                      __end_of___ftneg 17D4  
                    __end_of___ftmul 0B58                      ___awdiv@divisor 0068  
                    __end_of___fttol 0DCC                                _LATA0 007C48  
                              _LATA1 007C49                                _LATB0 007C50  
                              _LATA2 007C4A                                _LATB1 007C51  
                              _LATA3 007C4B                                _LATC0 007C58  
                              _LATB2 007C52                                _LATA4 007C4C  
                              _LATC1 007C59                                _LATB3 007C53  
                              _LATA5 007C4D                                _LATD0 007C60  
                              _LATC2 007C5A                                _LATB4 007C54  
                              _LATA6 007C4E                                _LATD1 007C61  
                              _LATC3 007C5B                                _LATB5 007C55  
                              _LATA7 007C4F                                _LATE0 007C68  
                              _LATD2 007C62                                _LATC4 007C5C  
                              _LATB6 007C56                                _LATE1 007C69  
                              _LATD3 007C63                                _LATC5 007C5D  
                              _LATB7 007C57                                _LATE2 007C6A  
                              _LATD4 007C64                                _LATC6 007C5E  
                              _PDC0H 000F78                                _LATD5 007C65  
                              _LATC7 007C5F                                _LATD6 007C66  
                              _PDC1H 000F76                                _LATD7 007C67  
                              _PDC2H 000F74                                _PDC0L 000F79  
                              _PDC3H 000F72                                _PDC1L 000F77  
                              _PDC2L 000F75                                _PDC3L 000F73  
                              i1l331 1364                                i1l333 1374  
                              i1l342 13B4                                i1l351 1674  
                              i1l335 1384                                i1l327 1344  
                              i1l337 1394                                i1l329 1354  
                              i1l339 13A4                                i1l372 193E  
                              i1l348 1670                                i1l383 16F6  
                              i2l331 13E8                                i2l333 13F8  
                              i2l342 1438                                i2l351 16BA  
                              i2l335 1408                                i2l327 13C8  
                              i2l337 1418                                i2l329 13D8  
                              i2l339 1428                                i2l372 1950  
                              i2l348 16B6                                i2l383 1732  
                    ___awdiv@counter 006A                                _RCREG 000FAE  
           __end_of_interruption_QEI 1940                                _TMR0L 000FD6  
                              _SPBRG 000FAF                                _TXREG 000FAD  
                      __CFG_WRT0$OFF 000000                        __CFG_WRT1$OFF 000000  
                      __CFG_WRT2$OFF 000000                        __CFG_WRT3$OFF 000000  
                     __CFG_EBTR0$OFF 000000                       __CFG_FCMEN$OFF 000000  
                     __CFG_EBTR1$OFF 000000                       __CFG_EBTR2$OFF 000000  
                     __CFG_EBTR3$OFF 000000                        __CFG_WRTB$OFF 000000  
                      __CFG_WRTC$OFF 000000                        __CFG_WRTD$OFF 000000  
                       ?_init_system 0001                       __CFG_EBTRB$OFF 000000  
         ??_subroutine_interruptions 0003                        ___ftpack@sign 0064  
                              main@i 008B             ??i2_interuption_QEI_sens 0015  
                    __end_of_low_isr 00A8                       __CFG_BOREN$OFF 000000  
                              tablat 000FF5                                status 000FD8  
                    __initialization 17D4                       __CFG_HPOL$HIGH 000000  
                       ?_reglage_PID 0001                         __end_of_main 121C  
                     __CFG_OSC$HSPLL 000000                       __CFG_LPOL$HIGH 000000  
                             ??_main 008B                        ___fttol@sign1 0069  
                      __activetblptr 000002                   i2interrupt_RX@temp 0015  
                   __end_of_PutcUART 06B4                     __end_of_PutsUART 151E  
                   ___awdiv@dividend 0066                               _ANSEL0 000FB8  
                   __end_of___ftpack 0EEC                               i1l2102 1880  
                             i1l2114 16EA                               i1l1346 193A  
       __size_ofi2_interruption_INT0 002A                               i2l2324 194C  
                             i2l2318 18AA                               i2l2338 1726  
                     __CFG_WDTEN$OFF 000000                     __end_of___lwtoft 185A  
                     __CFG_WINEN$OFF 000000                               _TMR0ON 007EAF  
                             _TMR1ON 007E68                               _PTPERH 000F7A  
                             _PTPERL 000F7B                          _ConfigPorts 121C  
                      ?_init_timer_0 0001                        ?_init_timer_1 0001  
                             _IntToC 06B4           __end_of_init_uart_logiciel 1960  
                     __CFG_SSPMX$RC7 000000                     __end_of_high_isr 158A  
                             ___ftge 109E                               ___wmul 176C  
                          ??___awdiv 006A                   i2_interruption_QEI 1940  
                          ??___ftdiv 0071                            ??___ftneg 0063  
               __size_of_config_uart 001C                            ??___ftmul 006E  
                          ??___fttol 0064                           _PutIntUART 18AE  
                             clear_0 17DA                               clear_1 17E6  
                             clear_2 17F2                     ___awdiv@quotient 006C  
                   ?_ConfigInterrupt 0001                    ?_conversion_angle 0001  
              ___ftmul@f3_as_product 0072                  ?i2_interruption_QEI 0001  
                 ??_conversion_angle 007A                         __mediumconst 0000  
                          ??_low_isr 0004                               tblptrh 000FF7  
                             tblptrl 000FF6                               tblptru 000FF8  
    __size_ofi2_interuption_QEI_sens 0004                           __accesstop 0060  
            __end_of__initialization 17F8                      __CFG_FLTAMX$RC1 000000  
               ??i2_interruption_QEI 0015                           ___ftge@ff1 0060  
                         ___ftge@ff2 0063                       ??_init_timer_0 0060  
                     ??_init_timer_1 0060                        ___rparam_used 000001  
                         ___ftdiv@f1 006B                           ___ftdiv@f2 006E  
                         ___ftdiv@f3 0075                           ___ftneg@f1 0060  
                         ___ftmul@f1 0068                           ___ftmul@f2 006B  
                         ___fttol@f1 0060                       __pcstackCOMRAM 0001  
                      ?_interrupt_RX 0001                        ?_interrupt_TX 0001  
      __size_of_interuption_QEI_sens 0004                           ___lwtoft@c 0068  
   __end_of_subroutine_interruptions 13B6          __end_of_interruption_timer0 1968  
        __end_of_interruption_timer1 1676          __end_of_interruption_timer2 1978  
                         __pbssBANK0 008F                           __pbssBANK1 0100  
               __size_of_init_system 002C                     ??i2_interrupt_RX 0015  
                   ??i2_interrupt_TX 0015                              ?_IntToC 006E  
                     ??_interrupt_RX 0001                       ??_interrupt_TX 0001  
                            ?___ftge 0060                            ?_PutcUART 006E  
                            ?___wmul 0060                            ?_PutsUART 007E  
                    __CFG_WDPS$32768 000000               i2_interuption_QEI_sens 197C  
     __size_ofi2_interruption_timer0 0008       __size_ofi2_interruption_timer1 0046  
     __size_ofi2_interruption_timer2 0004                          ?_PutIntUART 0083  
      __end_ofi2_interruption_timer0 1970        __end_ofi2_interruption_timer1 16BC  
      __end_ofi2_interruption_timer2 1984                 __size_of_reglage_PID 0038  
                          ?___ftpack 0060                            ?___lwtoft 0068  
                    __CFG_PWM4MX$RB5 000000                              _MAXCNTH 000F65  
                            _MAXCNTL 000F64                    ?_interruption_QEI 0001  
                         _config_QEI 158A                    PutcUART@type_uart 0075  
                         _config_pwm 15E8                              _POSCNTH 000F67  
                            _POSCNTL 000F66                   ??_interruption_QEI 0001  
                            _VITESSE 002F                            ?_high_isr 0001  
                            IntToC@i 0072                              IntToC@j 007C  
                    __CFG_PWMPIN$OFF 000000                         _flag_cpateur 00A7  
                    __CFG_PWRTEN$OFF 000000         ??i2_subroutine_interruptions 0017  
                            __Hparam 0000          __end_of_init_uart_reception 192E  
                    __size_of_IntToC 0348                              __Lparam 0000  
                         ??_PutcUART 006F                      __size_of___ftge 00CE  
                            ___awdiv 0FCE                              ___ftdiv 0B58  
                         ??_PutsUART 0080                              ___ftneg 17A4  
                    __size_of___wmul 0038                              ___ftmul 09FC  
                            ___fttol 0C9A                           _envoit_pwm 0EEC  
                       __psmallconst 0300                  i2_interruption_INT0 1884  
                    __CFG_STVREN$OFF 000000                              __pcinit 17D4  
                         ??___ftpack 0065                              __ramtop 0300  
                            __ptext0 116C                              __ptext1 1802  
                            __ptext2 1734                              __ptext3 191A  
                            __ptext4 1952                              __ptext5 18EC  
                            __ptext6 1904                              __ptext7 18D0  
                            __ptext8 15E8                              __ptext9 158A  
                         ??___lwtoft 006B                            _T0CONbits 000FD5  
                PutIntUART@type_uart 0085                            _T1CONbits 000FCD  
               __end_of_init_timer_0 191A                 __end_of_init_timer_1 1904  
                            _low_isr 0018                 fonction_PID@commande 0035  
                         ??_high_isr 0018                       __pintcode_body 151E  
               end_of_initialization 17F8                 ?i2_interruption_INT0 0001  
                __size_of_PutIntUART 0022                        __Lmediumconst 0000  
                            int_func 151E                         ?_ConfigPorts 0001  
  __size_of_subroutine_interruptions 0084                            _RCSTAbits 000FAB  
          ?_subroutine_interruptions 0001                              postinc0 000FEE  
                    _OVERFLOW_CODEUR 0038                            _PORTBbits 000F81  
                          _PORTCbits 000F82                            _PORTDbits 000F83  
                 _init_uart_logiciel 1952                          ?_config_QEI 0001  
                          _TRISAbits 000F92                            _TRISBbits 000F93  
                          _TRISCbits 000F94                          ?_config_pwm 0001  
                          _TRISDbits 000F95                            _TRISEbits 000F96  
                        _CAP1CONbits 000F63                 __end_of_interrupt_RX 16F8  
               __end_of_interrupt_TX 197C                  ?_init_uart_logiciel 0001  
                   envoit_pwm@valeur 0077                ??i2_interruption_INT0 0015  
                          IntToC@out 00A8            __size_of_conversion_angle 0076  
                        ___ftdiv@exp 0078                            _TXSTAbits 000FAC  
                   __CFG_T1OSCMX$OFF 000000                        ??_config_uart 0060  
                        ___ftmul@exp 0071                       __end_of_IntToC 09FC  
               ??_init_uart_logiciel 0060                          ?_envoit_pwm 0077  
                     __end_of___ftge 116C                     __CFG_EXCLKMX$RC3 000000  
                     __end_of___wmul 17A4                          _BAUDCONbits 000FAA  
                start_initialization 17D4             __size_of_ConfigInterrupt 0088  
       __end_of_interuption_QEI_sens 1974   __end_ofi2_subroutine_interruptions 143A  
         i2_subroutine_interruptions 13B6          __size_ofi2_interruption_QEI 0012  
                           ??_IntToC 0070                  __size_of_config_QEI 005E  
            ?i2_interuption_QEI_sens 0001                             ??___ftge 0066  
                __size_of_config_pwm 0048                             ??___wmul 0064  
                       ??_PutIntUART 0085                    __size_of_PutcUART 037E  
              __size_of_init_timer_0 0016                __size_of_init_timer_1 0018  
                __end_of_config_uart 18EC                    __size_of_PutsUART 006E  
                        _DFLTCONbits 000F60                    __size_of___ftpack 0120  
                        __pbssCOMRAM 0026                    __size_of___lwtoft 002C  
                      __pcstackBANK0 0060                        ??_init_system 0060  
                __size_of_envoit_pwm 00E2                    __size_of_high_isr 1582  
                 __end_of_PutIntUART 18D0   i2subroutine_interruptions@priorite 0017  
   subroutine_interruptions@priorite 0003         __size_of_interruption_timer0 0008  
       __size_of_interruption_timer1 0046         __size_of_interruption_timer2 0004  
          __size_of_interruption_QEI 0012       __end_ofi2_interuption_QEI_sens 1980  
               __size_of_ConfigPorts 008E                         _init_timer_0 1904  
                       _init_timer_1 18EC                        ??_reglage_PID 0060  
                          __pintcode 0008                             ?___awdiv 0066  
                           ?___ftdiv 006B                             ?___ftneg 0060  
                           ?___ftmul 0068                             ?___fttol 0060  
                        __pintcodelo 0018                       _uart_reception 0100  
              i2_interruption_timer0 1968                i2_interruption_timer1 1676  
              i2_interruption_timer2 1980                __size_of_interrupt_RX 003C  
              __size_of_interrupt_TX 0004                       asserv@commande 0046  
                        __smallconst 0300                    PutsUART@type_uart 0082  
                           ?_low_isr 0001                 get_valeur_codeur@res 00A3  
                      PutcUART@octet 006E                    _interruption_INT0 185A  
                   _conversion_angle 143A                  __end_of_init_system 182E  
                     ___wmul@product 0064                             _LATCbits 000F8B  
                 ?_interruption_INT0 0001                    ??_ConfigInterrupt 0060  
                           _IPR1bits 000F9F                             _IPR2bits 000FA2  
                           _PIE1bits 000F9D                             _IPR3bits 000FA5  
                           _PIE2bits 000FA0                             _PIE3bits 000FA3  
                           _PIR1bits 000F9E                             _PIR2bits 000FA1  
                           _PIR3bits 000FA4                          _config_uart 18D0  
                           _RCONbits 000FD0                  ??_interruption_INT0 0001  
                       _interrupt_RX 16BC                         _interrupt_TX 1978  
               _interuption_QEI_sens 1970         __size_of_init_uart_reception 0014  
            __size_ofi2_interrupt_RX 003C              __size_ofi2_interrupt_TX 0004  
                  ___wmul@multiplier 0060                  __end_of_reglage_PID 176C  
                           IntToC@nb 006E                            main@angle 008D  
                       ??_config_QEI 0060                         ??_config_pwm 0060  
          __end_of_interruption_INT0 1884                          _INTCON2bits 000FF1  
                        _INTCON3bits 000FF0                             __Hrparam 0000  
                           __Lrparam 0000                   __end_of_config_QEI 15E8  
                           _PutcUART 0336                   __end_of_config_pwm 1630  
                       ??_envoit_pwm 007A                             _PutsUART 14B0  
                   __size_of___awdiv 00D0                     interrupt_RX@temp 0001  
              ?_interuption_QEI_sens 0001                     __size_of___ftdiv 0142  
                   __size_of___ftneg 0030                     __size_of___ftmul 015C  
                   __size_of___fttol 0132                             ___ftpack 0DCC  
             ?i2_interruption_timer0 0001               ?i2_interruption_timer1 0001  
             ?i2_interruption_timer2 0001                             ___lwtoft 182E  
        __end_ofi2_interruption_INT0 18AE                     __size_of_low_isr 0090  
                           __ptext10 121C                             __ptext11 12AA  
                           __ptext20 0DCC                             __ptext12 0EEC  
                           __ptext21 18AE                             __ptext13 0C9A  
                           __ptext30 1974                             __ptext22 14B0  
                           __ptext14 17A4                             __ptext31 1630  
                           __ptext23 0336                             __ptext15 109E  
                           __ptext40 1980                             __ptext32 1960  
                           __ptext24 06B4                             __ptext16 143A  
                           __ptext41 1676                             __ptext33 192E  
                           __ptext25 176C                             __ptext17 182E  
                           __ptext42 1968                             __ptext34 185A  
                           __ptext26 0FCE                             __ptext18 09FC  
                           __ptext43 1940                             __ptext35 1978  
                           __ptext19 0B58                             __ptext44 1884  
                           __ptext36 16BC                             __ptext28 1332  
                           __ptext45 1984                             __ptext29 1970  
                           __ptext46 16F8                             __ptext38 13B6  
                           __ptext39 197C                          _init_system 1802  
                       PutIntUART@nb 0083                        _uart_logiciel 0039  
                           _high_isr 0008                   __end_of_envoit_pwm 0FCE  
                      __size_of_main 00B0                     _interruption_QEI 192E  
        ?i2_subroutine_interruptions 0001             _subroutine_interruptions 1332  
                        _reglage_PID 1734          __size_of_init_uart_logiciel 000E  
                           _position 008F                             main@argc 0086  
                           main@argv 0088                  _interruption_timer0 1960  
                _interruption_timer1 1630                  _interruption_timer2 1974  
                         _INTCONbits 000FF2                           _QEICONbits 000FB6  
         __size_of_interruption_INT0 002A                             intlevel1 0000  
                           intlevel2 0000           __end_ofi2_interruption_QEI 1952  
               ?_interruption_timer0 0001                 ?_interruption_timer1 0001  
               ?_interruption_timer2 0001                          _PWMCON0bits 000F6F  
                        _PWMCON1bits 000F6E               ??_interuption_QEI_sens 0001  
               envoit_pwm@abs_valeur 007A                           _PTCON0bits 000F7F  
                     PutsUART@chaine 007E                           _PTCON1bits 000F7E  
                     i2_interrupt_RX 16F8                       i2_interrupt_TX 1984  
           __end_of_conversion_angle 14B0                      _ConfigInterrupt 12AA  
                _init_uart_reception 191A                        ??_ConfigPorts 0060  
              ??_interruption_timer0 0001                ??_interruption_timer1 0001  
              ??_interruption_timer2 0001                         ?_config_uart 0001  
