

Microchip Technology PIC18 LITE Macro Assembler V1.34 build -361300703 
                                                                                               Mon Apr 13 23:54:02 2015

Microchip Technology Omniscient Code Generator (Lite mode) build 201502162209
     1                           	processor	18F4431
     2                           	fnconf	param0,??,?,0
     3                           	opt	pw 120
     4                           	opt	lm
     5                           	psect	smallconst,global,reloc=2,class=SMALLCONST,delta=1
     6                           	psect	cinit,global,reloc=2,class=CODE,delta=1
     7                           	psect	bssCOMRAM,global,class=COMRAM,space=1,delta=1
     8                           	psect	bssBANK0,global,class=BANK0,space=1,delta=1
     9                           	psect	bssBANK1,global,class=BANK1,space=1,delta=1
    10                           	psect	cstackBANK0,global,class=BANK0,space=1,delta=1
    11                           	psect	cstackCOMRAM,global,class=COMRAM,space=1,delta=1
    12                           	psect	text0,global,reloc=2,class=CODE,delta=1
    13                           	psect	text1,global,reloc=2,class=CODE,delta=1
    14                           	psect	text2,global,reloc=2,class=CODE,delta=1
    15                           	psect	text3,global,reloc=2,class=CODE,delta=1
    16                           	psect	text4,global,reloc=2,class=CODE,delta=1
    17                           	psect	text5,global,reloc=2,class=CODE,delta=1
    18                           	psect	text6,global,reloc=2,class=CODE,delta=1
    19                           	psect	text7,global,reloc=2,class=CODE,delta=1
    20                           	psect	text8,global,reloc=2,class=CODE,delta=1
    21                           	psect	text9,global,reloc=2,class=CODE,delta=1
    22                           	psect	text10,global,reloc=2,class=CODE,delta=1
    23                           	psect	text11,global,reloc=2,class=CODE,delta=1
    24                           	psect	intcodelo,global,reloc=2,class=CODE,delta=1
    25                           	psect	text13,global,reloc=2,class=CODE,delta=1
    26                           	psect	text14,global,reloc=2,class=CODE,delta=1
    27                           	psect	text15,global,reloc=2,class=CODE,delta=1
    28                           	psect	text16,global,reloc=2,class=CODE,delta=1
    29                           	psect	text17,global,reloc=2,class=CODE,delta=1
    30                           	psect	text18,global,reloc=2,class=CODE,delta=1
    31                           	psect	text19,global,reloc=2,class=CODE,delta=1
    32                           	psect	text20,global,reloc=2,class=CODE,delta=1
    33                           	psect	text21,global,reloc=2,class=CODE,delta=1
    34                           	psect	text22,global,reloc=2,class=CODE,delta=1
    35                           	psect	text23,global,reloc=2,class=CODE,delta=1
    36                           	psect	text24,global,reloc=2,class=CODE,delta=1
    37                           	psect	text25,global,reloc=2,class=CODE,delta=1
    38                           	psect	text26,global,reloc=2,class=CODE,delta=1
    39                           	psect	text27,global,reloc=2,class=CODE,delta=1
    40                           	psect	text28,global,reloc=2,class=CODE,delta=1
    41                           	psect	text29,global,reloc=2,class=CODE,delta=1
    42                           	psect	text30,global,reloc=2,class=CODE,delta=1
    43                           	psect	text31,global,reloc=2,class=CODE,delta=1
    44                           	psect	text32,global,reloc=2,class=CODE,delta=1
    45                           	psect	intcode,global,reloc=2,class=CODE,delta=1
    46                           	psect	intcode_body,global,reloc=2,class=CODE,delta=1
    47                           	psect	text34,global,reloc=2,class=CODE,delta=1
    48                           	psect	text35,global,reloc=2,class=CODE,delta=1
    49                           	psect	text36,global,reloc=2,class=CODE,delta=1
    50                           	psect	text37,global,reloc=2,class=CODE,delta=1
    51                           	psect	text38,global,reloc=2,class=CODE,delta=1
    52                           	psect	text39,global,reloc=2,class=CODE,delta=1
    53                           	psect	text40,global,reloc=2,class=CODE,delta=1
    54                           	psect	text41,global,reloc=2,class=CODE,delta=1
    55                           	psect	text42,global,reloc=2,class=CODE,delta=1
    56                           	psect	text43,global,reloc=2,class=CODE,delta=1
    57                           	psect	text44,global,reloc=2,class=CODE,delta=1
    58                           	psect	text45,global,reloc=2,class=CODE,delta=1
    59                           	psect	text46,global,reloc=2,class=CODE,delta=1
    60                           	psect	text47,global,reloc=2,class=CODE,delta=1
    61                           	psect	text48,global,reloc=2,class=CODE,delta=1
    62                           	psect	text49,global,reloc=2,class=CODE,delta=1
    63                           	psect	text50,global,reloc=2,class=CODE,delta=1
    64                           	psect	text51,global,reloc=2,class=CODE,delta=1
    65                           	psect	text52,global,reloc=2,class=CODE,delta=1
    66                           	psect	text53,global,reloc=2,class=CODE,delta=1
    67                           	psect	intsave_regs,global,class=BIGRAM,space=1,delta=1
    68                           	psect	param0,global,class=BANK0,space=1,delta=1
    69  0000                     _TMR1	set	4046
    70  0000                     _ANSEL0	set	4024
    71  0000                     _BAUDCONbits	set	4010
    72  0000                     _CAP1CONbits	set	3939
    73  0000                     _DFLTCONbits	set	3936
    74  0000                     _INTCON2bits	set	4081
    75  0000                     _INTCON3bits	set	4080
    76  0000                     _INTCONbits	set	4082
    77  0000                     _IPR1bits	set	3999
    78  0000                     _IPR2bits	set	4002
    79  0000                     _IPR3bits	set	4005
    80  0000                     _MAXCNTH	set	3941
    81  0000                     _MAXCNTL	set	3940
    82  0000                     _PDC0H	set	3960
    83  0000                     _PDC0L	set	3961
    84  0000                     _PDC1H	set	3958
    85  0000                     _PDC1L	set	3959
    86  0000                     _PDC2H	set	3956
    87  0000                     _PDC2L	set	3957
    88  0000                     _PDC3H	set	3954
    89  0000                     _PDC3L	set	3955
    90  0000                     _PIE1bits	set	3997
    91  0000                     _PIE2bits	set	4000
    92  0000                     _PIE3bits	set	4003
    93  0000                     _PIR1bits	set	3998
    94  0000                     _PIR2bits	set	4001
    95  0000                     _PIR3bits	set	4004
    96  0000                     _PORTBbits	set	3969
    97  0000                     _PORTCbits	set	3970
    98  0000                     _PORTDbits	set	3971
    99  0000                     _POSCNTH	set	3943
   100  0000                     _POSCNTL	set	3942
   101  0000                     _PTCON0bits	set	3967
   102  0000                     _PTCON1bits	set	3966
   103  0000                     _PTPERH	set	3962
   104  0000                     _PTPERL	set	3963
   105  0000                     _PWMCON0bits	set	3951
   106  0000                     _PWMCON1bits	set	3950
   107  0000                     _QEICONbits	set	4022
   108  0000                     _RCONbits	set	4048
   109  0000                     _RCREG	set	4014
   110  0000                     _RCSTAbits	set	4011
   111  0000                     _SPBRG	set	4015
   112  0000                     _T0CONbits	set	4053
   113  0000                     _T1CONbits	set	4045
   114  0000                     _TMR0L	set	4054
   115  0000                     _TRISAbits	set	3986
   116  0000                     _TRISBbits	set	3987
   117  0000                     _TRISCbits	set	3988
   118  0000                     _TRISDbits	set	3989
   119  0000                     _TRISEbits	set	3990
   120  0000                     _TXREG	set	4013
   121  0000                     _TXSTAbits	set	4012
   122  0000                     _LATA0	set	31816
   123  0000                     _LATA1	set	31817
   124  0000                     _LATA2	set	31818
   125  0000                     _LATA3	set	31819
   126  0000                     _LATA4	set	31820
   127  0000                     _LATA5	set	31821
   128  0000                     _LATA6	set	31822
   129  0000                     _LATA7	set	31823
   130  0000                     _LATB0	set	31824
   131  0000                     _LATB1	set	31825
   132  0000                     _LATB2	set	31826
   133  0000                     _LATB3	set	31827
   134  0000                     _LATB4	set	31828
   135  0000                     _LATB5	set	31829
   136  0000                     _LATB6	set	31830
   137  0000                     _LATB7	set	31831
   138  0000                     _LATC0	set	31832
   139  0000                     _LATC1	set	31833
   140  0000                     _LATC2	set	31834
   141  0000                     _LATC3	set	31835
   142  0000                     _LATC4	set	31836
   143  0000                     _LATC5	set	31837
   144  0000                     _LATC6	set	31838
   145  0000                     _LATC7	set	31839
   146  0000                     _LATD0	set	31840
   147  0000                     _LATD1	set	31841
   148  0000                     _LATD2	set	31842
   149  0000                     _LATD3	set	31843
   150  0000                     _LATD4	set	31844
   151  0000                     _LATD5	set	31845
   152  0000                     _LATD6	set	31846
   153  0000                     _LATD7	set	31847
   154  0000                     _LATE0	set	31848
   155  0000                     _LATE1	set	31849
   156  0000                     _LATE2	set	31850
   157  0000                     _TMR0ON	set	32431
   158  0000                     _TMR1ON	set	32360
   159                           
   160                           	psect	smallconst
   161  000300                     __psmallconst:
   162                           	opt stack 0
   163  000300  00                 	db	0
   164  000301                     
   165                           ; BSR set to: 1
   166  000301  20                 	db	32
   167  000302  64                 	db	100	;'d'
   168  000303  61                 	db	97	;'a'
   169  000304  6E                 	db	110	;'n'
   170  000305  73                 	db	115	;'s'
   171  000306  20                 	db	32
   172  000307  6C                 	db	108	;'l'
   173  000308  65                 	db	101	;'e'
   174  000309  20                 	db	32
   175  00030A  62                 	db	98	;'b'
   176  00030B  75                 	db	117	;'u'
   177  00030C  66                 	db	102	;'f'
   178  00030D  66                 	db	102	;'f'
   179  00030E  65                 	db	101	;'e'
   180  00030F  72                 	db	114	;'r'
   181  000310  20                 	db	32
   182  000311  0A                 	db	10
   183  000312  0A                 	db	10
   184  000313  0D                 	db	13
   185  000314  00                 	db	0
   186  000315                     
   187                           ; BSR set to: 1
   188  000315  49                 	db	73	;'I'
   189  000316  4C                 	db	76	;'L'
   190  000317  20                 	db	32
   191  000318  79                 	db	121	;'y'
   192  000319  20                 	db	32
   193  00031A  61                 	db	97	;'a'
   194  00031B  20                 	db	32
   195  00031C  00                 	db	0
   196                           
   197                           ; #config settings
   198  00031D  00                 	db	0	; dummy byte at the end
   199  0000                     
   200                           	psect	cinit
   201  001A74                     __pcinit:
   202                           	opt stack 0
   203  001A74                     start_initialization:
   204                           	opt stack 0
   205  001A74                     __initialization:
   206                           	opt stack 0
   207                           
   208                           ; Clear objects allocated to BANK1 (103 bytes)
   209  001A74  EE01  F000         	lfsr	0,__pbssBANK1
   210  001A78  0E67               	movlw	103
   211  001A7A                     clear_0:
   212  001A7A  6AEE               	clrf	postinc0,c
   213  001A7C  06E8               	decf	wreg,f,c
   214  001A7E  E1FD               	bnz	clear_0
   215                           
   216                           ; Clear objects allocated to BANK0 (35 bytes)
   217  001A80  EE00  F0A2         	lfsr	0,__pbssBANK0
   218  001A84  0E23               	movlw	35
   219  001A86                     clear_1:
   220  001A86  6AEE               	clrf	postinc0,c
   221  001A88  06E8               	decf	wreg,f,c
   222  001A8A  E1FD               	bnz	clear_1
   223                           
   224                           ; Clear objects allocated to COMRAM (32 bytes)
   225  001A8C  EE00  F03F         	lfsr	0,__pbssCOMRAM
   226  001A90  0E20               	movlw	32
   227  001A92                     clear_2:
   228  001A92  6AEE               	clrf	postinc0,c
   229  001A94  06E8               	decf	wreg,f,c
   230  001A96  E1FD               	bnz	clear_2
   231  001A98                     end_of_initialization:
   232                           	opt stack 0
   233  001A98                     __end_of__initialization:
   234                           	opt stack 0
   235  001A98  0E00               	movlw	low (__Lmediumconst shr (0+16))
   236  001A9A  6EF8               	movwf	tblptru,c
   237  001A9C  0100               	movlb	0
   238  001A9E  EF84  F00D         	goto	_main	;jump to C main() function
   239                           tblptru	equ	0xFF8
   240                           postinc0	equ	0xFEE
   241                           wreg	equ	0xFE8
   242                           
   243                           	psect	bssCOMRAM
   244  00003F                     __pbssCOMRAM:
   245                           	opt stack 0
   246  00003F                     _ERREUR_VITESSE:
   247                           	opt stack 0
   248  00003F                     	ds	9
   249  000048                     _VITESSE:
   250                           	opt stack 0
   251  000048                     	ds	6
   252  00004E                     _OVERFLOW_CODEUR:
   253                           	opt stack 0
   254  00004E                     	ds	1
   255  00004F                     _uart_logiciel:
   256                           	opt stack 0
   257  00004F                     	ds	13
   258  00005C                     asserv@commande:
   259                           	opt stack 0
   260  00005C                     	ds	3
   261                           tblptru	equ	0xFF8
   262                           postinc0	equ	0xFEE
   263                           wreg	equ	0xFE8
   264                           
   265                           	psect	bssBANK0
   266  0000A2                     __pbssBANK0:
   267                           	opt stack 0
   268  0000A2                     _position:
   269                           	opt stack 0
   270  0000A2                     	ds	11
   271  0000AD                     _PID:
   272                           	opt stack 0
   273  0000AD                     	ds	9
   274  0000B6                     get_valeur_codeur@res:
   275                           	opt stack 0
   276  0000B6                     	ds	4
   277  0000BA                     fonction_PID@commande:
   278                           	opt stack 0
   279  0000BA                     	ds	3
   280  0000BD                     IntToC@out:
   281                           	opt stack 0
   282  0000BD                     	ds	8
   283                           tblptru	equ	0xFF8
   284                           postinc0	equ	0xFEE
   285                           wreg	equ	0xFE8
   286                           
   287                           	psect	bssBANK1
   288  000100                     __pbssBANK1:
   289                           	opt stack 0
   290  000100                     _uart_reception:
   291                           	opt stack 0
   292  000100                     	ds	103
   293                           tblptru	equ	0xFF8
   294                           postinc0	equ	0xFEE
   295                           wreg	equ	0xFE8
   296                           
   297                           	psect	cstackBANK0
   298  000060                     __pcstackBANK0:
   299                           	opt stack 0
   300  000060                     ??i2_interruption_timer1:
   301  000060                     ?i2___ftpack:
   302                           	opt stack 0
   303  000060                     ?i2___ftneg:
   304                           	opt stack 0
   305  000060                     ?i2___fttol:
   306                           	opt stack 0
   307  000060                     i2interrupt_RX@temp:
   308                           	opt stack 0
   309  000060                     i2___ftpack@arg:
   310                           	opt stack 0
   311  000060                     i2___ftge@ff1:
   312                           	opt stack 0
   313  000060                     i2___ftneg@f1:
   314                           	opt stack 0
   315  000060                     i2___fttol@f1:
   316                           	opt stack 0
   317                           
   318                           ; 3 bytes @ 0x0
   319  000060                     	ds	3
   320  000063                     i2___ftpack@exp:
   321                           	opt stack 0
   322  000063                     i2___ftge@ff2:
   323                           	opt stack 0
   324                           
   325                           ; 3 bytes @ 0x3
   326  000063                     	ds	1
   327  000064                     ??i2___fttol:
   328  000064                     i2___ftpack@sign:
   329                           	opt stack 0
   330                           
   331                           ; 1 bytes @ 0x4
   332  000064                     	ds	1
   333  000065                     ??i2___ftpack:
   334                           
   335                           ; 0 bytes @ 0x5
   336  000065                     	ds	1
   337  000066                     ??i2___ftge:
   338                           
   339                           ; 0 bytes @ 0x6
   340  000066                     	ds	2
   341  000068                     ?i2___ftmul:
   342                           	opt stack 0
   343  000068                     i2___ftmul@f1:
   344                           	opt stack 0
   345                           
   346                           ; 3 bytes @ 0x8
   347  000068                     	ds	1
   348  000069                     i2___fttol@sign1:
   349                           	opt stack 0
   350  000069                     i2ecretage_consignes@commande:
   351                           	opt stack 0
   352                           
   353                           ; 2 bytes @ 0x9
   354  000069                     	ds	1
   355  00006A                     i2___fttol@lval:
   356                           	opt stack 0
   357                           
   358                           ; 4 bytes @ 0xA
   359  00006A                     	ds	1
   360  00006B                     i2___ftmul@f2:
   361                           	opt stack 0
   362                           
   363                           ; 3 bytes @ 0xB
   364  00006B                     	ds	3
   365  00006E                     ??i2___ftmul:
   366  00006E                     i2___fttol@exp1:
   367                           	opt stack 0
   368                           
   369                           ; 1 bytes @ 0xE
   370  00006E                     	ds	3
   371  000071                     i2___ftmul@exp:
   372                           	opt stack 0
   373                           
   374                           ; 1 bytes @ 0x11
   375  000071                     	ds	1
   376  000072                     i2___ftmul@f3_as_product:
   377                           	opt stack 0
   378                           
   379                           ; 3 bytes @ 0x12
   380  000072                     	ds	3
   381  000075                     i2___ftmul@cntr:
   382                           	opt stack 0
   383                           
   384                           ; 1 bytes @ 0x15
   385  000075                     	ds	1
   386  000076                     i2___ftmul@sign:
   387                           	opt stack 0
   388                           
   389                           ; 1 bytes @ 0x16
   390  000076                     	ds	1
   391  000077                     ?i2___ftadd:
   392                           	opt stack 0
   393  000077                     i2envoit_pwm@valeur:
   394                           	opt stack 0
   395  000077                     i2___ftadd@f1:
   396                           	opt stack 0
   397                           
   398                           ; 3 bytes @ 0x17
   399  000077                     	ds	3
   400  00007A                     i2envoit_pwm@abs_valeur:
   401                           	opt stack 0
   402  00007A                     i2___ftadd@f2:
   403                           	opt stack 0
   404                           
   405                           ; 3 bytes @ 0x1A
   406  00007A                     	ds	3
   407  00007D                     ??i2___ftadd:
   408                           
   409                           ; 0 bytes @ 0x1D
   410  00007D                     	ds	3
   411  000080                     i2___ftadd@sign:
   412                           	opt stack 0
   413                           
   414                           ; 1 bytes @ 0x20
   415  000080                     	ds	1
   416  000081                     i2___ftadd@exp2:
   417                           	opt stack 0
   418                           
   419                           ; 1 bytes @ 0x21
   420  000081                     	ds	1
   421  000082                     i2___ftadd@exp1:
   422                           	opt stack 0
   423                           
   424                           ; 1 bytes @ 0x22
   425  000082                     	ds	1
   426  000083                     ?i2_fonction_PID:
   427                           	opt stack 0
   428                           
   429                           ; 3 bytes @ 0x23
   430  000083                     	ds	3
   431  000086                     i2_fonction_PID$2888:
   432                           	opt stack 0
   433                           
   434                           ; 3 bytes @ 0x26
   435  000086                     	ds	3
   436  000089                     i2_fonction_PID$2889:
   437                           	opt stack 0
   438                           
   439                           ; 3 bytes @ 0x29
   440  000089                     	ds	3
   441  00008C                     i2subroutine_interruptions@priorite:
   442                           	opt stack 0
   443                           
   444                           ; 1 bytes @ 0x2C
   445  00008C                     	ds	1
   446  00008D                     ??_high_isr:
   447                           
   448                           ; 0 bytes @ 0x2D
   449  00008D                     	ds	14
   450  00009B                     
   451                           ; 2 bytes @ 0x3B
   452  00009B                     	ds	2
   453  00009D                     
   454                           ; 3 bytes @ 0x3D
   455  00009D                     	ds	3
   456  0000A0                     main@i:
   457                           	opt stack 0
   458                           
   459                           ; 2 bytes @ 0x40
   460  0000A0                     	ds	2
   461                           tblptru	equ	0xFF8
   462                           postinc0	equ	0xFEE
   463                           wreg	equ	0xFE8
   464                           
   465                           	psect	cstackCOMRAM
   466  000001                     __pcstackCOMRAM:
   467                           	opt stack 0
   468  000001                     ??_interruption_timer1:
   469  000001                     ?___ftpack:
   470                           	opt stack 0
   471  000001                     ?___ftneg:
   472                           	opt stack 0
   473  000001                     ?___fttol:
   474                           	opt stack 0
   475  000001                     interrupt_RX@temp:
   476                           	opt stack 0
   477  000001                     ___ftpack@arg:
   478                           	opt stack 0
   479  000001                     ___ftge@ff1:
   480                           	opt stack 0
   481  000001                     ___ftneg@f1:
   482                           	opt stack 0
   483  000001                     ___fttol@f1:
   484                           	opt stack 0
   485                           
   486                           ; 3 bytes @ 0x0
   487  000001                     	ds	3
   488  000004                     ___ftpack@exp:
   489                           	opt stack 0
   490  000004                     ___ftge@ff2:
   491                           	opt stack 0
   492                           
   493                           ; 3 bytes @ 0x3
   494  000004                     	ds	1
   495  000005                     ??___fttol:
   496  000005                     ___ftpack@sign:
   497                           	opt stack 0
   498                           
   499                           ; 1 bytes @ 0x4
   500  000005                     	ds	1
   501  000006                     ??___ftpack:
   502                           
   503                           ; 0 bytes @ 0x5
   504  000006                     	ds	1
   505  000007                     ??___ftge:
   506                           
   507                           ; 0 bytes @ 0x6
   508  000007                     	ds	2
   509  000009                     ?___ftmul:
   510                           	opt stack 0
   511  000009                     ___ftmul@f1:
   512                           	opt stack 0
   513                           
   514                           ; 3 bytes @ 0x8
   515  000009                     	ds	1
   516  00000A                     ___fttol@sign1:
   517                           	opt stack 0
   518  00000A                     ecretage_consignes@commande:
   519                           	opt stack 0
   520                           
   521                           ; 2 bytes @ 0x9
   522  00000A                     	ds	1
   523  00000B                     ___fttol@lval:
   524                           	opt stack 0
   525                           
   526                           ; 4 bytes @ 0xA
   527  00000B                     	ds	1
   528  00000C                     ___ftmul@f2:
   529                           	opt stack 0
   530                           
   531                           ; 3 bytes @ 0xB
   532  00000C                     	ds	3
   533  00000F                     ??___ftmul:
   534  00000F                     ___fttol@exp1:
   535                           	opt stack 0
   536                           
   537                           ; 1 bytes @ 0xE
   538  00000F                     	ds	3
   539  000012                     ___ftmul@exp:
   540                           	opt stack 0
   541                           
   542                           ; 1 bytes @ 0x11
   543  000012                     	ds	1
   544  000013                     ___ftmul@f3_as_product:
   545                           	opt stack 0
   546                           
   547                           ; 3 bytes @ 0x12
   548  000013                     	ds	3
   549  000016                     ___ftmul@cntr:
   550                           	opt stack 0
   551                           
   552                           ; 1 bytes @ 0x15
   553  000016                     	ds	1
   554  000017                     ___ftmul@sign:
   555                           	opt stack 0
   556                           
   557                           ; 1 bytes @ 0x16
   558  000017                     	ds	1
   559  000018                     ?___ftadd:
   560                           	opt stack 0
   561  000018                     envoit_pwm@valeur:
   562                           	opt stack 0
   563  000018                     ___ftadd@f1:
   564                           	opt stack 0
   565                           
   566                           ; 3 bytes @ 0x17
   567  000018                     	ds	3
   568  00001B                     envoit_pwm@abs_valeur:
   569                           	opt stack 0
   570  00001B                     ___ftadd@f2:
   571                           	opt stack 0
   572                           
   573                           ; 3 bytes @ 0x1A
   574  00001B                     	ds	3
   575  00001E                     ??___ftadd:
   576                           
   577                           ; 0 bytes @ 0x1D
   578  00001E                     	ds	3
   579  000021                     ___ftadd@sign:
   580                           	opt stack 0
   581                           
   582                           ; 1 bytes @ 0x20
   583  000021                     	ds	1
   584  000022                     ___ftadd@exp2:
   585                           	opt stack 0
   586                           
   587                           ; 1 bytes @ 0x21
   588  000022                     	ds	1
   589  000023                     ___ftadd@exp1:
   590                           	opt stack 0
   591                           
   592                           ; 1 bytes @ 0x22
   593  000023                     	ds	1
   594  000024                     ?_fonction_PID:
   595                           	opt stack 0
   596                           
   597                           ; 3 bytes @ 0x23
   598  000024                     	ds	3
   599  000027                     _fonction_PID$2778:
   600                           	opt stack 0
   601                           
   602                           ; 3 bytes @ 0x26
   603  000027                     	ds	3
   604  00002A                     _fonction_PID$2779:
   605                           	opt stack 0
   606                           
   607                           ; 3 bytes @ 0x29
   608  00002A                     	ds	3
   609  00002D                     subroutine_interruptions@priorite:
   610                           	opt stack 0
   611                           
   612                           ; 1 bytes @ 0x2C
   613  00002D                     	ds	1
   614  00002E                     ??_low_isr:
   615                           
   616                           ; 0 bytes @ 0x2D
   617  00002E                     	ds	17
   618                           tblptru	equ	0xFF8
   619                           postinc0	equ	0xFEE
   620                           wreg	equ	0xFE8
   621                           
   622 ;;
   623 ;;Main: autosize = 0, tempsize = 0, incstack = 0, save=0
   624 ;;
   625 ;; *************** function _main *****************
   626 ;; Defined at:
   627 ;;		line 82 in file "main.c"
   628 ;; Parameters:    Size  Location     Type
   629 ;;  argc            2   59[BANK0 ] int 
   630 ;;  argv            3   61[BANK0 ] PTR PTR unsigned char 
   631 ;; Auto vars:     Size  Location     Type
   632 ;;  i               2   64[BANK0 ] int 
   633 ;; Return value:  Size  Location     Type
   634 ;;                  2   59[BANK0 ] int 
   635 ;; Registers used:
   636 ;;		wreg, status,2, cstack
   637 ;; Tracked objects:
   638 ;;		On entry : 0/0
   639 ;;		On exit  : 0/0
   640 ;;		Unchanged: 0/0
   641 ;; Data sizes:     COMRAM   BANK0   BANK1   BANK2
   642 ;;      Params:         0       5       0       0
   643 ;;      Locals:         0       2       0       0
   644 ;;      Temps:          0       0       0       0
   645 ;;      Totals:         0       7       0       0
   646 ;;Total ram usage:        7 bytes
   647 ;; Hardware stack levels required when called:   17
   648 ;; This function calls:
   649 ;;		_init_system
   650 ;; This function is called by:
   651 ;;		Startup code after reset
   652 ;; This function uses a non-reentrant model
   653 ;;
   654                           
   655                           	psect	text0
   656  001B08                     __ptext0:
   657                           	opt stack 0
   658  001B08                     _main:
   659                           	opt stack 14
   660                           
   661                           ;main.c: 85: init_system ();
   662                           
   663                           ; BSR set to: 1
   664                           ;incstack = 0
   665  001B08  EC51  F00D         	call	_init_system	;wreg free
   666                           
   667                           ;main.c: 86: int i = 0;
   668  001B0C  0E00               	movlw	0
   669  001B0E  0100               	movlb	0	; () banked
   670  001B10  6FA1               	movwf	(main@i+1)& (0+255),b
   671  001B12  0E00               	movlw	0
   672  001B14  6FA0               	movwf	main@i& (0+255),b
   673                           
   674                           ; BSR set to: 0
   675                           ;main.c: 88: PORTDbits.RD1 = 1;
   676  001B16  8283               	bsf	3971,1,c	;volatile
   677                           
   678                           ; BSR set to: 0
   679                           ;main.c: 89: PORTBbits.RB0 = 1;
   680  001B18  8081               	bsf	3969,0,c	;volatile
   681  001B1A  D7FF               	goto	l10
   682  001B1C  D7FF               	goto	l13
   683                           
   684                           ;main.c: 133: return (0);
   685                           ;	Return value of _main is never used
   686  001B1E  EF54  F000         	goto	start
   687  001B22                     __end_of_main:
   688                           	opt stack 0
   689                           tblptru	equ	0xFF8
   690                           postinc0	equ	0xFEE
   691                           wreg	equ	0xFE8
   692                           
   693 ;; *************** function _init_system *****************
   694 ;; Defined at:
   695 ;;		line 22 in file "system.c"
   696 ;; Parameters:    Size  Location     Type
   697 ;;		None
   698 ;; Auto vars:     Size  Location     Type
   699 ;;		None
   700 ;; Return value:  Size  Location     Type
   701 ;;		None               void
   702 ;; Registers used:
   703 ;;		wreg, status,2, cstack
   704 ;; Tracked objects:
   705 ;;		On entry : 0/0
   706 ;;		On exit  : 0/0
   707 ;;		Unchanged: 0/0
   708 ;; Data sizes:     COMRAM   BANK0   BANK1   BANK2
   709 ;;      Params:         0       0       0       0
   710 ;;      Locals:         0       0       0       0
   711 ;;      Temps:          0       0       0       0
   712 ;;      Totals:         0       0       0       0
   713 ;;Total ram usage:        0 bytes
   714 ;; Hardware stack levels used:    1
   715 ;; Hardware stack levels required when called:   16
   716 ;; This function calls:
   717 ;;		_ConfigInterrupt
   718 ;;		_ConfigPorts
   719 ;;		_config_QEI
   720 ;;		_config_pwm
   721 ;;		_config_uart
   722 ;;		_init_timer_0
   723 ;;		_init_uart_logiciel
   724 ;;		_init_uart_reception
   725 ;;		_reglage_PID
   726 ;; This function is called by:
   727 ;;		_main
   728 ;; This function uses a non-reentrant model
   729 ;;
   730                           
   731                           	psect	text1
   732  001AA2                     __ptext1:
   733                           	opt stack 0
   734  001AA2                     _init_system:
   735                           	opt stack 14
   736                           
   737                           ;system.c: 25: ConfigPorts();
   738                           
   739                           ;incstack = 0
   740  001AA2  EC07  F00A         	call	_ConfigPorts	;wreg free
   741                           
   742                           ;system.c: 26: ConfigInterrupt();
   743  001AA6  EC94  F00A         	call	_ConfigInterrupt	;wreg free
   744                           
   745                           ;system.c: 27: init_timer_0();
   746  001AAA  EC9D  F00D         	call	_init_timer_0	;wreg free
   747                           
   748                           ;system.c: 28: init_uart_logiciel();
   749  001AAE  ECC4  F00D         	call	_init_uart_logiciel	;wreg free
   750                           
   751                           ;system.c: 29: init_uart_reception();
   752  001AB2  ECA8  F00D         	call	_init_uart_reception	;wreg free
   753                           
   754                           ;system.c: 30: config_uart ();
   755  001AB6  EC76  F00D         	call	_config_uart	;wreg free
   756                           
   757                           ;system.c: 31: config_pwm();
   758  001ABA  EC47  F00C         	call	_config_pwm	;wreg free
   759                           
   760                           ;system.c: 32: config_QEI();
   761  001ABE  ECC4  F00B         	call	_config_QEI	;wreg free
   762                           
   763                           ;system.c: 33: reglage_PID();
   764  001AC2  EC06  F00D         	call	_reglage_PID	;wreg free
   765  001AC6  0012               	return		;funcret
   766  001AC8                     __end_of_init_system:
   767                           	opt stack 0
   768                           tblptru	equ	0xFF8
   769                           postinc0	equ	0xFEE
   770                           wreg	equ	0xFE8
   771                           
   772 ;; *************** function _reglage_PID *****************
   773 ;; Defined at:
   774 ;;		line 64 in file "asserv.c"
   775 ;; Parameters:    Size  Location     Type
   776 ;;		None
   777 ;; Auto vars:     Size  Location     Type
   778 ;;		None
   779 ;; Return value:  Size  Location     Type
   780 ;;		None               void
   781 ;; Registers used:
   782 ;;		wreg, status,2
   783 ;; Tracked objects:
   784 ;;		On entry : 0/0
   785 ;;		On exit  : 0/0
   786 ;;		Unchanged: 0/0
   787 ;; Data sizes:     COMRAM   BANK0   BANK1   BANK2
   788 ;;      Params:         0       0       0       0
   789 ;;      Locals:         0       0       0       0
   790 ;;      Temps:          0       0       0       0
   791 ;;      Totals:         0       0       0       0
   792 ;;Total ram usage:        0 bytes
   793 ;; Hardware stack levels used:    1
   794 ;; Hardware stack levels required when called:   14
   795 ;; This function calls:
   796 ;;		Nothing
   797 ;; This function is called by:
   798 ;;		_init_system
   799 ;; This function uses a non-reentrant model
   800 ;;
   801                           
   802                           	psect	text2
   803  001A0C                     __ptext2:
   804                           	opt stack 0
   805  001A0C                     _reglage_PID:
   806                           	opt stack 15
   807                           
   808                           ;asserv.c: 67: PID.KP = 0.;
   809                           
   810                           ;incstack = 0
   811  001A0C  0E00               	movlw	0
   812  001A0E  0100               	movlb	0	; () banked
   813  001A10  6FAD               	movwf	_PID& (0+255),b
   814  001A12  0E00               	movlw	0
   815  001A14  0100               	movlb	0	; () banked
   816  001A16  6FAE               	movwf	(_PID+1)& (0+255),b
   817  001A18  0E00               	movlw	0
   818  001A1A  0100               	movlb	0	; () banked
   819  001A1C  6FAF               	movwf	(_PID+2)& (0+255),b
   820                           
   821                           ;asserv.c: 68: PID.KI = 10.;
   822  001A1E  0E00               	movlw	0
   823  001A20  0100               	movlb	0	; () banked
   824  001A22  6FB0               	movwf	(_PID+3)& (0+255),b
   825  001A24  0E20               	movlw	32
   826  001A26  0100               	movlb	0	; () banked
   827  001A28  6FB1               	movwf	(_PID+4)& (0+255),b
   828  001A2A  0E41               	movlw	65
   829  001A2C  0100               	movlb	0	; () banked
   830  001A2E  6FB2               	movwf	(_PID+5)& (0+255),b
   831                           
   832                           ;asserv.c: 69: PID.KD = 0.;
   833  001A30  0E00               	movlw	0
   834  001A32  0100               	movlb	0	; () banked
   835  001A34  6FB3               	movwf	(_PID+6)& (0+255),b
   836  001A36  0E00               	movlw	0
   837  001A38  0100               	movlb	0	; () banked
   838  001A3A  6FB4               	movwf	(_PID+7)& (0+255),b
   839  001A3C  0E00               	movlw	0
   840  001A3E  0100               	movlb	0	; () banked
   841  001A40  6FB5               	movwf	(_PID+8)& (0+255),b
   842                           
   843                           ; BSR set to: 0
   844  001A42  0012               	return		;funcret
   845  001A44                     __end_of_reglage_PID:
   846                           	opt stack 0
   847                           tblptru	equ	0xFF8
   848                           postinc0	equ	0xFEE
   849                           wreg	equ	0xFE8
   850                           
   851 ;; *************** function _init_uart_reception *****************
   852 ;; Defined at:
   853 ;;		line 72 in file "uart.c"
   854 ;; Parameters:    Size  Location     Type
   855 ;;		None
   856 ;; Auto vars:     Size  Location     Type
   857 ;;		None
   858 ;; Return value:  Size  Location     Type
   859 ;;		None               void
   860 ;; Registers used:
   861 ;;		wreg, status,2
   862 ;; Tracked objects:
   863 ;;		On entry : 0/0
   864 ;;		On exit  : 0/0
   865 ;;		Unchanged: 0/0
   866 ;; Data sizes:     COMRAM   BANK0   BANK1   BANK2
   867 ;;      Params:         0       0       0       0
   868 ;;      Locals:         0       0       0       0
   869 ;;      Temps:          0       0       0       0
   870 ;;      Totals:         0       0       0       0
   871 ;;Total ram usage:        0 bytes
   872 ;; Hardware stack levels used:    1
   873 ;; Hardware stack levels required when called:   14
   874 ;; This function calls:
   875 ;;		Nothing
   876 ;; This function is called by:
   877 ;;		_init_system
   878 ;; This function uses a non-reentrant model
   879 ;;
   880                           
   881                           	psect	text3
   882  001B50                     __ptext3:
   883                           	opt stack 0
   884  001B50                     _init_uart_reception:
   885                           	opt stack 15
   886                           
   887                           ;uart.c: 74: uart_reception.buffer_plein = 0;
   888                           
   889                           ; BSR set to: 0
   890                           ;incstack = 0
   891  001B50  0E00               	movlw	0
   892  001B52  0101               	movlb	1	; () banked
   893  001B54  6F65               	movwf	(_uart_reception+101)& (0+255),b
   894                           
   895                           ;uart.c: 75: uart_reception.buffer_vide = 1;
   896  001B56  0E01               	movlw	1
   897  001B58  0101               	movlb	1	; () banked
   898  001B5A  6F66               	movwf	(_uart_reception+102)& (0+255),b
   899                           
   900                           ;uart.c: 76: uart_reception.indice = 0;
   901  001B5C  0E00               	movlw	0
   902  001B5E  0101               	movlb	1	; () banked
   903  001B60  6F64               	movwf	(_uart_reception+100)& (0+255),b
   904                           
   905                           ; BSR set to: 1
   906  001B62  0012               	return		;funcret
   907  001B64                     __end_of_init_uart_reception:
   908                           	opt stack 0
   909                           tblptru	equ	0xFF8
   910                           postinc0	equ	0xFEE
   911                           wreg	equ	0xFE8
   912                           
   913 ;; *************** function _init_uart_logiciel *****************
   914 ;; Defined at:
   915 ;;		line 65 in file "uart.c"
   916 ;; Parameters:    Size  Location     Type
   917 ;;		None
   918 ;; Auto vars:     Size  Location     Type
   919 ;;		None
   920 ;; Return value:  Size  Location     Type
   921 ;;		None               void
   922 ;; Registers used:
   923 ;;		wreg, status,2, cstack
   924 ;; Tracked objects:
   925 ;;		On entry : 0/0
   926 ;;		On exit  : 0/0
   927 ;;		Unchanged: 0/0
   928 ;; Data sizes:     COMRAM   BANK0   BANK1   BANK2
   929 ;;      Params:         0       0       0       0
   930 ;;      Locals:         0       0       0       0
   931 ;;      Temps:          0       0       0       0
   932 ;;      Totals:         0       0       0       0
   933 ;;Total ram usage:        0 bytes
   934 ;; Hardware stack levels used:    1
   935 ;; Hardware stack levels required when called:   15
   936 ;; This function calls:
   937 ;;		_init_timer_1
   938 ;; This function is called by:
   939 ;;		_init_system
   940 ;; This function uses a non-reentrant model
   941 ;;
   942                           
   943                           	psect	text4
   944  001B88                     __ptext4:
   945                           	opt stack 0
   946  001B88                     _init_uart_logiciel:
   947                           	opt stack 14
   948                           
   949                           ;uart.c: 67: uart_logiciel.transmission_en_cours = 0;
   950                           
   951                           ; BSR set to: 1
   952                           ;incstack = 0
   953  001B88  0E00               	movlw	0
   954  001B8A  6E5A               	movwf	_uart_logiciel+11,c
   955                           
   956                           ;uart.c: 68: uart_logiciel.indice = 0;
   957  001B8C  0E00               	movlw	0
   958  001B8E  6E5B               	movwf	_uart_logiciel+12,c
   959                           
   960                           ;uart.c: 69: init_timer_1();
   961  001B90  EC91  F00D         	call	_init_timer_1	;wreg free
   962  001B94  0012               	return		;funcret
   963  001B96                     __end_of_init_uart_logiciel:
   964                           	opt stack 0
   965                           tblptru	equ	0xFF8
   966                           postinc0	equ	0xFEE
   967                           wreg	equ	0xFE8
   968                           
   969 ;; *************** function _init_timer_1 *****************
   970 ;; Defined at:
   971 ;;		line 55 in file "system.c"
   972 ;; Parameters:    Size  Location     Type
   973 ;;		None
   974 ;; Auto vars:     Size  Location     Type
   975 ;;		None
   976 ;; Return value:  Size  Location     Type
   977 ;;		None               void
   978 ;; Registers used:
   979 ;;		wreg, status,2
   980 ;; Tracked objects:
   981 ;;		On entry : 0/0
   982 ;;		On exit  : 0/0
   983 ;;		Unchanged: 0/0
   984 ;; Data sizes:     COMRAM   BANK0   BANK1   BANK2
   985 ;;      Params:         0       0       0       0
   986 ;;      Locals:         0       0       0       0
   987 ;;      Temps:          0       0       0       0
   988 ;;      Totals:         0       0       0       0
   989 ;;Total ram usage:        0 bytes
   990 ;; Hardware stack levels used:    1
   991 ;; Hardware stack levels required when called:   14
   992 ;; This function calls:
   993 ;;		Nothing
   994 ;; This function is called by:
   995 ;;		_init_uart_logiciel
   996 ;; This function uses a non-reentrant model
   997 ;;
   998                           
   999                           	psect	text5
  1000  001B22                     __ptext5:
  1001                           	opt stack 0
  1002  001B22                     _init_timer_1:
  1003                           	opt stack 14
  1004                           
  1005                           ;system.c: 57: T1CONbits.RD16 = 1;
  1006                           
  1007                           ;incstack = 0
  1008  001B22  8ECD               	bsf	4045,7,c	;volatile
  1009                           
  1010                           ;system.c: 58: T1CONbits.T1RUN = 0;
  1011  001B24  9CCD               	bcf	4045,6,c	;volatile
  1012                           
  1013                           ;system.c: 59: T1CONbits.TMR1CS = 0;
  1014  001B26  92CD               	bcf	4045,1,c	;volatile
  1015                           
  1016                           ;system.c: 60: T1CONbits.T1OSCEN = 1;
  1017  001B28  86CD               	bsf	4045,3,c	;volatile
  1018                           
  1019                           ;system.c: 61: T1CONbits.T1CKPS0 = 0;
  1020  001B2A  98CD               	bcf	4045,4,c	;volatile
  1021                           
  1022                           ;system.c: 62: T1CONbits.T1CKPS1 = 0;
  1023  001B2C  9ACD               	bcf	4045,5,c	;volatile
  1024                           
  1025                           ;system.c: 64: TMR1 = 65519;
  1026  001B2E  0EFF               	movlw	255
  1027  001B30  6ECF               	movwf	4047,c	;volatile
  1028  001B32  0EEF               	movlw	239
  1029  001B34  6ECE               	movwf	4046,c	;volatile
  1030                           
  1031                           ;system.c: 67: TMR1ON = 1;
  1032  001B36  80CD               	bsf	4045,0,c	;volatile
  1033  001B38  0012               	return		;funcret
  1034  001B3A                     __end_of_init_timer_1:
  1035                           	opt stack 0
  1036                           tblptru	equ	0xFF8
  1037                           postinc0	equ	0xFEE
  1038                           wreg	equ	0xFE8
  1039                           
  1040 ;; *************** function _init_timer_0 *****************
  1041 ;; Defined at:
  1042 ;;		line 43 in file "system.c"
  1043 ;; Parameters:    Size  Location     Type
  1044 ;;		None
  1045 ;; Auto vars:     Size  Location     Type
  1046 ;;		None
  1047 ;; Return value:  Size  Location     Type
  1048 ;;		None               void
  1049 ;; Registers used:
  1050 ;;		wreg, status,2
  1051 ;; Tracked objects:
  1052 ;;		On entry : 0/0
  1053 ;;		On exit  : 0/0
  1054 ;;		Unchanged: 0/0
  1055 ;; Data sizes:     COMRAM   BANK0   BANK1   BANK2
  1056 ;;      Params:         0       0       0       0
  1057 ;;      Locals:         0       0       0       0
  1058 ;;      Temps:          0       0       0       0
  1059 ;;      Totals:         0       0       0       0
  1060 ;;Total ram usage:        0 bytes
  1061 ;; Hardware stack levels used:    1
  1062 ;; Hardware stack levels required when called:   14
  1063 ;; This function calls:
  1064 ;;		Nothing
  1065 ;; This function is called by:
  1066 ;;		_init_system
  1067 ;; This function uses a non-reentrant model
  1068 ;;
  1069                           
  1070                           	psect	text6
  1071  001B3A                     __ptext6:
  1072                           	opt stack 0
  1073  001B3A                     _init_timer_0:
  1074                           	opt stack 15
  1075                           
  1076                           ;system.c: 45: T0CONbits.T016BIT = 1;
  1077                           
  1078                           ;incstack = 0
  1079  001B3A  8CD5               	bsf	4053,6,c	;volatile
  1080                           
  1081                           ;system.c: 46: T0CONbits.T0PS = 0b100;
  1082  001B3C  50D5               	movf	4053,w,c	;volatile
  1083  001B3E  0BF8               	andlw	-8
  1084  001B40  0904               	iorlw	4
  1085  001B42  6ED5               	movwf	4053,c	;volatile
  1086                           
  1087                           ;system.c: 47: T0CONbits.T0CS = 0;
  1088  001B44  9AD5               	bcf	4053,5,c	;volatile
  1089                           
  1090                           ;system.c: 48: T0CONbits.PSA = 0;
  1091  001B46  96D5               	bcf	4053,3,c	;volatile
  1092                           
  1093                           ;system.c: 50: TMR0L = 131;
  1094  001B48  0E83               	movlw	131
  1095  001B4A  6ED6               	movwf	4054,c	;volatile
  1096                           
  1097                           ;system.c: 52: TMR0ON = 1;
  1098  001B4C  8ED5               	bsf	4053,7,c	;volatile
  1099  001B4E  0012               	return		;funcret
  1100  001B50                     __end_of_init_timer_0:
  1101                           	opt stack 0
  1102                           tblptru	equ	0xFF8
  1103                           postinc0	equ	0xFEE
  1104                           wreg	equ	0xFE8
  1105                           
  1106 ;; *************** function _config_uart *****************
  1107 ;; Defined at:
  1108 ;;		line 31 in file "uart.c"
  1109 ;; Parameters:    Size  Location     Type
  1110 ;;		None
  1111 ;; Auto vars:     Size  Location     Type
  1112 ;;		None
  1113 ;; Return value:  Size  Location     Type
  1114 ;;		None               void
  1115 ;; Registers used:
  1116 ;;		wreg, status,2
  1117 ;; Tracked objects:
  1118 ;;		On entry : 0/0
  1119 ;;		On exit  : 0/0
  1120 ;;		Unchanged: 0/0
  1121 ;; Data sizes:     COMRAM   BANK0   BANK1   BANK2
  1122 ;;      Params:         0       0       0       0
  1123 ;;      Locals:         0       0       0       0
  1124 ;;      Temps:          0       0       0       0
  1125 ;;      Totals:         0       0       0       0
  1126 ;;Total ram usage:        0 bytes
  1127 ;; Hardware stack levels used:    1
  1128 ;; Hardware stack levels required when called:   14
  1129 ;; This function calls:
  1130 ;;		Nothing
  1131 ;; This function is called by:
  1132 ;;		_init_system
  1133 ;; This function uses a non-reentrant model
  1134 ;;
  1135                           
  1136                           	psect	text7
  1137  001AEC                     __ptext7:
  1138                           	opt stack 0
  1139  001AEC                     _config_uart:
  1140                           	opt stack 15
  1141                           
  1142                           ;uart.c: 39: TXSTAbits.TXEN = 1;
  1143                           
  1144                           ;incstack = 0
  1145  001AEC  8AAC               	bsf	4012,5,c	;volatile
  1146                           
  1147                           ;uart.c: 40: TXSTAbits.TX9 = 0;
  1148  001AEE  9CAC               	bcf	4012,6,c	;volatile
  1149                           
  1150                           ;uart.c: 41: TXSTAbits.SYNC = 0;
  1151  001AF0  98AC               	bcf	4012,4,c	;volatile
  1152                           
  1153                           ;uart.c: 42: TXSTAbits.SENDB = 0;
  1154  001AF2  96AC               	bcf	4012,3,c	;volatile
  1155                           
  1156                           ;uart.c: 43: TXSTAbits.BRGH = 1;
  1157  001AF4  84AC               	bsf	4012,2,c	;volatile
  1158                           
  1159                           ;uart.c: 44: TXSTAbits.TX9 = 0;
  1160  001AF6  9CAC               	bcf	4012,6,c	;volatile
  1161                           
  1162                           ;uart.c: 47: BAUDCONbits.BRG16 = 1;
  1163  001AF8  86AA               	bsf	4010,3,c	;volatile
  1164                           
  1165                           ;uart.c: 49: BAUDCONbits.ABDEN = 0;
  1166  001AFA  90AA               	bcf	4010,0,c	;volatile
  1167                           
  1168                           ;uart.c: 55: SPBRG = 35;
  1169  001AFC  0E23               	movlw	35
  1170  001AFE  6EAF               	movwf	4015,c	;volatile
  1171                           
  1172                           ;uart.c: 59: RCSTAbits.SPEN = 1;
  1173  001B00  8EAB               	bsf	4011,7,c	;volatile
  1174                           
  1175                           ;uart.c: 60: RCSTAbits.RX9 = 0;
  1176  001B02  9CAB               	bcf	4011,6,c	;volatile
  1177                           
  1178                           ;uart.c: 61: RCSTAbits.CREN = 1;
  1179  001B04  88AB               	bsf	4011,4,c	;volatile
  1180  001B06  0012               	return		;funcret
  1181  001B08                     __end_of_config_uart:
  1182                           	opt stack 0
  1183                           tblptru	equ	0xFF8
  1184                           postinc0	equ	0xFEE
  1185                           wreg	equ	0xFE8
  1186                           
  1187 ;; *************** function _config_pwm *****************
  1188 ;; Defined at:
  1189 ;;		line 26 in file "moteur.c"
  1190 ;; Parameters:    Size  Location     Type
  1191 ;;		None
  1192 ;; Auto vars:     Size  Location     Type
  1193 ;;		None
  1194 ;; Return value:  Size  Location     Type
  1195 ;;		None               void
  1196 ;; Registers used:
  1197 ;;		wreg, status,2
  1198 ;; Tracked objects:
  1199 ;;		On entry : 0/0
  1200 ;;		On exit  : 0/0
  1201 ;;		Unchanged: 0/0
  1202 ;; Data sizes:     COMRAM   BANK0   BANK1   BANK2
  1203 ;;      Params:         0       0       0       0
  1204 ;;      Locals:         0       0       0       0
  1205 ;;      Temps:          0       0       0       0
  1206 ;;      Totals:         0       0       0       0
  1207 ;;Total ram usage:        0 bytes
  1208 ;; Hardware stack levels used:    1
  1209 ;; Hardware stack levels required when called:   14
  1210 ;; This function calls:
  1211 ;;		Nothing
  1212 ;; This function is called by:
  1213 ;;		_init_system
  1214 ;; This function uses a non-reentrant model
  1215 ;;
  1216                           
  1217                           	psect	text8
  1218  00188E                     __ptext8:
  1219                           	opt stack 0
  1220  00188E                     _config_pwm:
  1221                           	opt stack 15
  1222                           
  1223                           ;moteur.c: 28: PTCON0bits.PTOPS = 0;
  1224                           
  1225                           ;incstack = 0
  1226  00188E  987F               	bcf	3967,4,c	;volatile
  1227  001890  9A7F               	bcf	3967,5,c	;volatile
  1228  001892  9C7F               	bcf	3967,6,c	;volatile
  1229  001894  9E7F               	bcf	3967,7,c	;volatile
  1230                           
  1231                           ;moteur.c: 29: PTCON0bits.PTCKPS = 0;
  1232  001896  0EF3               	movlw	-13
  1233  001898  167F               	andwf	3967,f,c	;volatile
  1234                           
  1235                           ;moteur.c: 30: PTCON0bits.PTMOD = 0;
  1236  00189A  0EFC               	movlw	-4
  1237  00189C  167F               	andwf	3967,f,c	;volatile
  1238                           
  1239                           ;moteur.c: 32: PTCON1bits.PTEN = 1;
  1240  00189E  8E7E               	bsf	3966,7,c	;volatile
  1241                           
  1242                           ;moteur.c: 34: PWMCON0bits.PMOD0 = 1;
  1243  0018A0  806F               	bsf	3951,0,c	;volatile
  1244                           
  1245                           ;moteur.c: 35: PWMCON0bits.PWMEN = 0b001;
  1246  0018A2  506F               	movf	3951,w,c	;volatile
  1247  0018A4  0B8F               	andlw	-113
  1248  0018A6  0910               	iorlw	16
  1249  0018A8  6E6F               	movwf	3951,c	;volatile
  1250                           
  1251                           ;moteur.c: 37: PWMCON1bits.UDIS = 0;
  1252  0018AA  926E               	bcf	3950,1,c	;volatile
  1253                           
  1254                           ;moteur.c: 39: PTPERL = 166;
  1255  0018AC  0EA6               	movlw	166
  1256  0018AE  6E7B               	movwf	3963,c	;volatile
  1257                           
  1258                           ;moteur.c: 40: PTPERH = 0;
  1259  0018B0  0E00               	movlw	0
  1260  0018B2  6E7A               	movwf	3962,c	;volatile
  1261                           
  1262                           ;moteur.c: 43: PDC0L = 0;
  1263  0018B4  0E00               	movlw	0
  1264  0018B6  6E79               	movwf	3961,c	;volatile
  1265                           
  1266                           ;moteur.c: 44: PDC0H = 0;
  1267  0018B8  0E00               	movlw	0
  1268  0018BA  6E78               	movwf	3960,c	;volatile
  1269                           
  1270                           ;moteur.c: 45: PDC1L = 0;
  1271  0018BC  0E00               	movlw	0
  1272  0018BE  6E77               	movwf	3959,c	;volatile
  1273                           
  1274                           ;moteur.c: 46: PDC1H = 0;
  1275  0018C0  0E00               	movlw	0
  1276  0018C2  6E76               	movwf	3958,c	;volatile
  1277                           
  1278                           ;moteur.c: 47: PDC2L = 0;
  1279  0018C4  0E00               	movlw	0
  1280  0018C6  6E75               	movwf	3957,c	;volatile
  1281                           
  1282                           ;moteur.c: 48: PDC2H = 0;
  1283  0018C8  0E00               	movlw	0
  1284  0018CA  6E74               	movwf	3956,c	;volatile
  1285                           
  1286                           ;moteur.c: 49: PDC3L = 0;
  1287  0018CC  0E00               	movlw	0
  1288  0018CE  6E73               	movwf	3955,c	;volatile
  1289                           
  1290                           ;moteur.c: 50: PDC3H = 0;
  1291  0018D0  0E00               	movlw	0
  1292  0018D2  6E72               	movwf	3954,c	;volatile
  1293  0018D4  0012               	return		;funcret
  1294  0018D6                     __end_of_config_pwm:
  1295                           	opt stack 0
  1296                           tblptru	equ	0xFF8
  1297                           postinc0	equ	0xFEE
  1298                           wreg	equ	0xFE8
  1299                           
  1300 ;; *************** function _config_QEI *****************
  1301 ;; Defined at:
  1302 ;;		line 81 in file "moteur.c"
  1303 ;; Parameters:    Size  Location     Type
  1304 ;;		None
  1305 ;; Auto vars:     Size  Location     Type
  1306 ;;		None
  1307 ;; Return value:  Size  Location     Type
  1308 ;;		None               void
  1309 ;; Registers used:
  1310 ;;		wreg, status,2
  1311 ;; Tracked objects:
  1312 ;;		On entry : 0/0
  1313 ;;		On exit  : 0/0
  1314 ;;		Unchanged: 0/0
  1315 ;; Data sizes:     COMRAM   BANK0   BANK1   BANK2
  1316 ;;      Params:         0       0       0       0
  1317 ;;      Locals:         0       0       0       0
  1318 ;;      Temps:          0       0       0       0
  1319 ;;      Totals:         0       0       0       0
  1320 ;;Total ram usage:        0 bytes
  1321 ;; Hardware stack levels used:    1
  1322 ;; Hardware stack levels required when called:   14
  1323 ;; This function calls:
  1324 ;;		Nothing
  1325 ;; This function is called by:
  1326 ;;		_init_system
  1327 ;; This function uses a non-reentrant model
  1328 ;;
  1329                           
  1330                           	psect	text9
  1331  001788                     __ptext9:
  1332                           	opt stack 0
  1333  001788                     _config_QEI:
  1334                           	opt stack 15
  1335                           
  1336                           ;moteur.c: 83: CAP1CONbits.CAP1REN = 1;
  1337                           
  1338                           ;incstack = 0
  1339  001788  8C63               	bsf	3939,6,c	;volatile
  1340                           
  1341                           ;moteur.c: 84: ANSEL0 = 0;
  1342  00178A  0E00               	movlw	0
  1343  00178C  6EB8               	movwf	4024,c	;volatile
  1344                           
  1345                           ;moteur.c: 87: QEICONbits.VELM = 1;
  1346  00178E  8EB6               	bsf	4022,7,c	;volatile
  1347                           
  1348                           ;moteur.c: 88: QEICONbits.QERR = 0;
  1349  001790  9CB6               	bcf	4022,6,c	;volatile
  1350                           
  1351                           ;moteur.c: 89: QEICONbits.QEIM = 0b110;
  1352  001792  50B6               	movf	4022,w,c	;volatile
  1353  001794  0BE3               	andlw	-29
  1354  001796  0918               	iorlw	24
  1355  001798  6EB6               	movwf	4022,c	;volatile
  1356                           
  1357                           ;moteur.c: 90: QEICONbits.PDEC = 0b01;
  1358  00179A  50B6               	movf	4022,w,c	;volatile
  1359  00179C  0BFC               	andlw	-4
  1360  00179E  0901               	iorlw	1
  1361  0017A0  6EB6               	movwf	4022,c	;volatile
  1362                           
  1363                           ;moteur.c: 95: DFLTCONbits.FLT3EN = 1;
  1364  0017A2  8A60               	bsf	3936,5,c	;volatile
  1365                           
  1366                           ;moteur.c: 96: DFLTCONbits.FLT2EN = 1;
  1367  0017A4  8860               	bsf	3936,4,c	;volatile
  1368                           
  1369                           ;moteur.c: 97: DFLTCONbits.FLTCK = 0b010;
  1370  0017A6  5060               	movf	3936,w,c	;volatile
  1371  0017A8  0BF8               	andlw	-8
  1372  0017AA  0902               	iorlw	2
  1373  0017AC  6E60               	movwf	3936,c	;volatile
  1374                           
  1375                           ;moteur.c: 99: POSCNTH = 0;
  1376  0017AE  0E00               	movlw	0
  1377  0017B0  6E67               	movwf	3943,c	;volatile
  1378                           
  1379                           ;moteur.c: 100: POSCNTL = 0;
  1380  0017B2  0E00               	movlw	0
  1381  0017B4  6E66               	movwf	3942,c	;volatile
  1382                           
  1383                           ;moteur.c: 102: MAXCNTH = (uint8_t) ((4 * 2000) / 256);
  1384  0017B6  0E1F               	movlw	31
  1385  0017B8  6E65               	movwf	3941,c	;volatile
  1386                           
  1387                           ;moteur.c: 103: MAXCNTL = (uint8_t) ((4 * 2000) % 256);
  1388  0017BA  0E40               	movlw	64
  1389  0017BC  6E64               	movwf	3940,c	;volatile
  1390                           
  1391                           ;moteur.c: 105: position.ancien = 0;
  1392  0017BE  0E00               	movlw	0
  1393  0017C0  0100               	movlb	0	; () banked
  1394  0017C2  6FA3               	movwf	(_position+1)& (0+255),b
  1395  0017C4  0E00               	movlw	0
  1396  0017C6  6FA2               	movwf	_position& (0+255),b
  1397                           
  1398                           ;moteur.c: 106: position.ecart = 0;
  1399  0017C8  0E00               	movlw	0
  1400  0017CA  0100               	movlb	0	; () banked
  1401  0017CC  6FA6               	movwf	(_position+4)& (0+255),b
  1402  0017CE  0E00               	movlw	0
  1403  0017D0  6FA7               	movwf	(_position+5)& (0+255),b
  1404  0017D2  0E00               	movlw	0
  1405  0017D4  6FA8               	movwf	(_position+6)& (0+255),b
  1406  0017D6  0E00               	movlw	0
  1407  0017D8  6FA9               	movwf	(_position+7)& (0+255),b
  1408                           
  1409                           ;moteur.c: 107: position.nouvelle = 0;
  1410  0017DA  0E00               	movlw	0
  1411  0017DC  0100               	movlb	0	; () banked
  1412  0017DE  6FA5               	movwf	(_position+3)& (0+255),b
  1413  0017E0  0E00               	movlw	0
  1414  0017E2  6FA4               	movwf	(_position+2)& (0+255),b
  1415                           
  1416                           ; BSR set to: 0
  1417  0017E4  0012               	return		;funcret
  1418  0017E6                     __end_of_config_QEI:
  1419                           	opt stack 0
  1420                           tblptru	equ	0xFF8
  1421                           postinc0	equ	0xFEE
  1422                           wreg	equ	0xFE8
  1423                           
  1424 ;; *************** function _ConfigPorts *****************
  1425 ;; Defined at:
  1426 ;;		line 89 in file "system.c"
  1427 ;; Parameters:    Size  Location     Type
  1428 ;;		None
  1429 ;; Auto vars:     Size  Location     Type
  1430 ;;		None
  1431 ;; Return value:  Size  Location     Type
  1432 ;;		None               void
  1433 ;; Registers used:
  1434 ;;		None
  1435 ;; Tracked objects:
  1436 ;;		On entry : 0/0
  1437 ;;		On exit  : 0/0
  1438 ;;		Unchanged: 0/0
  1439 ;; Data sizes:     COMRAM   BANK0   BANK1   BANK2
  1440 ;;      Params:         0       0       0       0
  1441 ;;      Locals:         0       0       0       0
  1442 ;;      Temps:          0       0       0       0
  1443 ;;      Totals:         0       0       0       0
  1444 ;;Total ram usage:        0 bytes
  1445 ;; Hardware stack levels used:    1
  1446 ;; Hardware stack levels required when called:   14
  1447 ;; This function calls:
  1448 ;;		Nothing
  1449 ;; This function is called by:
  1450 ;;		_init_system
  1451 ;; This function uses a non-reentrant model
  1452 ;;
  1453                           
  1454                           	psect	text10
  1455  00140E                     __ptext10:
  1456                           	opt stack 0
  1457  00140E                     _ConfigPorts:
  1458                           	opt stack 15
  1459                           
  1460                           ;system.c: 92: TRISAbits.RA0 = 0;
  1461                           
  1462                           ; BSR set to: 0
  1463                           ;incstack = 0
  1464  00140E  9092               	bcf	3986,0,c	;volatile
  1465                           
  1466                           ;system.c: 93: TRISAbits.RA1 = 0;
  1467  001410  9292               	bcf	3986,1,c	;volatile
  1468                           
  1469                           ;system.c: 94: TRISAbits.RA2 = 0;
  1470  001412  9492               	bcf	3986,2,c	;volatile
  1471                           
  1472                           ;system.c: 95: TRISAbits.RA3 = 1;
  1473  001414  8692               	bsf	3986,3,c	;volatile
  1474                           
  1475                           ;system.c: 96: TRISAbits.RA4 = 1;
  1476  001416  8892               	bsf	3986,4,c	;volatile
  1477                           
  1478                           ;system.c: 97: TRISAbits.RA5 = 0;
  1479  001418  9A92               	bcf	3986,5,c	;volatile
  1480                           
  1481                           ;system.c: 98: TRISAbits.RA6 = 1;
  1482  00141A  8C92               	bsf	3986,6,c	;volatile
  1483                           
  1484                           ;system.c: 99: TRISAbits.RA7 = 1;
  1485  00141C  8E92               	bsf	3986,7,c	;volatile
  1486                           
  1487                           ;system.c: 102: TRISBbits.RB0 = 0;
  1488  00141E  9093               	bcf	3987,0,c	;volatile
  1489                           
  1490                           ;system.c: 103: TRISBbits.RB1 = 0;
  1491  001420  9293               	bcf	3987,1,c	;volatile
  1492                           
  1493                           ;system.c: 104: TRISBbits.RB2 = 0;
  1494  001422  9493               	bcf	3987,2,c	;volatile
  1495                           
  1496                           ;system.c: 105: TRISBbits.RB3 = 0;
  1497  001424  9693               	bcf	3987,3,c	;volatile
  1498                           
  1499                           ;system.c: 106: TRISBbits.RB4 = 0;
  1500  001426  9893               	bcf	3987,4,c	;volatile
  1501                           
  1502                           ;system.c: 107: TRISBbits.RB5 = 0;
  1503  001428  9A93               	bcf	3987,5,c	;volatile
  1504                           
  1505                           ;system.c: 108: TRISBbits.RB6 = 0;
  1506  00142A  9C93               	bcf	3987,6,c	;volatile
  1507                           
  1508                           ;system.c: 109: TRISBbits.RB7 = 0;
  1509  00142C  9E93               	bcf	3987,7,c	;volatile
  1510                           
  1511                           ;system.c: 112: TRISCbits.RC0 = 0;
  1512  00142E  9094               	bcf	3988,0,c	;volatile
  1513                           
  1514                           ;system.c: 113: TRISCbits.RC1 = 0;
  1515  001430  9294               	bcf	3988,1,c	;volatile
  1516                           
  1517                           ;system.c: 114: TRISCbits.RC2 = 0;
  1518  001432  9494               	bcf	3988,2,c	;volatile
  1519                           
  1520                           ;system.c: 115: TRISCbits.RC3 = 1;
  1521  001434  8694               	bsf	3988,3,c	;volatile
  1522                           
  1523                           ;system.c: 116: TRISCbits.RC4 = 0;
  1524  001436  9894               	bcf	3988,4,c	;volatile
  1525                           
  1526                           ;system.c: 117: TRISCbits.RC5 = 0;
  1527  001438  9A94               	bcf	3988,5,c	;volatile
  1528                           
  1529                           ;system.c: 118: TRISCbits.RC6 = 1;
  1530  00143A  8C94               	bsf	3988,6,c	;volatile
  1531                           
  1532                           ;system.c: 119: TRISCbits.RC7 = 1;
  1533  00143C  8E94               	bsf	3988,7,c	;volatile
  1534                           
  1535                           ;system.c: 122: TRISDbits.RD0 = 0;
  1536  00143E  9095               	bcf	3989,0,c	;volatile
  1537                           
  1538                           ;system.c: 123: TRISDbits.RD1 = 0;
  1539  001440  9295               	bcf	3989,1,c	;volatile
  1540                           
  1541                           ;system.c: 124: TRISDbits.RD2 = 1;
  1542  001442  8495               	bsf	3989,2,c	;volatile
  1543                           
  1544                           ;system.c: 125: TRISDbits.RD3 = 0;
  1545  001444  9695               	bcf	3989,3,c	;volatile
  1546                           
  1547                           ;system.c: 126: TRISDbits.RD4 = 0;
  1548  001446  9895               	bcf	3989,4,c	;volatile
  1549                           
  1550                           ;system.c: 127: TRISDbits.RD5 = 0;
  1551  001448  9A95               	bcf	3989,5,c	;volatile
  1552                           
  1553                           ;system.c: 128: TRISDbits.RD6 = 0;
  1554  00144A  9C95               	bcf	3989,6,c	;volatile
  1555                           
  1556                           ;system.c: 129: TRISDbits.RD7 = 0;
  1557  00144C  9E95               	bcf	3989,7,c	;volatile
  1558                           
  1559                           ;system.c: 132: TRISEbits.RE0 = 0;
  1560  00144E  9096               	bcf	3990,0,c	;volatile
  1561                           
  1562                           ;system.c: 133: TRISEbits.RE1 = 0;
  1563  001450  9296               	bcf	3990,1,c	;volatile
  1564                           
  1565                           ;system.c: 134: TRISEbits.RE2 = 0;
  1566  001452  9496               	bcf	3990,2,c	;volatile
  1567                           
  1568                           ;system.c: 142: LATA0 = 0;
  1569  001454  9089               	bcf	3977,0,c	;volatile
  1570                           
  1571                           ;system.c: 143: LATA1 = 0;
  1572  001456  9289               	bcf	3977,1,c	;volatile
  1573                           
  1574                           ;system.c: 144: LATA2 = 0;
  1575  001458  9489               	bcf	3977,2,c	;volatile
  1576                           
  1577                           ;system.c: 145: LATA3 = 0;
  1578  00145A  9689               	bcf	3977,3,c	;volatile
  1579                           
  1580                           ;system.c: 146: LATA4 = 0;
  1581  00145C  9889               	bcf	3977,4,c	;volatile
  1582                           
  1583                           ;system.c: 147: LATA5 = 0;
  1584  00145E  9A89               	bcf	3977,5,c	;volatile
  1585                           
  1586                           ;system.c: 148: LATA6 = 0;
  1587  001460  9C89               	bcf	3977,6,c	;volatile
  1588                           
  1589                           ;system.c: 149: LATA7 = 0;
  1590  001462  9E89               	bcf	3977,7,c	;volatile
  1591                           
  1592                           ;system.c: 152: LATB0 = 0;
  1593  001464  908A               	bcf	3978,0,c	;volatile
  1594                           
  1595                           ;system.c: 153: LATB1 = 0;
  1596  001466  928A               	bcf	3978,1,c	;volatile
  1597                           
  1598                           ;system.c: 154: LATB2 = 0;
  1599  001468  948A               	bcf	3978,2,c	;volatile
  1600                           
  1601                           ;system.c: 155: LATB3 = 0;
  1602  00146A  968A               	bcf	3978,3,c	;volatile
  1603                           
  1604                           ;system.c: 156: LATB4 = 0;
  1605  00146C  988A               	bcf	3978,4,c	;volatile
  1606                           
  1607                           ;system.c: 157: LATB5 = 0;
  1608  00146E  9A8A               	bcf	3978,5,c	;volatile
  1609                           
  1610                           ;system.c: 158: LATB6 = 0;
  1611  001470  9C8A               	bcf	3978,6,c	;volatile
  1612                           
  1613                           ;system.c: 159: LATB7 = 0;
  1614  001472  9E8A               	bcf	3978,7,c	;volatile
  1615                           
  1616                           ;system.c: 162: LATC0 = 0;
  1617  001474  908B               	bcf	3979,0,c	;volatile
  1618                           
  1619                           ;system.c: 163: LATC1 = 0;
  1620  001476  928B               	bcf	3979,1,c	;volatile
  1621                           
  1622                           ;system.c: 164: LATC2 = 0;
  1623  001478  948B               	bcf	3979,2,c	;volatile
  1624                           
  1625                           ;system.c: 165: LATC3 = 0;
  1626  00147A  968B               	bcf	3979,3,c	;volatile
  1627                           
  1628                           ;system.c: 166: LATC4 = 0;
  1629  00147C  988B               	bcf	3979,4,c	;volatile
  1630                           
  1631                           ;system.c: 167: LATC5 = 0;
  1632  00147E  9A8B               	bcf	3979,5,c	;volatile
  1633                           
  1634                           ;system.c: 168: LATC6 = 0;
  1635  001480  9C8B               	bcf	3979,6,c	;volatile
  1636                           
  1637                           ;system.c: 169: LATC7 = 0;
  1638  001482  9E8B               	bcf	3979,7,c	;volatile
  1639                           
  1640                           ;system.c: 172: LATD0 = 0;
  1641  001484  908C               	bcf	3980,0,c	;volatile
  1642                           
  1643                           ;system.c: 173: LATD1 = 0;
  1644  001486  928C               	bcf	3980,1,c	;volatile
  1645                           
  1646                           ;system.c: 174: LATD2 = 0;
  1647  001488  948C               	bcf	3980,2,c	;volatile
  1648                           
  1649                           ;system.c: 175: LATD3 = 0;
  1650  00148A  968C               	bcf	3980,3,c	;volatile
  1651                           
  1652                           ;system.c: 176: LATD4 = 0;
  1653  00148C  988C               	bcf	3980,4,c	;volatile
  1654                           
  1655                           ;system.c: 177: LATD5 = 0;
  1656  00148E  9A8C               	bcf	3980,5,c	;volatile
  1657                           
  1658                           ;system.c: 178: LATD6 = 0;
  1659  001490  9C8C               	bcf	3980,6,c	;volatile
  1660                           
  1661                           ;system.c: 179: LATD7 = 0;
  1662  001492  9E8C               	bcf	3980,7,c	;volatile
  1663                           
  1664                           ;system.c: 182: LATE0 = 0;
  1665  001494  908D               	bcf	3981,0,c	;volatile
  1666                           
  1667                           ;system.c: 183: LATE1 = 0;
  1668  001496  928D               	bcf	3981,1,c	;volatile
  1669                           
  1670                           ;system.c: 184: LATE2 = 0;
  1671  001498  948D               	bcf	3981,2,c	;volatile
  1672  00149A  0012               	return		;funcret
  1673  00149C                     __end_of_ConfigPorts:
  1674                           	opt stack 0
  1675                           tblptru	equ	0xFF8
  1676                           postinc0	equ	0xFEE
  1677                           wreg	equ	0xFE8
  1678                           
  1679 ;; *************** function _ConfigInterrupt *****************
  1680 ;; Defined at:
  1681 ;;		line 192 in file "system.c"
  1682 ;; Parameters:    Size  Location     Type
  1683 ;;		None
  1684 ;; Auto vars:     Size  Location     Type
  1685 ;;		None
  1686 ;; Return value:  Size  Location     Type
  1687 ;;		None               void
  1688 ;; Registers used:
  1689 ;;		None
  1690 ;; Tracked objects:
  1691 ;;		On entry : 0/0
  1692 ;;		On exit  : 0/0
  1693 ;;		Unchanged: 0/0
  1694 ;; Data sizes:     COMRAM   BANK0   BANK1   BANK2
  1695 ;;      Params:         0       0       0       0
  1696 ;;      Locals:         0       0       0       0
  1697 ;;      Temps:          0       0       0       0
  1698 ;;      Totals:         0       0       0       0
  1699 ;;Total ram usage:        0 bytes
  1700 ;; Hardware stack levels used:    1
  1701 ;; Hardware stack levels required when called:   14
  1702 ;; This function calls:
  1703 ;;		Nothing
  1704 ;; This function is called by:
  1705 ;;		_init_system
  1706 ;; This function uses a non-reentrant model
  1707 ;;
  1708                           
  1709                           	psect	text11
  1710  001528                     __ptext11:
  1711                           	opt stack 0
  1712  001528                     _ConfigInterrupt:
  1713                           	opt stack 15
  1714                           
  1715                           ;system.c: 195: INTCONbits.GIEH = 1;
  1716                           
  1717                           ;incstack = 0
  1718  001528  8EF2               	bsf	intcon,7,c	;volatile
  1719                           
  1720                           ;system.c: 196: INTCONbits.GIEL = 1;
  1721  00152A  8CF2               	bsf	intcon,6,c	;volatile
  1722                           
  1723                           ;system.c: 197: INTCONbits.TMR0IE = 0b1;
  1724  00152C  8AF2               	bsf	intcon,5,c	;volatile
  1725                           
  1726                           ;system.c: 198: INTCONbits.INT0IE = 0b1;
  1727  00152E  88F2               	bsf	intcon,4,c	;volatile
  1728                           
  1729                           ;system.c: 199: INTCONbits.RBIE = 0;
  1730  001530  96F2               	bcf	intcon,3,c	;volatile
  1731                           
  1732                           ;system.c: 200: INTCONbits.TMR0IF = 0;
  1733  001532  94F2               	bcf	intcon,2,c	;volatile
  1734                           
  1735                           ;system.c: 201: INTCONbits.INT0IF = 0;
  1736  001534  92F2               	bcf	intcon,1,c	;volatile
  1737                           
  1738                           ;system.c: 202: INTCONbits.RBIF = 0;
  1739  001536  90F2               	bcf	intcon,0,c	;volatile
  1740                           
  1741                           ;system.c: 206: INTCON2bits.INTEDG0 = 0;
  1742  001538  9CF1               	bcf	intcon2,6,c	;volatile
  1743                           
  1744                           ;system.c: 207: INTCON2bits.INTEDG1 = 0;
  1745  00153A  9AF1               	bcf	intcon2,5,c	;volatile
  1746                           
  1747                           ;system.c: 208: INTCON2bits.INTEDG2 = 0;
  1748  00153C  98F1               	bcf	intcon2,4,c	;volatile
  1749                           
  1750                           ;system.c: 209: INTCON2bits.TMR0IP = 0b1;
  1751  00153E  84F1               	bsf	intcon2,2,c	;volatile
  1752                           
  1753                           ;system.c: 212: INTCON3bits.INT2IP = 0b0 ;
  1754  001540  9EF0               	bcf	intcon3,7,c	;volatile
  1755                           
  1756                           ;system.c: 213: INTCON3bits.INT1IP = 0b0;
  1757  001542  9CF0               	bcf	intcon3,6,c	;volatile
  1758                           
  1759                           ;system.c: 214: INTCON3bits.INT2IE = 0b0;
  1760  001544  98F0               	bcf	intcon3,4,c	;volatile
  1761                           
  1762                           ;system.c: 215: INTCON3bits.INT2IP = 0b0;
  1763  001546  9EF0               	bcf	intcon3,7,c	;volatile
  1764                           
  1765                           ;system.c: 216: INTCON3bits.INT2IF = 0;
  1766  001548  92F0               	bcf	intcon3,1,c	;volatile
  1767                           
  1768                           ;system.c: 217: INTCON3bits.INT1IF = 0;
  1769  00154A  90F0               	bcf	intcon3,0,c	;volatile
  1770                           
  1771                           ;system.c: 224: PIR1bits.ADIF = 0;
  1772  00154C  9C9E               	bcf	3998,6,c	;volatile
  1773                           
  1774                           ;system.c: 225: PIR1bits.RCIF = 0;
  1775  00154E  9A9E               	bcf	3998,5,c	;volatile
  1776                           
  1777                           ;system.c: 226: PIR1bits.TXIF = 0;
  1778  001550  989E               	bcf	3998,4,c	;volatile
  1779                           
  1780                           ;system.c: 227: PIR1bits.SSPIF = 0;
  1781  001552  969E               	bcf	3998,3,c	;volatile
  1782                           
  1783                           ;system.c: 228: PIR1bits.CCP1IF = 0;
  1784  001554  949E               	bcf	3998,2,c	;volatile
  1785                           
  1786                           ;system.c: 229: PIR1bits.TMR2IF = 0;
  1787  001556  929E               	bcf	3998,1,c	;volatile
  1788                           
  1789                           ;system.c: 230: PIR1bits.TMR1IF = 0;
  1790  001558  909E               	bcf	3998,0,c	;volatile
  1791                           
  1792                           ;system.c: 233: PIR2bits.OSFIF = 0;
  1793  00155A  9EA1               	bcf	4001,7,c	;volatile
  1794                           
  1795                           ;system.c: 234: PIR2bits.EEIF = 0;
  1796  00155C  98A1               	bcf	4001,4,c	;volatile
  1797                           
  1798                           ;system.c: 235: PIR2bits.LVDIF = 0;
  1799  00155E  94A1               	bcf	4001,2,c	;volatile
  1800                           
  1801                           ;system.c: 236: PIR2bits.CCP2IF = 0;
  1802  001560  90A1               	bcf	4001,0,c	;volatile
  1803                           
  1804                           ;system.c: 239: PIR3bits.PTIF = 0;
  1805  001562  98A4               	bcf	4004,4,c	;volatile
  1806                           
  1807                           ;system.c: 240: PIR3bits.IC3DRIF = 0;
  1808  001564  96A4               	bcf	4004,3,c	;volatile
  1809                           
  1810                           ;system.c: 241: PIR3bits.IC2QEIF = 0;
  1811  001566  94A4               	bcf	4004,2,c	;volatile
  1812                           
  1813                           ;system.c: 242: PIR3bits.IC1IF = 0;
  1814  001568  92A4               	bcf	4004,1,c	;volatile
  1815                           
  1816                           ;system.c: 243: PIR3bits.TMR5IF = 0;
  1817  00156A  90A4               	bcf	4004,0,c	;volatile
  1818                           
  1819                           ;system.c: 250: RCONbits.IPEN = 1;
  1820  00156C  8ED0               	bsf	4048,7,c	;volatile
  1821                           
  1822                           ;system.c: 253: IPR1bits.ADIP = 0b0;
  1823  00156E  9C9F               	bcf	3999,6,c	;volatile
  1824                           
  1825                           ;system.c: 254: IPR1bits.RC1IP = 0b1;
  1826  001570  8A9F               	bsf	3999,5,c	;volatile
  1827                           
  1828                           ;system.c: 255: IPR1bits.TX1IP = 0b0;
  1829  001572  989F               	bcf	3999,4,c	;volatile
  1830                           
  1831                           ;system.c: 256: IPR1bits.SSPIP = 0;
  1832  001574  969F               	bcf	3999,3,c	;volatile
  1833                           
  1834                           ;system.c: 257: IPR1bits.CCP1IP = 0;
  1835  001576  949F               	bcf	3999,2,c	;volatile
  1836                           
  1837                           ;system.c: 258: IPR1bits.TMR2IP = 0b0;
  1838  001578  929F               	bcf	3999,1,c	;volatile
  1839                           
  1840                           ;system.c: 259: IPR1bits.TMR1IP = 0b1;
  1841  00157A  809F               	bsf	3999,0,c	;volatile
  1842                           
  1843                           ;system.c: 262: IPR2bits.OSFIP = 0;
  1844  00157C  9EA2               	bcf	4002,7,c	;volatile
  1845                           
  1846                           ;system.c: 263: IPR2bits.EEIP = 1;
  1847  00157E  88A2               	bsf	4002,4,c	;volatile
  1848                           
  1849                           ;system.c: 264: IPR2bits.LVDIP = 0;
  1850  001580  94A2               	bcf	4002,2,c	;volatile
  1851                           
  1852                           ;system.c: 265: IPR2bits.CCP2IP = 0;
  1853  001582  90A2               	bcf	4002,0,c	;volatile
  1854                           
  1855                           ;system.c: 268: IPR3bits.PTIP = 0;
  1856  001584  98A5               	bcf	4005,4,c	;volatile
  1857                           
  1858                           ;system.c: 269: IPR3bits.IC3DRIP = 0b1;
  1859  001586  86A5               	bsf	4005,3,c	;volatile
  1860                           
  1861                           ;system.c: 270: IPR3bits.IC2QEIP = 0b1;
  1862  001588  84A5               	bsf	4005,2,c	;volatile
  1863                           
  1864                           ;system.c: 271: IPR3bits.IC1IP = 0;
  1865  00158A  92A5               	bcf	4005,1,c	;volatile
  1866                           
  1867                           ;system.c: 272: IPR3bits.TMR5IP = 0b0;
  1868  00158C  90A5               	bcf	4005,0,c	;volatile
  1869                           
  1870                           ;system.c: 279: PIE1bits.ADIE = 0b0;
  1871  00158E  9C9D               	bcf	3997,6,c	;volatile
  1872                           
  1873                           ;system.c: 280: PIE1bits.RC1IE = 0b1;
  1874  001590  8A9D               	bsf	3997,5,c	;volatile
  1875                           
  1876                           ;system.c: 281: PIE1bits.TXIE = 0b0;
  1877  001592  989D               	bcf	3997,4,c	;volatile
  1878                           
  1879                           ;system.c: 282: PIE1bits.SSPIE = 0;
  1880  001594  969D               	bcf	3997,3,c	;volatile
  1881                           
  1882                           ;system.c: 283: PIE1bits.CCP1IE = 0;
  1883  001596  949D               	bcf	3997,2,c	;volatile
  1884                           
  1885                           ;system.c: 284: PIE1bits.TMR2IE = 0b0;
  1886  001598  929D               	bcf	3997,1,c	;volatile
  1887                           
  1888                           ;system.c: 285: PIE1bits.TMR1IE = 0b1;
  1889  00159A  809D               	bsf	3997,0,c	;volatile
  1890                           
  1891                           ;system.c: 288: PIE2bits.OSFIE = 0;
  1892  00159C  9EA0               	bcf	4000,7,c	;volatile
  1893                           
  1894                           ;system.c: 289: PIE2bits.EEIE = 1;
  1895  00159E  88A0               	bsf	4000,4,c	;volatile
  1896                           
  1897                           ;system.c: 290: PIE2bits.LVDIE = 0;
  1898  0015A0  94A0               	bcf	4000,2,c	;volatile
  1899                           
  1900                           ;system.c: 291: PIE2bits.CCP2IE = 0;
  1901  0015A2  90A0               	bcf	4000,0,c	;volatile
  1902                           
  1903                           ;system.c: 294: PIE3bits.PTIE = 0;
  1904  0015A4  98A3               	bcf	4003,4,c	;volatile
  1905                           
  1906                           ;system.c: 295: PIE3bits.IC3DRIE = 0b0;
  1907  0015A6  96A3               	bcf	4003,3,c	;volatile
  1908                           
  1909                           ;system.c: 296: PIE3bits.IC2QEIE = 0b1;
  1910  0015A8  84A3               	bsf	4003,2,c	;volatile
  1911                           
  1912                           ;system.c: 297: PIE3bits.IC1IE = 0;
  1913  0015AA  92A3               	bcf	4003,1,c	;volatile
  1914                           
  1915                           ;system.c: 298: PIE3bits.TMR5IE = 0b0;
  1916  0015AC  90A3               	bcf	4003,0,c	;volatile
  1917  0015AE  0012               	return		;funcret
  1918  0015B0                     __end_of_ConfigInterrupt:
  1919                           	opt stack 0
  1920                           tblptru	equ	0xFF8
  1921                           intcon	equ	0xFF2
  1922                           intcon2	equ	0xFF1
  1923                           intcon3	equ	0xFF0
  1924                           postinc0	equ	0xFEE
  1925                           wreg	equ	0xFE8
  1926                           
  1927 ;; *************** function _low_isr *****************
  1928 ;; Defined at:
  1929 ;;		line 33 in file "interruptions.c"
  1930 ;; Parameters:    Size  Location     Type
  1931 ;;		None
  1932 ;; Auto vars:     Size  Location     Type
  1933 ;;		None
  1934 ;; Return value:  Size  Location     Type
  1935 ;;		None               void
  1936 ;; Registers used:
  1937 ;;		wreg, fsr2l, fsr2h, status,2, status,0, prodl, prodh, cstack
  1938 ;; Tracked objects:
  1939 ;;		On entry : 0/0
  1940 ;;		On exit  : 0/0
  1941 ;;		Unchanged: 0/0
  1942 ;; Data sizes:     COMRAM   BANK0   BANK1   BANK2
  1943 ;;      Params:         0       0       0       0
  1944 ;;      Locals:         0       0       0       0
  1945 ;;      Temps:         17       0       0       0
  1946 ;;      Totals:        17       0       0       0
  1947 ;;Total ram usage:       17 bytes
  1948 ;; Hardware stack levels used:    1
  1949 ;; Hardware stack levels required when called:   13
  1950 ;; This function calls:
  1951 ;;		_subroutine_interruptions
  1952 ;; This function is called by:
  1953 ;;		Interrupt level 1
  1954 ;; This function uses a non-reentrant model
  1955 ;;
  1956                           
  1957                           	psect	intcodelo
  1958  000018                     __pintcodelo:
  1959                           	opt stack 0
  1960  000018                     _low_isr:
  1961                           	opt stack 14
  1962                           
  1963                           ;incstack = 0
  1964  000018  CFD8 F02E          	movff	status,??_low_isr
  1965  00001C  CFE8 F02F          	movff	wreg,??_low_isr+1
  1966  000020  CFE0 F030          	movff	bsr,??_low_isr+2
  1967  000024  CFFA F031          	movff	pclath,??_low_isr+3
  1968  000028  CFFB F032          	movff	pclatu,??_low_isr+4
  1969  00002C  CFE9 F033          	movff	fsr0l,??_low_isr+5
  1970  000030  CFEA F034          	movff	fsr0h,??_low_isr+6
  1971  000034  CFE1 F035          	movff	fsr1l,??_low_isr+7
  1972  000038  CFE2 F036          	movff	fsr1h,??_low_isr+8
  1973  00003C  CFD9 F037          	movff	fsr2l,??_low_isr+9
  1974  000040  CFDA F038          	movff	fsr2h,??_low_isr+10
  1975  000044  CFF3 F039          	movff	prodl,??_low_isr+11
  1976  000048  CFF4 F03A          	movff	prodh,??_low_isr+12
  1977  00004C  CFF6 F03B          	movff	tblptrl,??_low_isr+13
  1978  000050  CFF7 F03C          	movff	tblptrh,??_low_isr+14
  1979  000054  CFF8 F03D          	movff	tblptru,??_low_isr+15
  1980  000058  CFF5 F03E          	movff	tablat,??_low_isr+16
  1981                           
  1982                           ;interruptions.c: 35: subroutine_interruptions(0b0);
  1983  00005C  0E00               	movlw	0
  1984  00005E  ECD8  F00A         	call	_subroutine_interruptions
  1985  000062  C03E  FFF5         	movff	??_low_isr+16,tablat
  1986  000066  C03D  FFF8         	movff	??_low_isr+15,tblptru
  1987  00006A  C03C  FFF7         	movff	??_low_isr+14,tblptrh
  1988  00006E  C03B  FFF6         	movff	??_low_isr+13,tblptrl
  1989  000072  C03A  FFF4         	movff	??_low_isr+12,prodh
  1990  000076  C039  FFF3         	movff	??_low_isr+11,prodl
  1991  00007A  C038  FFDA         	movff	??_low_isr+10,fsr2h
  1992  00007E  C037  FFD9         	movff	??_low_isr+9,fsr2l
  1993  000082  C036  FFE2         	movff	??_low_isr+8,fsr1h
  1994  000086  C035  FFE1         	movff	??_low_isr+7,fsr1l
  1995  00008A  C034  FFEA         	movff	??_low_isr+6,fsr0h
  1996  00008E  C033  FFE9         	movff	??_low_isr+5,fsr0l
  1997  000092  C032  FFFB         	movff	??_low_isr+4,pclatu
  1998  000096  C031  FFFA         	movff	??_low_isr+3,pclath
  1999  00009A  C030  FFE0         	movff	??_low_isr+2,bsr
  2000  00009E  C02F  FFE8         	movff	??_low_isr+1,wreg
  2001  0000A2  C02E  FFD8         	movff	??_low_isr,status
  2002  0000A6  0010               	retfie	
  2003  0000A8                     __end_of_low_isr:
  2004                           	opt stack 0
  2005                           pclatu	equ	0xFFB
  2006                           pclath	equ	0xFFA
  2007                           tblptru	equ	0xFF8
  2008                           tblptrh	equ	0xFF7
  2009                           tblptrl	equ	0xFF6
  2010                           tablat	equ	0xFF5
  2011                           prodh	equ	0xFF4
  2012                           prodl	equ	0xFF3
  2013                           intcon	equ	0xFF2
  2014                           intcon2	equ	0xFF1
  2015                           intcon3	equ	0xFF0
  2016                           postinc0	equ	0xFEE
  2017                           fsr0h	equ	0xFEA
  2018                           fsr0l	equ	0xFE9
  2019                           wreg	equ	0xFE8
  2020                           fsr1h	equ	0xFE2
  2021                           fsr1l	equ	0xFE1
  2022                           bsr	equ	0xFE0
  2023                           fsr2h	equ	0xFDA
  2024                           fsr2l	equ	0xFD9
  2025                           status	equ	0xFD8
  2026                           
  2027 ;; *************** function _subroutine_interruptions *****************
  2028 ;; Defined at:
  2029 ;;		line 43 in file "interruptions.c"
  2030 ;; Parameters:    Size  Location     Type
  2031 ;;  priorite        1    wreg     unsigned char 
  2032 ;; Auto vars:     Size  Location     Type
  2033 ;;  priorite        1   44[COMRAM] unsigned char 
  2034 ;; Return value:  Size  Location     Type
  2035 ;;		None               void
  2036 ;; Registers used:
  2037 ;;		wreg, fsr2l, fsr2h, status,2, status,0, prodl, prodh, cstack
  2038 ;; Tracked objects:
  2039 ;;		On entry : 0/0
  2040 ;;		On exit  : 0/0
  2041 ;;		Unchanged: 0/0
  2042 ;; Data sizes:     COMRAM   BANK0   BANK1   BANK2
  2043 ;;      Params:         0       0       0       0
  2044 ;;      Locals:         1       0       0       0
  2045 ;;      Temps:          0       0       0       0
  2046 ;;      Totals:         1       0       0       0
  2047 ;;Total ram usage:        1 bytes
  2048 ;; Hardware stack levels used:    1
  2049 ;; Hardware stack levels required when called:   12
  2050 ;; This function calls:
  2051 ;;		_interrupt_RX
  2052 ;;		_interrupt_TX
  2053 ;;		_interruption_INT0
  2054 ;;		_interruption_QEI
  2055 ;;		_interruption_timer0
  2056 ;;		_interruption_timer1
  2057 ;;		_interruption_timer2
  2058 ;;		_interuption_QEI_sens
  2059 ;; This function is called by:
  2060 ;;		_low_isr
  2061 ;; This function uses a non-reentrant model
  2062 ;;
  2063                           
  2064                           	psect	text13
  2065  0015B0                     __ptext13:
  2066                           	opt stack 0
  2067  0015B0                     _subroutine_interruptions:
  2068                           	opt stack 14
  2069                           
  2070                           ;incstack = 0
  2071                           ;subroutine_interruptions@priorite stored from wreg
  2072  0015B0  6E2D               	movwf	subroutine_interruptions@priorite,c
  2073                           
  2074                           ;interruptions.c: 45: if ( PIR3bits.IC2QEIF == 1 && 0b1 == 1 && priorite == 0b1)
  2075  0015B2  A4A4               	btfss	4004,2,c	;volatile
  2076  0015B4  D006               	goto	i1l299
  2077  0015B6  042D               	decf	subroutine_interruptions@priorite,w,c
  2078  0015B8  A4D8               	btfss	status,2,c
  2079  0015BA  D003               	goto	i1l299
  2080                           
  2081                           ;interruptions.c: 46: {
  2082                           ;interruptions.c: 47: interruption_QEI();
  2083  0015BC  ECB2  F00D         	call	_interruption_QEI	;wreg free
  2084                           
  2085                           ;interruptions.c: 48: }
  2086  0015C0  D038               	goto	i1l314
  2087  0015C2                     i1l299:
  2088                           
  2089                           ;interruptions.c: 49: else if ( PIR3bits.IC3DRIF == 1 && 0b0 == 1 && priorite == 0b1)
  2090  0015C2  50A4               	movf	4004,w,c	;volatile
  2091  0015C4  D006               	goto	i1l301
  2092  0015C6  042D               	decf	subroutine_interruptions@priorite,w,c
  2093  0015C8  A4D8               	btfss	status,2,c
  2094  0015CA  D003               	goto	i1l301
  2095                           
  2096                           ;interruptions.c: 50: {
  2097                           ;interruptions.c: 51: interuption_QEI_sens();
  2098  0015CC  ECD7  F00D         	call	_interuption_QEI_sens	;wreg free
  2099                           
  2100                           ;interruptions.c: 52: }
  2101  0015D0  D030               	goto	i1l314
  2102  0015D2                     i1l301:
  2103                           
  2104                           ;interruptions.c: 53: else if ( INTCONbits.TMR0IF == 1 && 0b1 == 1 && priorite == 0b1)
  2105  0015D2  A4F2               	btfss	intcon,2,c	;volatile
  2106  0015D4  D006               	goto	i1l303
  2107  0015D6  042D               	decf	subroutine_interruptions@priorite,w,c
  2108  0015D8  A4D8               	btfss	status,2,c
  2109  0015DA  D003               	goto	i1l303
  2110                           
  2111                           ;interruptions.c: 54: {
  2112                           ;interruptions.c: 55: interruption_timer0();
  2113  0015DC  ECCB  F00D         	call	_interruption_timer0	;wreg free
  2114                           
  2115                           ;interruptions.c: 56: }
  2116  0015E0  D028               	goto	i1l314
  2117  0015E2                     i1l303:
  2118                           
  2119                           ;interruptions.c: 57: else if ( PIR1bits.TMR1IF == 1 && 0b1 == 1 && priorite == 0b1)
  2120  0015E2  A09E               	btfss	3998,0,c	;volatile
  2121  0015E4  D006               	goto	i1l305
  2122  0015E6  042D               	decf	subroutine_interruptions@priorite,w,c
  2123  0015E8  A4D8               	btfss	status,2,c
  2124  0015EA  D003               	goto	i1l305
  2125                           
  2126                           ;interruptions.c: 58: {
  2127                           ;interruptions.c: 59: interruption_timer1();
  2128  0015EC  EC6B  F00C         	call	_interruption_timer1	;wreg free
  2129                           
  2130                           ;interruptions.c: 60: }
  2131  0015F0  D020               	goto	i1l314
  2132  0015F2                     i1l305:
  2133                           
  2134                           ;interruptions.c: 61: else if ( PIR1bits.TMR2IF == 1 && 0b0 == 1 && priorite == 0b0)
  2135  0015F2  509E               	movf	3998,w,c	;volatile
  2136  0015F4  D006               	goto	i1l307
  2137  0015F6  502D               	movf	subroutine_interruptions@priorite,w,c
  2138  0015F8  A4D8               	btfss	status,2,c
  2139  0015FA  D003               	goto	i1l307
  2140                           
  2141                           ;interruptions.c: 62: {
  2142                           ;interruptions.c: 63: interruption_timer2();
  2143  0015FC  ECD9  F00D         	call	_interruption_timer2	;wreg free
  2144                           
  2145                           ;interruptions.c: 64: }
  2146  001600  D018               	goto	i1l314
  2147  001602                     i1l307:
  2148                           
  2149                           ;interruptions.c: 65: else if (INTCONbits.INT0IF == 1 && 0b1 == 1 && priorite == 0b0)
  2150  001602  A2F2               	btfss	intcon,1,c	;volatile
  2151  001604  D006               	goto	i1l309
  2152  001606  502D               	movf	subroutine_interruptions@priorite,w,c
  2153  001608  A4D8               	btfss	status,2,c
  2154  00160A  D003               	goto	i1l309
  2155                           
  2156                           ;interruptions.c: 66: {
  2157                           ;interruptions.c: 67: interruption_INT0();
  2158  00160C  ECDB  F00D         	call	_interruption_INT0	;wreg free
  2159                           
  2160                           ;interruptions.c: 68: }
  2161  001610  D010               	goto	i1l314
  2162  001612                     i1l309:
  2163                           
  2164                           ;interruptions.c: 85: else if ( PIR1bits.RCIF == 1 && 0b1 == 1 && priorite == 0b1)
  2165  001612  AA9E               	btfss	3998,5,c	;volatile
  2166  001614  D006               	goto	i1l311
  2167  001616  042D               	decf	subroutine_interruptions@priorite,w,c
  2168  001618  A4D8               	btfss	status,2,c
  2169  00161A  D003               	goto	i1l311
  2170                           
  2171                           ;interruptions.c: 86: {
  2172                           ;interruptions.c: 87: interrupt_RX();
  2173  00161C  ECAD  F00C         	call	_interrupt_RX	;wreg free
  2174                           
  2175                           ;interruptions.c: 88: }
  2176  001620  D008               	goto	i1l314
  2177  001622                     i1l311:
  2178                           
  2179                           ;interruptions.c: 89: else if (PIR1bits.TXIF == 1 && 0b0 == 1 && priorite == 0b0)
  2180  001622  509E               	movf	3998,w,c	;volatile
  2181  001624  D006               	goto	i1l314
  2182  001626  502D               	movf	subroutine_interruptions@priorite,w,c
  2183  001628  A4D8               	btfss	status,2,c
  2184  00162A  D003               	goto	i1l314
  2185                           
  2186                           ;interruptions.c: 90: {
  2187                           ;interruptions.c: 91: interrupt_TX();
  2188  00162C  ECDD  F00D         	call	_interrupt_TX	;wreg free
  2189  001630  D000               	goto	i1l314
  2190  001632                     i1l314:
  2191  001632  0012               	return		;funcret
  2192  001634                     __end_of_subroutine_interruptions:
  2193                           	opt stack 0
  2194                           pclatu	equ	0xFFB
  2195                           pclath	equ	0xFFA
  2196                           tblptru	equ	0xFF8
  2197                           tblptrh	equ	0xFF7
  2198                           tblptrl	equ	0xFF6
  2199                           tablat	equ	0xFF5
  2200                           prodh	equ	0xFF4
  2201                           prodl	equ	0xFF3
  2202                           intcon	equ	0xFF2
  2203                           intcon2	equ	0xFF1
  2204                           intcon3	equ	0xFF0
  2205                           postinc0	equ	0xFEE
  2206                           fsr0h	equ	0xFEA
  2207                           fsr0l	equ	0xFE9
  2208                           wreg	equ	0xFE8
  2209                           fsr1h	equ	0xFE2
  2210                           fsr1l	equ	0xFE1
  2211                           bsr	equ	0xFE0
  2212                           fsr2h	equ	0xFDA
  2213                           fsr2l	equ	0xFD9
  2214                           status	equ	0xFD8
  2215                           
  2216 ;; *************** function _interuption_QEI_sens *****************
  2217 ;; Defined at:
  2218 ;;		line 174 in file "interruptions.c"
  2219 ;; Parameters:    Size  Location     Type
  2220 ;;		None
  2221 ;; Auto vars:     Size  Location     Type
  2222 ;;		None
  2223 ;; Return value:  Size  Location     Type
  2224 ;;		None               void
  2225 ;; Registers used:
  2226 ;;		None
  2227 ;; Tracked objects:
  2228 ;;		On entry : 0/0
  2229 ;;		On exit  : 0/0
  2230 ;;		Unchanged: 0/0
  2231 ;; Data sizes:     COMRAM   BANK0   BANK1   BANK2
  2232 ;;      Params:         0       0       0       0
  2233 ;;      Locals:         0       0       0       0
  2234 ;;      Temps:          0       0       0       0
  2235 ;;      Totals:         0       0       0       0
  2236 ;;Total ram usage:        0 bytes
  2237 ;; Hardware stack levels used:    1
  2238 ;; Hardware stack levels required when called:    7
  2239 ;; This function calls:
  2240 ;;		Nothing
  2241 ;; This function is called by:
  2242 ;;		_subroutine_interruptions
  2243 ;; This function uses a non-reentrant model
  2244 ;;
  2245                           
  2246                           	psect	text14
  2247  001BAE                     __ptext14:
  2248                           	opt stack 0
  2249  001BAE                     _interuption_QEI_sens:
  2250                           	opt stack 18
  2251                           
  2252                           ;interruptions.c: 176: PIR3bits.IC3DRIF = 0;
  2253                           
  2254                           ;incstack = 0
  2255  001BAE  96A4               	bcf	4004,3,c	;volatile
  2256  001BB0  0012               	return		;funcret
  2257  001BB2                     __end_of_interuption_QEI_sens:
  2258                           	opt stack 0
  2259                           pclatu	equ	0xFFB
  2260                           pclath	equ	0xFFA
  2261                           tblptru	equ	0xFF8
  2262                           tblptrh	equ	0xFF7
  2263                           tblptrl	equ	0xFF6
  2264                           tablat	equ	0xFF5
  2265                           prodh	equ	0xFF4
  2266                           prodl	equ	0xFF3
  2267                           intcon	equ	0xFF2
  2268                           intcon2	equ	0xFF1
  2269                           intcon3	equ	0xFF0
  2270                           postinc0	equ	0xFEE
  2271                           fsr0h	equ	0xFEA
  2272                           fsr0l	equ	0xFE9
  2273                           wreg	equ	0xFE8
  2274                           fsr1h	equ	0xFE2
  2275                           fsr1l	equ	0xFE1
  2276                           bsr	equ	0xFE0
  2277                           fsr2h	equ	0xFDA
  2278                           fsr2l	equ	0xFD9
  2279                           status	equ	0xFD8
  2280                           
  2281 ;; *************** function _interruption_timer2 *****************
  2282 ;; Defined at:
  2283 ;;		line 129 in file "interruptions.c"
  2284 ;; Parameters:    Size  Location     Type
  2285 ;;		None
  2286 ;; Auto vars:     Size  Location     Type
  2287 ;;		None
  2288 ;; Return value:  Size  Location     Type
  2289 ;;		None               void
  2290 ;; Registers used:
  2291 ;;		None
  2292 ;; Tracked objects:
  2293 ;;		On entry : 0/0
  2294 ;;		On exit  : 0/0
  2295 ;;		Unchanged: 0/0
  2296 ;; Data sizes:     COMRAM   BANK0   BANK1   BANK2
  2297 ;;      Params:         0       0       0       0
  2298 ;;      Locals:         0       0       0       0
  2299 ;;      Temps:          0       0       0       0
  2300 ;;      Totals:         0       0       0       0
  2301 ;;Total ram usage:        0 bytes
  2302 ;; Hardware stack levels used:    1
  2303 ;; Hardware stack levels required when called:    7
  2304 ;; This function calls:
  2305 ;;		Nothing
  2306 ;; This function is called by:
  2307 ;;		_subroutine_interruptions
  2308 ;; This function uses a non-reentrant model
  2309 ;;
  2310                           
  2311                           	psect	text15
  2312  001BB2                     __ptext15:
  2313                           	opt stack 0
  2314  001BB2                     _interruption_timer2:
  2315                           	opt stack 18
  2316                           
  2317                           ;interruptions.c: 131: PIR1bits.TMR2IF = 0;
  2318                           
  2319                           ;incstack = 0
  2320  001BB2  929E               	bcf	3998,1,c	;volatile
  2321  001BB4  0012               	return		;funcret
  2322  001BB6                     __end_of_interruption_timer2:
  2323                           	opt stack 0
  2324                           pclatu	equ	0xFFB
  2325                           pclath	equ	0xFFA
  2326                           tblptru	equ	0xFF8
  2327                           tblptrh	equ	0xFF7
  2328                           tblptrl	equ	0xFF6
  2329                           tablat	equ	0xFF5
  2330                           prodh	equ	0xFF4
  2331                           prodl	equ	0xFF3
  2332                           intcon	equ	0xFF2
  2333                           intcon2	equ	0xFF1
  2334                           intcon3	equ	0xFF0
  2335                           postinc0	equ	0xFEE
  2336                           fsr0h	equ	0xFEA
  2337                           fsr0l	equ	0xFE9
  2338                           wreg	equ	0xFE8
  2339                           fsr1h	equ	0xFE2
  2340                           fsr1l	equ	0xFE1
  2341                           bsr	equ	0xFE0
  2342                           fsr2h	equ	0xFDA
  2343                           fsr2l	equ	0xFD9
  2344                           status	equ	0xFD8
  2345                           
  2346 ;; *************** function _interruption_timer1 *****************
  2347 ;; Defined at:
  2348 ;;		line 112 in file "interruptions.c"
  2349 ;; Parameters:    Size  Location     Type
  2350 ;;		None
  2351 ;; Auto vars:     Size  Location     Type
  2352 ;;		None
  2353 ;; Return value:  Size  Location     Type
  2354 ;;		None               void
  2355 ;; Registers used:
  2356 ;;		wreg, fsr2l, fsr2h, status,2, status,0, prodl, prodh
  2357 ;; Tracked objects:
  2358 ;;		On entry : 0/0
  2359 ;;		On exit  : 0/0
  2360 ;;		Unchanged: 0/0
  2361 ;; Data sizes:     COMRAM   BANK0   BANK1   BANK2
  2362 ;;      Params:         0       0       0       0
  2363 ;;      Locals:         0       0       0       0
  2364 ;;      Temps:          1       0       0       0
  2365 ;;      Totals:         1       0       0       0
  2366 ;;Total ram usage:        1 bytes
  2367 ;; Hardware stack levels used:    1
  2368 ;; Hardware stack levels required when called:    7
  2369 ;; This function calls:
  2370 ;;		Nothing
  2371 ;; This function is called by:
  2372 ;;		_subroutine_interruptions
  2373 ;; This function uses a non-reentrant model
  2374 ;;
  2375                           
  2376                           	psect	text16
  2377  0018D6                     __ptext16:
  2378                           	opt stack 0
  2379  0018D6                     _interruption_timer1:
  2380                           	opt stack 18
  2381                           
  2382                           ;interruptions.c: 114: PIR1bits.TMR1IF = 0;
  2383                           
  2384                           ;incstack = 0
  2385  0018D6  909E               	bcf	3998,0,c	;volatile
  2386                           
  2387                           ;interruptions.c: 115: TMR1 = 65535 - 810;
  2388  0018D8  0EFC               	movlw	252
  2389  0018DA  6ECF               	movwf	4047,c	;volatile
  2390  0018DC  0ED5               	movlw	213
  2391  0018DE  6ECE               	movwf	4046,c	;volatile
  2392                           
  2393                           ;interruptions.c: 117: if (uart_logiciel.transmission_en_cours == 1)
  2394  0018E0  045A               	decf	_uart_logiciel+11,w,c
  2395  0018E2  A4D8               	btfss	status,2,c
  2396  0018E4  D018               	goto	i1l320
  2397                           
  2398                           ;interruptions.c: 118: {
  2399                           ;interruptions.c: 119: PORTCbits.RC5 = uart_logiciel.buffer_uart[uart_logiciel.indice];
  2400  0018E6  505B               	movf	_uart_logiciel+12,w,c
  2401  0018E8  0D01               	mullw	1
  2402  0018EA  0E4F               	movlw	low _uart_logiciel
  2403  0018EC  24F3               	addwf	prodl,w,c
  2404  0018EE  6ED9               	movwf	fsr2l,c
  2405  0018F0  0E00               	movlw	high _uart_logiciel
  2406  0018F2  20F4               	addwfc	prodh,w,c
  2407  0018F4  6EDA               	movwf	fsr2h,c
  2408  0018F6  50DF               	movf	indf2,w,c
  2409  0018F8  6E01               	movwf	??_interruption_timer1& (0+255),c
  2410  0018FA  3A01               	swapf	??_interruption_timer1,f,c
  2411  0018FC  4601               	rlncf	??_interruption_timer1,f,c
  2412  0018FE  5082               	movf	3970,w,c	;volatile
  2413  001900  1801               	xorwf	??_interruption_timer1,w,c
  2414  001902  0BDF               	andlw	-33
  2415  001904  1801               	xorwf	??_interruption_timer1,w,c
  2416  001906  6E82               	movwf	3970,c	;volatile
  2417                           
  2418                           ;interruptions.c: 120: uart_logiciel.indice++;
  2419  001908  2A5B               	incf	_uart_logiciel+12,f,c
  2420                           
  2421                           ;interruptions.c: 122: if (uart_logiciel.indice > 10)
  2422  00190A  0E0A               	movlw	10
  2423  00190C  645B               	cpfsgt	_uart_logiciel+12,c
  2424  00190E  D005               	goto	i1l323
  2425                           
  2426                           ;interruptions.c: 123: uart_logiciel.transmission_en_cours = 0;
  2427  001910  0E00               	movlw	0
  2428  001912  6E5A               	movwf	_uart_logiciel+11,c
  2429                           
  2430                           ;interruptions.c: 124: }
  2431  001914  D002               	goto	i1l323
  2432  001916                     i1l320:
  2433                           
  2434                           ;interruptions.c: 125: else
  2435                           ;interruptions.c: 126: PORTCbits.RC5 = 1;
  2436  001916  8A82               	bsf	3970,5,c	;volatile
  2437  001918  D000               	goto	i1l323
  2438  00191A                     i1l323:
  2439  00191A  0012               	return		;funcret
  2440  00191C                     __end_of_interruption_timer1:
  2441                           	opt stack 0
  2442                           pclatu	equ	0xFFB
  2443                           pclath	equ	0xFFA
  2444                           tblptru	equ	0xFF8
  2445                           tblptrh	equ	0xFF7
  2446                           tblptrl	equ	0xFF6
  2447                           tablat	equ	0xFF5
  2448                           prodh	equ	0xFF4
  2449                           prodl	equ	0xFF3
  2450                           intcon	equ	0xFF2
  2451                           intcon2	equ	0xFF1
  2452                           intcon3	equ	0xFF0
  2453                           postinc0	equ	0xFEE
  2454                           fsr0h	equ	0xFEA
  2455                           fsr0l	equ	0xFE9
  2456                           wreg	equ	0xFE8
  2457                           fsr1h	equ	0xFE2
  2458                           fsr1l	equ	0xFE1
  2459                           bsr	equ	0xFE0
  2460                           indf2	equ	0xFDF
  2461                           fsr2h	equ	0xFDA
  2462                           fsr2l	equ	0xFD9
  2463                           status	equ	0xFD8
  2464                           
  2465 ;; *************** function _interruption_timer0 *****************
  2466 ;; Defined at:
  2467 ;;		line 104 in file "interruptions.c"
  2468 ;; Parameters:    Size  Location     Type
  2469 ;;		None
  2470 ;; Auto vars:     Size  Location     Type
  2471 ;;		None
  2472 ;; Return value:  Size  Location     Type
  2473 ;;		None               void
  2474 ;; Registers used:
  2475 ;;		wreg, fsr2l, fsr2h, status,2, status,0, cstack
  2476 ;; Tracked objects:
  2477 ;;		On entry : 0/0
  2478 ;;		On exit  : 0/0
  2479 ;;		Unchanged: 0/0
  2480 ;; Data sizes:     COMRAM   BANK0   BANK1   BANK2
  2481 ;;      Params:         0       0       0       0
  2482 ;;      Locals:         0       0       0       0
  2483 ;;      Temps:          0       0       0       0
  2484 ;;      Totals:         0       0       0       0
  2485 ;;Total ram usage:        0 bytes
  2486 ;; Hardware stack levels used:    1
  2487 ;; Hardware stack levels required when called:   11
  2488 ;; This function calls:
  2489 ;;		_asserv
  2490 ;; This function is called by:
  2491 ;;		_subroutine_interruptions
  2492 ;; This function uses a non-reentrant model
  2493 ;;
  2494                           
  2495                           	psect	text17
  2496  001B96                     __ptext17:
  2497                           	opt stack 0
  2498  001B96                     _interruption_timer0:
  2499                           	opt stack 14
  2500                           
  2501                           ;interruptions.c: 106: INTCONbits.TMR0IF = 0;
  2502                           
  2503                           ;incstack = 0
  2504  001B96  94F2               	bcf	intcon,2,c	;volatile
  2505                           
  2506                           ;interruptions.c: 107: TMR0L = 131;
  2507  001B98  0E83               	movlw	131
  2508  001B9A  6ED6               	movwf	4054,c	;volatile
  2509                           
  2510                           ;interruptions.c: 109: asserv();
  2511  001B9C  ECE9  F00C         	call	_asserv	;wreg free
  2512  001BA0  0012               	return		;funcret
  2513  001BA2                     __end_of_interruption_timer0:
  2514                           	opt stack 0
  2515                           pclatu	equ	0xFFB
  2516                           pclath	equ	0xFFA
  2517                           tblptru	equ	0xFF8
  2518                           tblptrh	equ	0xFF7
  2519                           tblptrl	equ	0xFF6
  2520                           tablat	equ	0xFF5
  2521                           prodh	equ	0xFF4
  2522                           prodl	equ	0xFF3
  2523                           intcon	equ	0xFF2
  2524                           intcon2	equ	0xFF1
  2525                           intcon3	equ	0xFF0
  2526                           postinc0	equ	0xFEE
  2527                           fsr0h	equ	0xFEA
  2528                           fsr0l	equ	0xFE9
  2529                           wreg	equ	0xFE8
  2530                           fsr1h	equ	0xFE2
  2531                           fsr1l	equ	0xFE1
  2532                           bsr	equ	0xFE0
  2533                           indf2	equ	0xFDF
  2534                           fsr2h	equ	0xFDA
  2535                           fsr2l	equ	0xFD9
  2536                           status	equ	0xFD8
  2537                           
  2538 ;; *************** function _asserv *****************
  2539 ;; Defined at:
  2540 ;;		line 92 in file "asserv.c"
  2541 ;; Parameters:    Size  Location     Type
  2542 ;;		None
  2543 ;; Auto vars:     Size  Location     Type
  2544 ;;		None
  2545 ;; Return value:  Size  Location     Type
  2546 ;;		None               void
  2547 ;; Registers used:
  2548 ;;		wreg, fsr2l, fsr2h, status,2, status,0, cstack
  2549 ;; Tracked objects:
  2550 ;;		On entry : 0/0
  2551 ;;		On exit  : 0/0
  2552 ;;		Unchanged: 0/0
  2553 ;; Data sizes:     COMRAM   BANK0   BANK1   BANK2
  2554 ;;      Params:         0       0       0       0
  2555 ;;      Locals:         0       0       0       0
  2556 ;;      Temps:          0       0       0       0
  2557 ;;      Totals:         0       0       0       0
  2558 ;;Total ram usage:        0 bytes
  2559 ;; Hardware stack levels used:    1
  2560 ;; Hardware stack levels required when called:   10
  2561 ;; This function calls:
  2562 ;;		_ecretage_consignes
  2563 ;;		_envoit_pwm
  2564 ;;		_fonction_PID
  2565 ;; This function is called by:
  2566 ;;		_interruption_timer0
  2567 ;; This function uses a non-reentrant model
  2568 ;;
  2569                           
  2570                           	psect	text18
  2571  0019D2                     __ptext18:
  2572                           	opt stack 0
  2573  0019D2                     _asserv:
  2574                           	opt stack 14
  2575                           
  2576                           ;asserv.c: 94: static double commande = 0;
  2577                           ;asserv.c: 96: VITESSE.consigne = 0.00005;
  2578                           
  2579                           ;incstack = 0
  2580  0019D2  0EB7               	movlw	183
  2581  0019D4  6E48               	movwf	_VITESSE,c
  2582  0019D6  0E51               	movlw	81
  2583  0019D8  6E49               	movwf	_VITESSE+1,c
  2584  0019DA  0E38               	movlw	56
  2585  0019DC  6E4A               	movwf	_VITESSE+2,c
  2586                           
  2587                           ;asserv.c: 98: commande = fonction_PID();
  2588  0019DE  ECB0  F003         	call	_fonction_PID	;wreg free
  2589  0019E2  C024  F05C         	movff	?_fonction_PID,asserv@commande
  2590  0019E6  C025  F05D         	movff	?_fonction_PID+1,asserv@commande+1
  2591  0019EA  C026  F05E         	movff	?_fonction_PID+2,asserv@commande+2
  2592                           
  2593                           ;asserv.c: 99: ecretage_consignes(&commande);
  2594  0019EE  0E5C               	movlw	low asserv@commande
  2595  0019F0  6E0A               	movwf	ecretage_consignes@commande,c
  2596  0019F2  0E00               	movlw	high asserv@commande
  2597  0019F4  6E0B               	movwf	ecretage_consignes@commande+1,c
  2598  0019F6  EC1A  F00B         	call	_ecretage_consignes	;wreg free
  2599                           
  2600                           ;asserv.c: 100: envoit_pwm(commande);
  2601  0019FA  C05C  F018         	movff	asserv@commande,envoit_pwm@valeur
  2602  0019FE  C05D  F019         	movff	asserv@commande+1,envoit_pwm@valeur+1
  2603  001A02  C05E  F01A         	movff	asserv@commande+2,envoit_pwm@valeur+2
  2604  001A06  EC0D  F009         	call	_envoit_pwm	;wreg free
  2605  001A0A  0012               	return		;funcret
  2606  001A0C                     __end_of_asserv:
  2607                           	opt stack 0
  2608                           pclatu	equ	0xFFB
  2609                           pclath	equ	0xFFA
  2610                           tblptru	equ	0xFF8
  2611                           tblptrh	equ	0xFF7
  2612                           tblptrl	equ	0xFF6
  2613                           tablat	equ	0xFF5
  2614                           prodh	equ	0xFF4
  2615                           prodl	equ	0xFF3
  2616                           intcon	equ	0xFF2
  2617                           intcon2	equ	0xFF1
  2618                           intcon3	equ	0xFF0
  2619                           postinc0	equ	0xFEE
  2620                           fsr0h	equ	0xFEA
  2621                           fsr0l	equ	0xFE9
  2622                           wreg	equ	0xFE8
  2623                           fsr1h	equ	0xFE2
  2624                           fsr1l	equ	0xFE1
  2625                           bsr	equ	0xFE0
  2626                           indf2	equ	0xFDF
  2627                           fsr2h	equ	0xFDA
  2628                           fsr2l	equ	0xFD9
  2629                           status	equ	0xFD8
  2630                           
  2631 ;; *************** function _fonction_PID *****************
  2632 ;; Defined at:
  2633 ;;		line 72 in file "asserv.c"
  2634 ;; Parameters:    Size  Location     Type
  2635 ;;		None
  2636 ;; Auto vars:     Size  Location     Type
  2637 ;;		None
  2638 ;; Return value:  Size  Location     Type
  2639 ;;                  3   35[COMRAM] unsigned char 
  2640 ;; Registers used:
  2641 ;;		wreg, status,2, status,0, cstack
  2642 ;; Tracked objects:
  2643 ;;		On entry : 0/0
  2644 ;;		On exit  : 0/0
  2645 ;;		Unchanged: 0/0
  2646 ;; Data sizes:     COMRAM   BANK0   BANK1   BANK2
  2647 ;;      Params:         3       0       0       0
  2648 ;;      Locals:         6       0       0       0
  2649 ;;      Temps:          0       0       0       0
  2650 ;;      Totals:         9       0       0       0
  2651 ;;Total ram usage:        9 bytes
  2652 ;; Hardware stack levels used:    1
  2653 ;; Hardware stack levels required when called:    9
  2654 ;; This function calls:
  2655 ;;		___ftadd
  2656 ;;		___ftmul
  2657 ;;		___ftneg
  2658 ;;		_saturation_erreur_integralle_vitesse
  2659 ;; This function is called by:
  2660 ;;		_asserv
  2661 ;; This function uses a non-reentrant model
  2662 ;;
  2663                           
  2664                           	psect	text19
  2665  000760                     __ptext19:
  2666                           	opt stack 0
  2667  000760                     _fonction_PID:
  2668                           	opt stack 14
  2669                           
  2670                           ;asserv.c: 74: static double commande;
  2671                           ;asserv.c: 75: ERREUR_VITESSE.actuelle = VITESSE.consigne - VITESSE.actuelle;
  2672                           
  2673                           ;incstack = 0
  2674  000760  C04B  F001         	movff	_VITESSE+3,___ftneg@f1
  2675  000764  C04C  F002         	movff	_VITESSE+4,___ftneg@f1+1
  2676  000768  C04D  F003         	movff	_VITESSE+5,___ftneg@f1+2
  2677  00076C  EC64  F00D         	call	___ftneg	;wreg free
  2678  000770  C001  F018         	movff	?___ftneg,___ftadd@f1
  2679  000774  C002  F019         	movff	?___ftneg+1,___ftadd@f1+1
  2680  000778  C003  F01A         	movff	?___ftneg+2,___ftadd@f1+2
  2681  00077C  C048  F01B         	movff	_VITESSE,___ftadd@f2
  2682  000780  C049  F01C         	movff	_VITESSE+1,___ftadd@f2+1
  2683  000784  C04A  F01D         	movff	_VITESSE+2,___ftadd@f2+2
  2684  000788  ECCE  F002         	call	___ftadd	;wreg free
  2685  00078C  C018  F03F         	movff	?___ftadd,_ERREUR_VITESSE
  2686  000790  C019  F040         	movff	?___ftadd+1,_ERREUR_VITESSE+1
  2687  000794  C01A  F041         	movff	?___ftadd+2,_ERREUR_VITESSE+2
  2688                           
  2689                           ;asserv.c: 76: ERREUR_VITESSE.integralle += ERREUR_VITESSE.actuelle;
  2690  000798  C042  F018         	movff	_ERREUR_VITESSE+3,___ftadd@f1
  2691  00079C  C043  F019         	movff	_ERREUR_VITESSE+4,___ftadd@f1+1
  2692  0007A0  C044  F01A         	movff	_ERREUR_VITESSE+5,___ftadd@f1+2
  2693  0007A4  C03F  F01B         	movff	_ERREUR_VITESSE,___ftadd@f2
  2694  0007A8  C040  F01C         	movff	_ERREUR_VITESSE+1,___ftadd@f2+1
  2695  0007AC  C041  F01D         	movff	_ERREUR_VITESSE+2,___ftadd@f2+2
  2696  0007B0  ECCE  F002         	call	___ftadd	;wreg free
  2697  0007B4  C018  F042         	movff	?___ftadd,_ERREUR_VITESSE+3
  2698  0007B8  C019  F043         	movff	?___ftadd+1,_ERREUR_VITESSE+4
  2699  0007BC  C01A  F044         	movff	?___ftadd+2,_ERREUR_VITESSE+5
  2700                           
  2701                           ;asserv.c: 78: saturation_erreur_integralle_vitesse();
  2702  0007C0  ECF3  F00B         	call	_saturation_erreur_integralle_vitesse	;wreg free
  2703                           
  2704                           ;asserv.c: 81: commande = ERREUR_VITESSE.actuelle * PID.KP + ERREUR_VITESSE.integralle *
      +                           PID.KI + (ERREUR_VITESSE.actuelle - ERREUR_VITESSE.precedente ) * PID.KD;
  2705  0007C4  C0B0  F00C         	movff	_PID+3,___ftmul@f2
  2706  0007C8  C0B1  F00D         	movff	_PID+4,___ftmul@f2+1
  2707  0007CC  C0B2  F00E         	movff	_PID+5,___ftmul@f2+2
  2708  0007D0  C042  F009         	movff	_ERREUR_VITESSE+3,___ftmul@f1
  2709  0007D4  C043  F00A         	movff	_ERREUR_VITESSE+4,___ftmul@f1+1
  2710  0007D8  C044  F00B         	movff	_ERREUR_VITESSE+5,___ftmul@f1+2
  2711  0007DC  ECE3  F006         	call	___ftmul	;wreg free
  2712  0007E0  C009  F01B         	movff	?___ftmul,___ftadd@f2
  2713  0007E4  C00A  F01C         	movff	?___ftmul+1,___ftadd@f2+1
  2714  0007E8  C00B  F01D         	movff	?___ftmul+2,___ftadd@f2+2
  2715  0007EC  C0AD  F00C         	movff	_PID,___ftmul@f2
  2716  0007F0  C0AE  F00D         	movff	_PID+1,___ftmul@f2+1
  2717  0007F4  C0AF  F00E         	movff	_PID+2,___ftmul@f2+2
  2718  0007F8  C03F  F009         	movff	_ERREUR_VITESSE,___ftmul@f1
  2719  0007FC  C040  F00A         	movff	_ERREUR_VITESSE+1,___ftmul@f1+1
  2720  000800  C041  F00B         	movff	_ERREUR_VITESSE+2,___ftmul@f1+2
  2721  000804  ECE3  F006         	call	___ftmul	;wreg free
  2722  000808  C009  F018         	movff	?___ftmul,___ftadd@f1
  2723  00080C  C00A  F019         	movff	?___ftmul+1,___ftadd@f1+1
  2724  000810  C00B  F01A         	movff	?___ftmul+2,___ftadd@f1+2
  2725  000814  ECCE  F002         	call	___ftadd	;wreg free
  2726  000818  C018  F027         	movff	?___ftadd,_fonction_PID$2778
  2727  00081C  C019  F028         	movff	?___ftadd+1,_fonction_PID$2778+1
  2728  000820  C01A  F029         	movff	?___ftadd+2,_fonction_PID$2778+2
  2729                           
  2730                           ;asserv.c: 81: commande = ERREUR_VITESSE.actuelle * PID.KP + ERREUR_VITESSE.integralle *
      +                           PID.KI + (ERREUR_VITESSE.actuelle - ERREUR_VITESSE.precedente ) * PID.KD;
  2731  000824  C0B3  F00C         	movff	_PID+6,___ftmul@f2
  2732  000828  C0B4  F00D         	movff	_PID+7,___ftmul@f2+1
  2733  00082C  C0B5  F00E         	movff	_PID+8,___ftmul@f2+2
  2734  000830  C03F  F01B         	movff	_ERREUR_VITESSE,___ftadd@f2
  2735  000834  C040  F01C         	movff	_ERREUR_VITESSE+1,___ftadd@f2+1
  2736  000838  C041  F01D         	movff	_ERREUR_VITESSE+2,___ftadd@f2+2
  2737  00083C  C045  F001         	movff	_ERREUR_VITESSE+6,___ftneg@f1
  2738  000840  C046  F002         	movff	_ERREUR_VITESSE+7,___ftneg@f1+1
  2739  000844  C047  F003         	movff	_ERREUR_VITESSE+8,___ftneg@f1+2
  2740  000848  EC64  F00D         	call	___ftneg	;wreg free
  2741  00084C  C001  F018         	movff	?___ftneg,___ftadd@f1
  2742  000850  C002  F019         	movff	?___ftneg+1,___ftadd@f1+1
  2743  000854  C003  F01A         	movff	?___ftneg+2,___ftadd@f1+2
  2744  000858  ECCE  F002         	call	___ftadd	;wreg free
  2745  00085C  C018  F009         	movff	?___ftadd,___ftmul@f1
  2746  000860  C019  F00A         	movff	?___ftadd+1,___ftmul@f1+1
  2747  000864  C01A  F00B         	movff	?___ftadd+2,___ftmul@f1+2
  2748  000868  ECE3  F006         	call	___ftmul	;wreg free
  2749  00086C  C009  F02A         	movff	?___ftmul,_fonction_PID$2779
  2750  000870  C00A  F02B         	movff	?___ftmul+1,_fonction_PID$2779+1
  2751  000874  C00B  F02C         	movff	?___ftmul+2,_fonction_PID$2779+2
  2752                           
  2753                           ;asserv.c: 81: commande = ERREUR_VITESSE.actuelle * PID.KP + ERREUR_VITESSE.integralle *
      +                           PID.KI + (ERREUR_VITESSE.actuelle - ERREUR_VITESSE.precedente ) * PID.KD;
  2754  000878  C027  F018         	movff	_fonction_PID$2778,___ftadd@f1
  2755  00087C  C028  F019         	movff	_fonction_PID$2778+1,___ftadd@f1+1
  2756  000880  C029  F01A         	movff	_fonction_PID$2778+2,___ftadd@f1+2
  2757  000884  C02A  F01B         	movff	_fonction_PID$2779,___ftadd@f2
  2758  000888  C02B  F01C         	movff	_fonction_PID$2779+1,___ftadd@f2+1
  2759  00088C  C02C  F01D         	movff	_fonction_PID$2779+2,___ftadd@f2+2
  2760  000890  ECCE  F002         	call	___ftadd	;wreg free
  2761  000894  C018  F0BA         	movff	?___ftadd,fonction_PID@commande
  2762  000898  C019  F0BB         	movff	?___ftadd+1,fonction_PID@commande+1
  2763  00089C  C01A  F0BC         	movff	?___ftadd+2,fonction_PID@commande+2
  2764                           
  2765                           ;asserv.c: 83: ERREUR_VITESSE.precedente = ERREUR_VITESSE.actuelle;
  2766  0008A0  C03F  F045         	movff	_ERREUR_VITESSE,_ERREUR_VITESSE+6
  2767  0008A4  C040  F046         	movff	_ERREUR_VITESSE+1,_ERREUR_VITESSE+7
  2768  0008A8  C041  F047         	movff	_ERREUR_VITESSE+2,_ERREUR_VITESSE+8
  2769                           
  2770                           ;asserv.c: 85: return commande;
  2771  0008AC  C0BA  F024         	movff	fonction_PID@commande,?_fonction_PID
  2772  0008B0  C0BB  F025         	movff	fonction_PID@commande+1,?_fonction_PID+1
  2773  0008B4  C0BC  F026         	movff	fonction_PID@commande+2,?_fonction_PID+2
  2774  0008B8  D000               	goto	i1l469
  2775  0008BA                     i1l469:
  2776  0008BA  0012               	return		;funcret
  2777  0008BC                     __end_of_fonction_PID:
  2778                           	opt stack 0
  2779                           pclatu	equ	0xFFB
  2780                           pclath	equ	0xFFA
  2781                           tblptru	equ	0xFF8
  2782                           tblptrh	equ	0xFF7
  2783                           tblptrl	equ	0xFF6
  2784                           tablat	equ	0xFF5
  2785                           prodh	equ	0xFF4
  2786                           prodl	equ	0xFF3
  2787                           intcon	equ	0xFF2
  2788                           intcon2	equ	0xFF1
  2789                           intcon3	equ	0xFF0
  2790                           postinc0	equ	0xFEE
  2791                           fsr0h	equ	0xFEA
  2792                           fsr0l	equ	0xFE9
  2793                           wreg	equ	0xFE8
  2794                           fsr1h	equ	0xFE2
  2795                           fsr1l	equ	0xFE1
  2796                           bsr	equ	0xFE0
  2797                           indf2	equ	0xFDF
  2798                           fsr2h	equ	0xFDA
  2799                           fsr2l	equ	0xFD9
  2800                           status	equ	0xFD8
  2801                           
  2802 ;; *************** function _saturation_erreur_integralle_vitesse *****************
  2803 ;; Defined at:
  2804 ;;		line 52 in file "asserv.c"
  2805 ;; Parameters:    Size  Location     Type
  2806 ;;		None
  2807 ;; Auto vars:     Size  Location     Type
  2808 ;;		None
  2809 ;; Return value:  Size  Location     Type
  2810 ;;		None               void
  2811 ;; Registers used:
  2812 ;;		wreg, status,2, status,0, cstack
  2813 ;; Tracked objects:
  2814 ;;		On entry : 0/0
  2815 ;;		On exit  : 0/0
  2816 ;;		Unchanged: 0/0
  2817 ;; Data sizes:     COMRAM   BANK0   BANK1   BANK2
  2818 ;;      Params:         0       0       0       0
  2819 ;;      Locals:         0       0       0       0
  2820 ;;      Temps:          0       0       0       0
  2821 ;;      Totals:         0       0       0       0
  2822 ;;Total ram usage:        0 bytes
  2823 ;; Hardware stack levels used:    1
  2824 ;; Hardware stack levels required when called:    8
  2825 ;; This function calls:
  2826 ;;		___ftge
  2827 ;; This function is called by:
  2828 ;;		_fonction_PID
  2829 ;; This function uses a non-reentrant model
  2830 ;;
  2831                           
  2832                           	psect	text20
  2833  0017E6                     __ptext20:
  2834                           	opt stack 0
  2835  0017E6                     _saturation_erreur_integralle_vitesse:
  2836                           	opt stack 14
  2837                           
  2838                           ;asserv.c: 54: if (ERREUR_VITESSE.integralle > 1000.)
  2839                           
  2840                           ;incstack = 0
  2841  0017E6  0E00               	movlw	0
  2842  0017E8  6E01               	movwf	___ftge@ff1,c
  2843  0017EA  0E7A               	movlw	122
  2844  0017EC  6E02               	movwf	___ftge@ff1+1,c
  2845  0017EE  0E44               	movlw	68
  2846  0017F0  6E03               	movwf	___ftge@ff1+2,c
  2847  0017F2  C042  F004         	movff	_ERREUR_VITESSE+3,___ftge@ff2
  2848  0017F6  C043  F005         	movff	_ERREUR_VITESSE+4,___ftge@ff2+1
  2849  0017FA  C044  F006         	movff	_ERREUR_VITESSE+5,___ftge@ff2+2
  2850  0017FE  ECBC  F009         	call	___ftge	;wreg free
  2851  001802  B0D8               	btfsc	status,0,c
  2852  001804  D006               	goto	i1l2171
  2853                           
  2854                           ;asserv.c: 55: ERREUR_VITESSE.integralle = 1000.;
  2855  001806  0E00               	movlw	0
  2856  001808  6E42               	movwf	_ERREUR_VITESSE+3,c
  2857  00180A  0E7A               	movlw	122
  2858  00180C  6E43               	movwf	_ERREUR_VITESSE+4,c
  2859  00180E  0E44               	movlw	68
  2860  001810  D015               	goto	L1
  2861  001812                     i1l2171:
  2862                           
  2863                           ;asserv.c: 56: else if (ERREUR_VITESSE.integralle < - 1000.)
  2864  001812  C042  F001         	movff	_ERREUR_VITESSE+3,___ftge@ff1
  2865  001816  C043  F002         	movff	_ERREUR_VITESSE+4,___ftge@ff1+1
  2866  00181A  C044  F003         	movff	_ERREUR_VITESSE+5,___ftge@ff1+2
  2867  00181E  0E00               	movlw	0
  2868  001820  6E04               	movwf	___ftge@ff2,c
  2869  001822  0E7A               	movlw	122
  2870  001824  6E05               	movwf	___ftge@ff2+1,c
  2871  001826  0EC4               	movlw	196
  2872  001828  6E06               	movwf	___ftge@ff2+2,c
  2873  00182A  ECBC  F009         	call	___ftge	;wreg free
  2874  00182E  B0D8               	btfsc	status,0,c
  2875  001830  D007               	goto	i1l461
  2876                           
  2877                           ;asserv.c: 57: ERREUR_VITESSE.integralle = - 1000.;
  2878  001832  0E00               	movlw	0
  2879  001834  6E42               	movwf	_ERREUR_VITESSE+3,c
  2880  001836  0E7A               	movlw	122
  2881  001838  6E43               	movwf	_ERREUR_VITESSE+4,c
  2882  00183A  0EC4               	movlw	196
  2883  00183C                     L1:
  2884  00183C  6E44               	movwf	_ERREUR_VITESSE+5,c
  2885  00183E  D000               	goto	i1l461
  2886  001840                     i1l461:
  2887  001840  0012               	return		;funcret
  2888  001842                     __end_of_saturation_erreur_integralle_vitesse:
  2889                           	opt stack 0
  2890                           pclatu	equ	0xFFB
  2891                           pclath	equ	0xFFA
  2892                           tblptru	equ	0xFF8
  2893                           tblptrh	equ	0xFF7
  2894                           tblptrl	equ	0xFF6
  2895                           tablat	equ	0xFF5
  2896                           prodh	equ	0xFF4
  2897                           prodl	equ	0xFF3
  2898                           intcon	equ	0xFF2
  2899                           intcon2	equ	0xFF1
  2900                           intcon3	equ	0xFF0
  2901                           postinc0	equ	0xFEE
  2902                           fsr0h	equ	0xFEA
  2903                           fsr0l	equ	0xFE9
  2904                           wreg	equ	0xFE8
  2905                           fsr1h	equ	0xFE2
  2906                           fsr1l	equ	0xFE1
  2907                           bsr	equ	0xFE0
  2908                           indf2	equ	0xFDF
  2909                           fsr2h	equ	0xFDA
  2910                           fsr2l	equ	0xFD9
  2911                           status	equ	0xFD8
  2912                           
  2913 ;; *************** function ___ftadd *****************
  2914 ;; Defined at:
  2915 ;;		line 86 in file "C:\Program Files (x86)\Microchip\xc8\v1.34\sources\common\ftadd.c"
  2916 ;; Parameters:    Size  Location     Type
  2917 ;;  f1              3   23[COMRAM] float 
  2918 ;;  f2              3   26[COMRAM] float 
  2919 ;; Auto vars:     Size  Location     Type
  2920 ;;  exp1            1   34[COMRAM] unsigned char 
  2921 ;;  exp2            1   33[COMRAM] unsigned char 
  2922 ;;  sign            1   32[COMRAM] unsigned char 
  2923 ;; Return value:  Size  Location     Type
  2924 ;;                  3   23[COMRAM] float 
  2925 ;; Registers used:
  2926 ;;		wreg, status,2, status,0, cstack
  2927 ;; Tracked objects:
  2928 ;;		On entry : 0/0
  2929 ;;		On exit  : 0/0
  2930 ;;		Unchanged: 0/0
  2931 ;; Data sizes:     COMRAM   BANK0   BANK1   BANK2
  2932 ;;      Params:         6       0       0       0
  2933 ;;      Locals:         3       0       0       0
  2934 ;;      Temps:          3       0       0       0
  2935 ;;      Totals:        12       0       0       0
  2936 ;;Total ram usage:       12 bytes
  2937 ;; Hardware stack levels used:    1
  2938 ;; Hardware stack levels required when called:    8
  2939 ;; This function calls:
  2940 ;;		___ftpack
  2941 ;; This function is called by:
  2942 ;;		_fonction_PID
  2943 ;; This function uses a non-reentrant model
  2944 ;;
  2945                           
  2946                           	psect	text21
  2947  00059C                     __ptext21:
  2948                           	opt stack 0
  2949  00059C                     ___ftadd:
  2950                           	opt stack 14
  2951                           
  2952                           ;incstack = 0
  2953  00059C  C01A  F01E         	movff	___ftadd@f1+2,??___ftadd
  2954  0005A0  6A1F               	clrf	(??___ftadd+1)& (0+255),c
  2955  0005A2  6A20               	clrf	(??___ftadd+2)& (0+255),c
  2956  0005A4  3419               	rlcf	___ftadd@f1+1,w,c
  2957  0005A6  361E               	rlcf	??___ftadd& (0+255),f,c
  2958  0005A8  E301               	bnc	u178_21
  2959  0005AA  801F               	bsf	(??___ftadd+1)& (0+255),0,c
  2960  0005AC                     u178_21:
  2961  0005AC  501E               	movf	??___ftadd,w,c
  2962  0005AE  6E23               	movwf	___ftadd@exp1,c
  2963  0005B0  C01D  F01E         	movff	___ftadd@f2+2,??___ftadd
  2964  0005B4  6A1F               	clrf	(??___ftadd+1)& (0+255),c
  2965  0005B6  6A20               	clrf	(??___ftadd+2)& (0+255),c
  2966  0005B8  341C               	rlcf	___ftadd@f2+1,w,c
  2967  0005BA  361E               	rlcf	??___ftadd& (0+255),f,c
  2968  0005BC  E301               	bnc	u179_21
  2969  0005BE  801F               	bsf	(??___ftadd+1)& (0+255),0,c
  2970  0005C0                     u179_21:
  2971  0005C0  501E               	movf	??___ftadd,w,c
  2972  0005C2  6E22               	movwf	___ftadd@exp2,c
  2973  0005C4  5023               	movf	___ftadd@exp1,w,c
  2974  0005C6  B4D8               	btfsc	status,2,c
  2975  0005C8  D00B               	goto	i1l828
  2976  0005CA  5022               	movf	___ftadd@exp2,w,c
  2977  0005CC  5C23               	subwf	___ftadd@exp1,w,c
  2978  0005CE  B0D8               	btfsc	status,0,c
  2979  0005D0  D00E               	goto	i1l2183
  2980  0005D2  5023               	movf	___ftadd@exp1,w,c
  2981  0005D4  0800               	sublw	0
  2982  0005D6  2422               	addwf	___ftadd@exp2,w,c
  2983  0005D8  6E1E               	movwf	??___ftadd& (0+255),c
  2984  0005DA  0E18               	movlw	24
  2985  0005DC  641E               	cpfsgt	??___ftadd,c
  2986  0005DE  D007               	goto	i1l2183
  2987  0005E0                     i1l828:
  2988  0005E0  C01B  F018         	movff	___ftadd@f2,?___ftadd
  2989  0005E4  C01C  F019         	movff	___ftadd@f2+1,?___ftadd+1
  2990  0005E8  C01D  F01A         	movff	___ftadd@f2+2,?___ftadd+2
  2991  0005EC  D0B8               	goto	i1l829
  2992  0005EE                     i1l2183:
  2993  0005EE  5022               	movf	___ftadd@exp2,w,c
  2994  0005F0  B4D8               	btfsc	status,2,c
  2995  0005F2  D00B               	goto	i1l832
  2996  0005F4  5023               	movf	___ftadd@exp1,w,c
  2997  0005F6  5C22               	subwf	___ftadd@exp2,w,c
  2998  0005F8  B0D8               	btfsc	status,0,c
  2999  0005FA  D00E               	goto	i1l2189
  3000  0005FC  5022               	movf	___ftadd@exp2,w,c
  3001  0005FE  0800               	sublw	0
  3002  000600  2423               	addwf	___ftadd@exp1,w,c
  3003  000602  6E1E               	movwf	??___ftadd& (0+255),c
  3004  000604  0E18               	movlw	24
  3005  000606  641E               	cpfsgt	??___ftadd,c
  3006  000608  D007               	goto	i1l2189
  3007  00060A                     i1l832:
  3008  00060A  C018  F018         	movff	___ftadd@f1,?___ftadd
  3009  00060E  C019  F019         	movff	___ftadd@f1+1,?___ftadd+1
  3010  000612  C01A  F01A         	movff	___ftadd@f1+2,?___ftadd+2
  3011  000616  D0A3               	goto	i1l829
  3012  000618                     i1l2189:
  3013  000618  0E06               	movlw	6
  3014  00061A  6E21               	movwf	___ftadd@sign,c
  3015  00061C  AE1A               	btfss	___ftadd@f1+2,7,c
  3016  00061E  D002               	goto	i1l2195
  3017  000620  8E21               	bsf	___ftadd@sign,7,c
  3018  000622  D000               	goto	i1l2195
  3019  000624                     i1l2195:
  3020  000624  BE1D               	btfsc	___ftadd@f2+2,7,c
  3021  000626  8C21               	bsf	___ftadd@sign,6,c
  3022  000628  8E19               	bsf	___ftadd@f1+1,7,c
  3023  00062A  0EFF               	movlw	255
  3024  00062C  1618               	andwf	___ftadd@f1,f,c
  3025  00062E  0EFF               	movlw	255
  3026  000630  1619               	andwf	___ftadd@f1+1,f,c
  3027  000632  0E00               	movlw	0
  3028  000634  161A               	andwf	___ftadd@f1+2,f,c
  3029  000636  8E1C               	bsf	___ftadd@f2+1,7,c
  3030  000638  0EFF               	movlw	255
  3031  00063A  161B               	andwf	___ftadd@f2,f,c
  3032  00063C  0EFF               	movlw	255
  3033  00063E  161C               	andwf	___ftadd@f2+1,f,c
  3034  000640  0E00               	movlw	0
  3035  000642  161D               	andwf	___ftadd@f2+2,f,c
  3036  000644  5022               	movf	___ftadd@exp2,w,c
  3037  000646  5C23               	subwf	___ftadd@exp1,w,c
  3038  000648  B0D8               	btfsc	status,0,c
  3039  00064A  D01E               	goto	i1l2215
  3040  00064C                     i1l2205:
  3041  00064C  90D8               	bcf	status,0,c
  3042  00064E  361B               	rlcf	___ftadd@f2,f,c
  3043  000650  361C               	rlcf	___ftadd@f2+1,f,c
  3044  000652  361D               	rlcf	___ftadd@f2+2,f,c
  3045  000654  0622               	decf	___ftadd@exp2,f,c
  3046  000656  5023               	movf	___ftadd@exp1,w,c
  3047  000658  1822               	xorwf	___ftadd@exp2,w,c
  3048  00065A  B4D8               	btfsc	status,2,c
  3049  00065C  D00F               	goto	i1l2213
  3050  00065E  0621               	decf	___ftadd@sign,f,c
  3051  000660  C021  F01E         	movff	___ftadd@sign,??___ftadd
  3052  000664  0E07               	movlw	7
  3053  000666  161E               	andwf	??___ftadd,f,c
  3054  000668  B4D8               	btfsc	status,2,c
  3055  00066A  D008               	goto	i1l2213
  3056  00066C  D7EF               	goto	i1l2205
  3057  00066E  D006               	goto	i1l2213
  3058  000670                     i1l2211:
  3059  000670  90D8               	bcf	status,0,c
  3060  000672  321A               	rrcf	___ftadd@f1+2,f,c
  3061  000674  3219               	rrcf	___ftadd@f1+1,f,c
  3062  000676  3218               	rrcf	___ftadd@f1,f,c
  3063  000678  2A23               	incf	___ftadd@exp1,f,c
  3064  00067A  D000               	goto	i1l2213
  3065  00067C                     i1l2213:
  3066  00067C  5022               	movf	___ftadd@exp2,w,c
  3067  00067E  1823               	xorwf	___ftadd@exp1,w,c
  3068  000680  B4D8               	btfsc	status,2,c
  3069  000682  D024               	goto	i1l843
  3070  000684  D7F5               	goto	i1l2211
  3071  000686  D022               	goto	i1l843
  3072  000688                     i1l2215:
  3073  000688  5023               	movf	___ftadd@exp1,w,c
  3074  00068A  5C22               	subwf	___ftadd@exp2,w,c
  3075  00068C  B0D8               	btfsc	status,0,c
  3076  00068E  D01E               	goto	i1l843
  3077  000690                     i1l2217:
  3078  000690  90D8               	bcf	status,0,c
  3079  000692  3618               	rlcf	___ftadd@f1,f,c
  3080  000694  3619               	rlcf	___ftadd@f1+1,f,c
  3081  000696  361A               	rlcf	___ftadd@f1+2,f,c
  3082  000698  0623               	decf	___ftadd@exp1,f,c
  3083  00069A  5023               	movf	___ftadd@exp1,w,c
  3084  00069C  1822               	xorwf	___ftadd@exp2,w,c
  3085  00069E  B4D8               	btfsc	status,2,c
  3086  0006A0  D00F               	goto	i1l2225
  3087  0006A2  0621               	decf	___ftadd@sign,f,c
  3088  0006A4  C021  F01E         	movff	___ftadd@sign,??___ftadd
  3089  0006A8  0E07               	movlw	7
  3090  0006AA  161E               	andwf	??___ftadd,f,c
  3091  0006AC  B4D8               	btfsc	status,2,c
  3092  0006AE  D008               	goto	i1l2225
  3093  0006B0  D7EF               	goto	i1l2217
  3094  0006B2  D006               	goto	i1l2225
  3095  0006B4                     i1l2223:
  3096  0006B4  90D8               	bcf	status,0,c
  3097  0006B6  321D               	rrcf	___ftadd@f2+2,f,c
  3098  0006B8  321C               	rrcf	___ftadd@f2+1,f,c
  3099  0006BA  321B               	rrcf	___ftadd@f2,f,c
  3100  0006BC  2A22               	incf	___ftadd@exp2,f,c
  3101  0006BE  D000               	goto	i1l2225
  3102  0006C0                     i1l2225:
  3103  0006C0  5022               	movf	___ftadd@exp2,w,c
  3104  0006C2  1823               	xorwf	___ftadd@exp1,w,c
  3105  0006C4  B4D8               	btfsc	status,2,c
  3106  0006C6  D002               	goto	i1l843
  3107  0006C8  D7F5               	goto	i1l2223
  3108  0006CA  D000               	goto	i1l843
  3109  0006CC                     i1l843:
  3110  0006CC  AE21               	btfss	___ftadd@sign,7,c
  3111  0006CE  D00C               	goto	i1l852
  3112  0006D0  0EFF               	movlw	255
  3113  0006D2  1A18               	xorwf	___ftadd@f1,f,c
  3114  0006D4  0EFF               	movlw	255
  3115  0006D6  1A19               	xorwf	___ftadd@f1+1,f,c
  3116  0006D8  0EFF               	movlw	255
  3117  0006DA  1A1A               	xorwf	___ftadd@f1+2,f,c
  3118  0006DC  0E01               	movlw	1
  3119  0006DE  2618               	addwf	___ftadd@f1,f,c
  3120  0006E0  0E00               	movlw	0
  3121  0006E2  2219               	addwfc	___ftadd@f1+1,f,c
  3122  0006E4  0E00               	movlw	0
  3123  0006E6  221A               	addwfc	___ftadd@f1+2,f,c
  3124  0006E8                     i1l852:
  3125  0006E8  AC21               	btfss	___ftadd@sign,6,c
  3126  0006EA  D00D               	goto	i1l2231
  3127  0006EC  0EFF               	movlw	255
  3128  0006EE  1A1B               	xorwf	___ftadd@f2,f,c
  3129  0006F0  0EFF               	movlw	255
  3130  0006F2  1A1C               	xorwf	___ftadd@f2+1,f,c
  3131  0006F4  0EFF               	movlw	255
  3132  0006F6  1A1D               	xorwf	___ftadd@f2+2,f,c
  3133  0006F8  0E01               	movlw	1
  3134  0006FA  261B               	addwf	___ftadd@f2,f,c
  3135  0006FC  0E00               	movlw	0
  3136  0006FE  221C               	addwfc	___ftadd@f2+1,f,c
  3137  000700  0E00               	movlw	0
  3138  000702  221D               	addwfc	___ftadd@f2+2,f,c
  3139  000704  D000               	goto	i1l2231
  3140  000706                     i1l2231:
  3141  000706  0E00               	movlw	0
  3142  000708  6E21               	movwf	___ftadd@sign,c
  3143  00070A  5018               	movf	___ftadd@f1,w,c
  3144  00070C  261B               	addwf	___ftadd@f2,f,c
  3145  00070E  5019               	movf	___ftadd@f1+1,w,c
  3146  000710  221C               	addwfc	___ftadd@f2+1,f,c
  3147  000712  501A               	movf	___ftadd@f1+2,w,c
  3148  000714  221D               	addwfc	___ftadd@f2+2,f,c
  3149  000716  AE1D               	btfss	___ftadd@f2+2,7,c
  3150  000718  D00F               	goto	i1l2241
  3151  00071A  0EFF               	movlw	255
  3152  00071C  1A1B               	xorwf	___ftadd@f2,f,c
  3153  00071E  0EFF               	movlw	255
  3154  000720  1A1C               	xorwf	___ftadd@f2+1,f,c
  3155  000722  0EFF               	movlw	255
  3156  000724  1A1D               	xorwf	___ftadd@f2+2,f,c
  3157  000726  0E01               	movlw	1
  3158  000728  261B               	addwf	___ftadd@f2,f,c
  3159  00072A  0E00               	movlw	0
  3160  00072C  221C               	addwfc	___ftadd@f2+1,f,c
  3161  00072E  0E00               	movlw	0
  3162  000730  221D               	addwfc	___ftadd@f2+2,f,c
  3163  000732  0E01               	movlw	1
  3164  000734  6E21               	movwf	___ftadd@sign,c
  3165  000736  D000               	goto	i1l2241
  3166  000738                     i1l2241:
  3167  000738  C01B  F001         	movff	___ftadd@f2,___ftpack@arg
  3168  00073C  C01C  F002         	movff	___ftadd@f2+1,___ftpack@arg+1
  3169  000740  C01D  F003         	movff	___ftadd@f2+2,___ftpack@arg+2
  3170  000744  C023  F004         	movff	___ftadd@exp1,___ftpack@exp
  3171  000748  C021  F005         	movff	___ftadd@sign,___ftpack@sign
  3172  00074C  ECAA  F008         	call	___ftpack	;wreg free
  3173  000750  C001  F018         	movff	?___ftpack,?___ftadd
  3174  000754  C002  F019         	movff	?___ftpack+1,?___ftadd+1
  3175  000758  C003  F01A         	movff	?___ftpack+2,?___ftadd+2
  3176  00075C  D000               	goto	i1l829
  3177  00075E                     i1l829:
  3178  00075E  0012               	return		;funcret
  3179  000760                     __end_of___ftadd:
  3180                           	opt stack 0
  3181                           pclatu	equ	0xFFB
  3182                           pclath	equ	0xFFA
  3183                           tblptru	equ	0xFF8
  3184                           tblptrh	equ	0xFF7
  3185                           tblptrl	equ	0xFF6
  3186                           tablat	equ	0xFF5
  3187                           prodh	equ	0xFF4
  3188                           prodl	equ	0xFF3
  3189                           intcon	equ	0xFF2
  3190                           intcon2	equ	0xFF1
  3191                           intcon3	equ	0xFF0
  3192                           postinc0	equ	0xFEE
  3193                           fsr0h	equ	0xFEA
  3194                           fsr0l	equ	0xFE9
  3195                           wreg	equ	0xFE8
  3196                           fsr1h	equ	0xFE2
  3197                           fsr1l	equ	0xFE1
  3198                           bsr	equ	0xFE0
  3199                           indf2	equ	0xFDF
  3200                           fsr2h	equ	0xFDA
  3201                           fsr2l	equ	0xFD9
  3202                           status	equ	0xFD8
  3203                           
  3204 ;; *************** function _envoit_pwm *****************
  3205 ;; Defined at:
  3206 ;;		line 53 in file "moteur.c"
  3207 ;; Parameters:    Size  Location     Type
  3208 ;;  valeur          3   23[COMRAM] float 
  3209 ;; Auto vars:     Size  Location     Type
  3210 ;;  abs_valeur      3   26[COMRAM] float 
  3211 ;; Return value:  Size  Location     Type
  3212 ;;		None               void
  3213 ;; Registers used:
  3214 ;;		wreg, status,2, status,0, cstack
  3215 ;; Tracked objects:
  3216 ;;		On entry : 0/0
  3217 ;;		On exit  : 0/0
  3218 ;;		Unchanged: 0/0
  3219 ;; Data sizes:     COMRAM   BANK0   BANK1   BANK2
  3220 ;;      Params:         3       0       0       0
  3221 ;;      Locals:         3       0       0       0
  3222 ;;      Temps:          0       0       0       0
  3223 ;;      Totals:         6       0       0       0
  3224 ;;Total ram usage:        6 bytes
  3225 ;; Hardware stack levels used:    1
  3226 ;; Hardware stack levels required when called:    9
  3227 ;; This function calls:
  3228 ;;		___ftge
  3229 ;;		___ftmul
  3230 ;;		___ftneg
  3231 ;;		___fttol
  3232 ;; This function is called by:
  3233 ;;		_asserv
  3234 ;; This function uses a non-reentrant model
  3235 ;;
  3236                           
  3237                           	psect	text22
  3238  00121A                     __ptext22:
  3239                           	opt stack 0
  3240  00121A                     _envoit_pwm:
  3241                           	opt stack 14
  3242                           
  3243                           ;moteur.c: 55: double abs_valeur;
  3244                           ;moteur.c: 57: if (valeur < 0)
  3245                           
  3246                           ;incstack = 0
  3247  00121A  AE1A               	btfss	envoit_pwm@valeur+2,7,c
  3248  00121C  D00F               	goto	i1l413
  3249                           
  3250                           ;moteur.c: 58: abs_valeur = (double) (-valeur);
  3251  00121E  C018  F001         	movff	envoit_pwm@valeur,___ftneg@f1
  3252  001222  C019  F002         	movff	envoit_pwm@valeur+1,___ftneg@f1+1
  3253  001226  C01A  F003         	movff	envoit_pwm@valeur+2,___ftneg@f1+2
  3254  00122A  EC64  F00D         	call	___ftneg	;wreg free
  3255  00122E  C001  F01B         	movff	?___ftneg,envoit_pwm@abs_valeur
  3256  001232  C002  F01C         	movff	?___ftneg+1,envoit_pwm@abs_valeur+1
  3257  001236  C003  F01D         	movff	?___ftneg+2,envoit_pwm@abs_valeur+2
  3258  00123A  D007               	goto	i1l2523
  3259  00123C                     i1l413:
  3260                           
  3261                           ;moteur.c: 59: else
  3262                           ;moteur.c: 60: abs_valeur = (double) valeur;
  3263  00123C  C018  F01B         	movff	envoit_pwm@valeur,envoit_pwm@abs_valeur
  3264  001240  C019  F01C         	movff	envoit_pwm@valeur+1,envoit_pwm@abs_valeur+1
  3265  001244  C01A  F01D         	movff	envoit_pwm@valeur+2,envoit_pwm@abs_valeur+2
  3266  001248  D000               	goto	i1l2523
  3267  00124A                     i1l2523:
  3268                           
  3269                           ;moteur.c: 62: abs_valeur *= (double) 669 / 100;
  3270  00124A  C01B  F009         	movff	envoit_pwm@abs_valeur,___ftmul@f1
  3271  00124E  C01C  F00A         	movff	envoit_pwm@abs_valeur+1,___ftmul@f1+1
  3272  001252  C01D  F00B         	movff	envoit_pwm@abs_valeur+2,___ftmul@f1+2
  3273  001256  0E14               	movlw	20
  3274  001258  6E0C               	movwf	___ftmul@f2,c
  3275  00125A  0ED6               	movlw	214
  3276  00125C  6E0D               	movwf	___ftmul@f2+1,c
  3277  00125E  0E40               	movlw	64
  3278  001260  6E0E               	movwf	___ftmul@f2+2,c
  3279  001262  ECE3  F006         	call	___ftmul	;wreg free
  3280  001266  C009  F01B         	movff	?___ftmul,envoit_pwm@abs_valeur
  3281  00126A  C00A  F01C         	movff	?___ftmul+1,envoit_pwm@abs_valeur+1
  3282  00126E  C00B  F01D         	movff	?___ftmul+2,envoit_pwm@abs_valeur+2
  3283                           
  3284                           ;moteur.c: 64: if (abs_valeur > 669)
  3285  001272  0E40               	movlw	64
  3286  001274  6E01               	movwf	___ftge@ff1,c
  3287  001276  0E27               	movlw	39
  3288  001278  6E02               	movwf	___ftge@ff1+1,c
  3289  00127A  0E44               	movlw	68
  3290  00127C  6E03               	movwf	___ftge@ff1+2,c
  3291  00127E  C01B  F004         	movff	envoit_pwm@abs_valeur,___ftge@ff2
  3292  001282  C01C  F005         	movff	envoit_pwm@abs_valeur+1,___ftge@ff2+1
  3293  001286  C01D  F006         	movff	envoit_pwm@abs_valeur+2,___ftge@ff2+2
  3294  00128A  ECBC  F009         	call	___ftge	;wreg free
  3295  00128E  B0D8               	btfsc	status,0,c
  3296  001290  D007               	goto	i1l2527
  3297                           
  3298                           ;moteur.c: 65: abs_valeur = 669;
  3299  001292  0E40               	movlw	64
  3300  001294  6E1B               	movwf	envoit_pwm@abs_valeur,c
  3301  001296  0E27               	movlw	39
  3302  001298  6E1C               	movwf	envoit_pwm@abs_valeur+1,c
  3303  00129A  0E44               	movlw	68
  3304  00129C  6E1D               	movwf	envoit_pwm@abs_valeur+2,c
  3305  00129E  D000               	goto	i1l2527
  3306  0012A0                     i1l2527:
  3307                           
  3308                           ;moteur.c: 67: if (valeur < (double) 0.)
  3309  0012A0  AE1A               	btfss	envoit_pwm@valeur+2,7,c
  3310  0012A2  D002               	goto	i1l416
  3311                           
  3312                           ;moteur.c: 68: {
  3313                           ;moteur.c: 69: PORTDbits.RD4 = 1;
  3314  0012A4  8883               	bsf	3971,4,c	;volatile
  3315                           
  3316                           ;moteur.c: 70: }
  3317  0012A6  D002               	goto	i1l2531
  3318  0012A8                     i1l416:
  3319                           
  3320                           ;moteur.c: 71: else
  3321                           ;moteur.c: 72: {
  3322                           ;moteur.c: 73: PORTDbits.RD4 = 0;
  3323  0012A8  9883               	bcf	3971,4,c	;volatile
  3324  0012AA  D000               	goto	i1l2531
  3325  0012AC                     i1l2531:
  3326                           
  3327                           ;moteur.c: 74: }
  3328                           ;moteur.c: 76: PDC0L = (uint8_t) ((uint16_t) abs_valeur % 256);
  3329  0012AC  C01B  F001         	movff	envoit_pwm@abs_valeur,___fttol@f1
  3330  0012B0  C01C  F002         	movff	envoit_pwm@abs_valeur+1,___fttol@f1+1
  3331  0012B4  C01D  F003         	movff	envoit_pwm@abs_valeur+2,___fttol@f1+2
  3332  0012B8  EC5F  F007         	call	___fttol	;wreg free
  3333  0012BC  5001               	movf	?___fttol,w,c
  3334  0012BE  6E79               	movwf	3961,c	;volatile
  3335                           
  3336                           ;moteur.c: 77: PDC0H = (uint8_t) ((uint16_t) abs_valeur / 256);
  3337  0012C0  C01B  F001         	movff	envoit_pwm@abs_valeur,___fttol@f1
  3338  0012C4  C01C  F002         	movff	envoit_pwm@abs_valeur+1,___fttol@f1+1
  3339  0012C8  C01D  F003         	movff	envoit_pwm@abs_valeur+2,___fttol@f1+2
  3340  0012CC  EC5F  F007         	call	___fttol	;wreg free
  3341  0012D0  C002  F001         	movff	?___fttol+1,?___fttol
  3342  0012D4  6A02               	clrf	?___fttol+1,c
  3343  0012D6  5001               	movf	?___fttol,w,c
  3344  0012D8  6E78               	movwf	3960,c	;volatile
  3345  0012DA  0012               	return		;funcret
  3346  0012DC                     __end_of_envoit_pwm:
  3347                           	opt stack 0
  3348                           pclatu	equ	0xFFB
  3349                           pclath	equ	0xFFA
  3350                           tblptru	equ	0xFF8
  3351                           tblptrh	equ	0xFF7
  3352                           tblptrl	equ	0xFF6
  3353                           tablat	equ	0xFF5
  3354                           prodh	equ	0xFF4
  3355                           prodl	equ	0xFF3
  3356                           intcon	equ	0xFF2
  3357                           intcon2	equ	0xFF1
  3358                           intcon3	equ	0xFF0
  3359                           postinc0	equ	0xFEE
  3360                           fsr0h	equ	0xFEA
  3361                           fsr0l	equ	0xFE9
  3362                           wreg	equ	0xFE8
  3363                           fsr1h	equ	0xFE2
  3364                           fsr1l	equ	0xFE1
  3365                           bsr	equ	0xFE0
  3366                           indf2	equ	0xFDF
  3367                           fsr2h	equ	0xFDA
  3368                           fsr2l	equ	0xFD9
  3369                           status	equ	0xFD8
  3370                           
  3371 ;; *************** function ___fttol *****************
  3372 ;; Defined at:
  3373 ;;		line 44 in file "C:\Program Files (x86)\Microchip\xc8\v1.34\sources\common\fttol.c"
  3374 ;; Parameters:    Size  Location     Type
  3375 ;;  f1              3    0[COMRAM] float 
  3376 ;; Auto vars:     Size  Location     Type
  3377 ;;  lval            4   10[COMRAM] unsigned long 
  3378 ;;  exp1            1   14[COMRAM] unsigned char 
  3379 ;;  sign1           1    9[COMRAM] unsigned char 
  3380 ;; Return value:  Size  Location     Type
  3381 ;;                  4    0[COMRAM] long 
  3382 ;; Registers used:
  3383 ;;		wreg, status,2, status,0
  3384 ;; Tracked objects:
  3385 ;;		On entry : 0/0
  3386 ;;		On exit  : 0/0
  3387 ;;		Unchanged: 0/0
  3388 ;; Data sizes:     COMRAM   BANK0   BANK1   BANK2
  3389 ;;      Params:         4       0       0       0
  3390 ;;      Locals:         6       0       0       0
  3391 ;;      Temps:          5       0       0       0
  3392 ;;      Totals:        15       0       0       0
  3393 ;;Total ram usage:       15 bytes
  3394 ;; Hardware stack levels used:    1
  3395 ;; Hardware stack levels required when called:    7
  3396 ;; This function calls:
  3397 ;;		Nothing
  3398 ;; This function is called by:
  3399 ;;		_envoit_pwm
  3400 ;; This function uses a non-reentrant model
  3401 ;;
  3402                           
  3403                           	psect	text23
  3404  000EBE                     __ptext23:
  3405                           	opt stack 0
  3406  000EBE                     ___fttol:
  3407                           	opt stack 15
  3408                           
  3409                           ;incstack = 0
  3410  000EBE  C003  F005         	movff	___fttol@f1+2,??___fttol
  3411  000EC2  6A06               	clrf	(??___fttol+1)& (0+255),c
  3412  000EC4  6A07               	clrf	(??___fttol+2)& (0+255),c
  3413  000EC6  3402               	rlcf	___fttol@f1+1,w,c
  3414  000EC8  3605               	rlcf	??___fttol& (0+255),f,c
  3415  000ECA  E301               	bnc	u206_21
  3416  000ECC  8006               	bsf	(??___fttol+1)& (0+255),0,c
  3417  000ECE                     u206_21:
  3418  000ECE  5005               	movf	??___fttol,w,c
  3419  000ED0  6E0F               	movwf	___fttol@exp1,c
  3420  000ED2  500F               	movf	___fttol@exp1,w,c
  3421  000ED4  A4D8               	btfss	status,2,c
  3422  000ED6  D002               	goto	i1l2303
  3423  000ED8  D039               	goto	i1l2327
  3424  000EDA  D063               	goto	i1l896
  3425  000EDC                     i1l2303:
  3426  000EDC  0E17               	movlw	23
  3427  000EDE  6E05               	movwf	??___fttol& (0+255),c
  3428  000EE0  C001  F006         	movff	___fttol@f1,??___fttol+1
  3429  000EE4  C002  F007         	movff	___fttol@f1+1,??___fttol+2
  3430  000EE8  C003  F008         	movff	___fttol@f1+2,??___fttol+3
  3431  000EEC  2805               	incf	??___fttol,w,c
  3432  000EEE  6E09               	movwf	(??___fttol+4)& (0+255),c
  3433  000EF0  D004               	goto	i1u208_20
  3434  000EF2                     i1u208_25:
  3435  000EF2  90D8               	bcf	status,0,c
  3436  000EF4  3208               	rrcf	??___fttol+3,f,c
  3437  000EF6  3207               	rrcf	??___fttol+2,f,c
  3438  000EF8  3206               	rrcf	??___fttol+1,f,c
  3439  000EFA                     i1u208_20:
  3440  000EFA  2E09               	decfsz	(??___fttol+4)& (0+255),f,c
  3441  000EFC  D7FA               	goto	i1u208_25
  3442  000EFE  5006               	movf	??___fttol+1,w,c
  3443  000F00  6E0A               	movwf	___fttol@sign1,c
  3444  000F02  8E02               	bsf	___fttol@f1+1,7,c
  3445  000F04  0EFF               	movlw	255
  3446  000F06  1601               	andwf	___fttol@f1,f,c
  3447  000F08  0EFF               	movlw	255
  3448  000F0A  1602               	andwf	___fttol@f1+1,f,c
  3449  000F0C  0E00               	movlw	0
  3450  000F0E  1603               	andwf	___fttol@f1+2,f,c
  3451  000F10  5001               	movf	___fttol@f1,w,c
  3452  000F12  6E0B               	movwf	___fttol@lval,c
  3453  000F14  5002               	movf	___fttol@f1+1,w,c
  3454  000F16  6E0C               	movwf	___fttol@lval+1,c
  3455  000F18  5003               	movf	___fttol@f1+2,w,c
  3456  000F1A  6E0D               	movwf	___fttol@lval+2,c
  3457  000F1C  6A0E               	clrf	___fttol@lval+3,c
  3458  000F1E  0E8E               	movlw	142
  3459  000F20  5E0F               	subwf	___fttol@exp1,f,c
  3460  000F22  AE0F               	btfss	___fttol@exp1,7,c
  3461  000F24  D010               	goto	i1l2325
  3462  000F26  500F               	movf	___fttol@exp1,w,c
  3463  000F28  0A80               	xorlw	128
  3464  000F2A  0F8F               	addlw	143
  3465  000F2C  B0D8               	btfsc	status,0,c
  3466  000F2E  D003               	goto	i1l2321
  3467  000F30  D00D               	goto	i1l2327
  3468  000F32  D037               	goto	i1l896
  3469  000F34  D000               	goto	i1l2321
  3470  000F36                     i1l2321:
  3471  000F36  90D8               	bcf	status,0,c
  3472  000F38  320E               	rrcf	___fttol@lval+3,f,c
  3473  000F3A  320D               	rrcf	___fttol@lval+2,f,c
  3474  000F3C  320C               	rrcf	___fttol@lval+1,f,c
  3475  000F3E  320B               	rrcf	___fttol@lval,f,c
  3476  000F40  3E0F               	incfsz	___fttol@exp1,f,c
  3477  000F42  D7F9               	goto	i1l2321
  3478  000F44  D019               	goto	i1l2335
  3479  000F46                     i1l2325:
  3480  000F46  0E17               	movlw	23
  3481  000F48  640F               	cpfsgt	___fttol@exp1,c
  3482  000F4A  D011               	goto	i1l2333
  3483  000F4C                     i1l2327:
  3484  000F4C  0E00               	movlw	0
  3485  000F4E  6E01               	movwf	?___fttol,c
  3486  000F50  0E00               	movlw	0
  3487  000F52  6E02               	movwf	?___fttol+1,c
  3488  000F54  0E00               	movlw	0
  3489  000F56  6E03               	movwf	?___fttol+2,c
  3490  000F58  0E00               	movlw	0
  3491  000F5A  6E04               	movwf	?___fttol+3,c
  3492  000F5C  D022               	goto	i1l896
  3493  000F5E  D007               	goto	i1l2333
  3494  000F60                     i1l2331:
  3495  000F60  90D8               	bcf	status,0,c
  3496  000F62  360B               	rlcf	___fttol@lval,f,c
  3497  000F64  360C               	rlcf	___fttol@lval+1,f,c
  3498  000F66  360D               	rlcf	___fttol@lval+2,f,c
  3499  000F68  360E               	rlcf	___fttol@lval+3,f,c
  3500  000F6A  060F               	decf	___fttol@exp1,f,c
  3501  000F6C  D000               	goto	i1l2333
  3502  000F6E                     i1l2333:
  3503  000F6E  500F               	movf	___fttol@exp1,w,c
  3504  000F70  B4D8               	btfsc	status,2,c
  3505  000F72  D002               	goto	i1l2335
  3506  000F74  D7F5               	goto	i1l2331
  3507  000F76  D000               	goto	i1l2335
  3508  000F78                     i1l2335:
  3509  000F78  500A               	movf	___fttol@sign1,w,c
  3510  000F7A  B4D8               	btfsc	status,2,c
  3511  000F7C  D009               	goto	i1l2339
  3512  000F7E  1E0E               	comf	___fttol@lval+3,f,c
  3513  000F80  1E0D               	comf	___fttol@lval+2,f,c
  3514  000F82  1E0C               	comf	___fttol@lval+1,f,c
  3515  000F84  6C0B               	negf	___fttol@lval,c
  3516  000F86  0E00               	movlw	0
  3517  000F88  220C               	addwfc	___fttol@lval+1,f,c
  3518  000F8A  220D               	addwfc	___fttol@lval+2,f,c
  3519  000F8C  220E               	addwfc	___fttol@lval+3,f,c
  3520  000F8E  D000               	goto	i1l2339
  3521  000F90                     i1l2339:
  3522  000F90  C00B  F001         	movff	___fttol@lval,?___fttol
  3523  000F94  C00C  F002         	movff	___fttol@lval+1,?___fttol+1
  3524  000F98  C00D  F003         	movff	___fttol@lval+2,?___fttol+2
  3525  000F9C  C00E  F004         	movff	___fttol@lval+3,?___fttol+3
  3526  000FA0  D000               	goto	i1l896
  3527  000FA2                     i1l896:
  3528  000FA2  0012               	return		;funcret
  3529  000FA4                     __end_of___fttol:
  3530                           	opt stack 0
  3531                           pclatu	equ	0xFFB
  3532                           pclath	equ	0xFFA
  3533                           tblptru	equ	0xFF8
  3534                           tblptrh	equ	0xFF7
  3535                           tblptrl	equ	0xFF6
  3536                           tablat	equ	0xFF5
  3537                           prodh	equ	0xFF4
  3538                           prodl	equ	0xFF3
  3539                           intcon	equ	0xFF2
  3540                           intcon2	equ	0xFF1
  3541                           intcon3	equ	0xFF0
  3542                           postinc0	equ	0xFEE
  3543                           fsr0h	equ	0xFEA
  3544                           fsr0l	equ	0xFE9
  3545                           wreg	equ	0xFE8
  3546                           fsr1h	equ	0xFE2
  3547                           fsr1l	equ	0xFE1
  3548                           bsr	equ	0xFE0
  3549                           indf2	equ	0xFDF
  3550                           fsr2h	equ	0xFDA
  3551                           fsr2l	equ	0xFD9
  3552                           status	equ	0xFD8
  3553                           
  3554 ;; *************** function ___ftneg *****************
  3555 ;; Defined at:
  3556 ;;		line 15 in file "C:\Program Files (x86)\Microchip\xc8\v1.34\sources\common\ftneg.c"
  3557 ;; Parameters:    Size  Location     Type
  3558 ;;  f1              3    0[COMRAM] float 
  3559 ;; Auto vars:     Size  Location     Type
  3560 ;;		None
  3561 ;; Return value:  Size  Location     Type
  3562 ;;                  3    0[COMRAM] float 
  3563 ;; Registers used:
  3564 ;;		wreg, status,2, status,0
  3565 ;; Tracked objects:
  3566 ;;		On entry : 0/0
  3567 ;;		On exit  : 0/0
  3568 ;;		Unchanged: 0/0
  3569 ;; Data sizes:     COMRAM   BANK0   BANK1   BANK2
  3570 ;;      Params:         3       0       0       0
  3571 ;;      Locals:         0       0       0       0
  3572 ;;      Temps:          0       0       0       0
  3573 ;;      Totals:         3       0       0       0
  3574 ;;Total ram usage:        3 bytes
  3575 ;; Hardware stack levels used:    1
  3576 ;; Hardware stack levels required when called:    7
  3577 ;; This function calls:
  3578 ;;		Nothing
  3579 ;; This function is called by:
  3580 ;;		_envoit_pwm
  3581 ;;		_fonction_PID
  3582 ;; This function uses a non-reentrant model
  3583 ;;
  3584                           
  3585                           	psect	text24
  3586  001AC8                     __ptext24:
  3587                           	opt stack 0
  3588  001AC8                     ___ftneg:
  3589                           	opt stack 15
  3590                           
  3591                           ;incstack = 0
  3592  001AC8  5001               	movf	___ftneg@f1,w,c
  3593  001ACA  1002               	iorwf	___ftneg@f1+1,w,c
  3594  001ACC  1003               	iorwf	___ftneg@f1+2,w,c
  3595  001ACE  B4D8               	btfsc	status,2,c
  3596  001AD0  D006               	goto	i1l885
  3597  001AD2  0E00               	movlw	0
  3598  001AD4  1A01               	xorwf	___ftneg@f1,f,c
  3599  001AD6  0E00               	movlw	0
  3600  001AD8  1A02               	xorwf	___ftneg@f1+1,f,c
  3601  001ADA  0E80               	movlw	128
  3602  001ADC  1A03               	xorwf	___ftneg@f1+2,f,c
  3603  001ADE                     i1l885:
  3604  001ADE  C001  F001         	movff	___ftneg@f1,?___ftneg
  3605  001AE2  C002  F002         	movff	___ftneg@f1+1,?___ftneg+1
  3606  001AE6  C003  F003         	movff	___ftneg@f1+2,?___ftneg+2
  3607  001AEA  0012               	return		;funcret
  3608  001AEC                     __end_of___ftneg:
  3609                           	opt stack 0
  3610                           pclatu	equ	0xFFB
  3611                           pclath	equ	0xFFA
  3612                           tblptru	equ	0xFF8
  3613                           tblptrh	equ	0xFF7
  3614                           tblptrl	equ	0xFF6
  3615                           tablat	equ	0xFF5
  3616                           prodh	equ	0xFF4
  3617                           prodl	equ	0xFF3
  3618                           intcon	equ	0xFF2
  3619                           intcon2	equ	0xFF1
  3620                           intcon3	equ	0xFF0
  3621                           postinc0	equ	0xFEE
  3622                           fsr0h	equ	0xFEA
  3623                           fsr0l	equ	0xFE9
  3624                           wreg	equ	0xFE8
  3625                           fsr1h	equ	0xFE2
  3626                           fsr1l	equ	0xFE1
  3627                           bsr	equ	0xFE0
  3628                           indf2	equ	0xFDF
  3629                           fsr2h	equ	0xFDA
  3630                           fsr2l	equ	0xFD9
  3631                           status	equ	0xFD8
  3632                           
  3633 ;; *************** function ___ftmul *****************
  3634 ;; Defined at:
  3635 ;;		line 62 in file "C:\Program Files (x86)\Microchip\xc8\v1.34\sources\common\ftmul.c"
  3636 ;; Parameters:    Size  Location     Type
  3637 ;;  f1              3    8[COMRAM] float 
  3638 ;;  f2              3   11[COMRAM] float 
  3639 ;; Auto vars:     Size  Location     Type
  3640 ;;  f3_as_produc    3   18[COMRAM] unsigned um
  3641 ;;  sign            1   22[COMRAM] unsigned char 
  3642 ;;  cntr            1   21[COMRAM] unsigned char 
  3643 ;;  exp             1   17[COMRAM] unsigned char 
  3644 ;; Return value:  Size  Location     Type
  3645 ;;                  3    8[COMRAM] float 
  3646 ;; Registers used:
  3647 ;;		wreg, status,2, status,0, cstack
  3648 ;; Tracked objects:
  3649 ;;		On entry : 0/0
  3650 ;;		On exit  : 0/0
  3651 ;;		Unchanged: 0/0
  3652 ;; Data sizes:     COMRAM   BANK0   BANK1   BANK2
  3653 ;;      Params:         6       0       0       0
  3654 ;;      Locals:         6       0       0       0
  3655 ;;      Temps:          3       0       0       0
  3656 ;;      Totals:        15       0       0       0
  3657 ;;Total ram usage:       15 bytes
  3658 ;; Hardware stack levels used:    1
  3659 ;; Hardware stack levels required when called:    8
  3660 ;; This function calls:
  3661 ;;		___ftpack
  3662 ;; This function is called by:
  3663 ;;		_envoit_pwm
  3664 ;;		_fonction_PID
  3665 ;;		_conversion_angle
  3666 ;;		_mesure_vitesse
  3667 ;; This function uses a non-reentrant model
  3668 ;;
  3669                           
  3670                           	psect	text25
  3671  000DC6                     __ptext25:
  3672                           	opt stack 0
  3673  000DC6                     ___ftmul:
  3674                           	opt stack 14
  3675                           
  3676                           ;incstack = 0
  3677  000DC6  C00B  F00F         	movff	___ftmul@f1+2,??___ftmul
  3678  000DCA  6A10               	clrf	(??___ftmul+1)& (0+255),c
  3679  000DCC  6A11               	clrf	(??___ftmul+2)& (0+255),c
  3680  000DCE  340A               	rlcf	___ftmul@f1+1,w,c
  3681  000DD0  360F               	rlcf	??___ftmul& (0+255),f,c
  3682  000DD2  E301               	bnc	u199_21
  3683  000DD4  8010               	bsf	(??___ftmul+1)& (0+255),0,c
  3684  000DD6                     u199_21:
  3685  000DD6  500F               	movf	??___ftmul,w,c
  3686  000DD8  6E12               	movwf	___ftmul@exp,c
  3687  000DDA  5012               	movf	___ftmul@exp,w,c
  3688  000DDC  A4D8               	btfss	status,2,c
  3689  000DDE  D002               	goto	i1l2251
  3690  000DE0  D00E               	goto	i1l2253
  3691  000DE2  D06C               	goto	i1l875
  3692  000DE4                     i1l2251:
  3693  000DE4  C00E  F00F         	movff	___ftmul@f2+2,??___ftmul
  3694  000DE8  6A10               	clrf	(??___ftmul+1)& (0+255),c
  3695  000DEA  6A11               	clrf	(??___ftmul+2)& (0+255),c
  3696  000DEC  340D               	rlcf	___ftmul@f2+1,w,c
  3697  000DEE  360F               	rlcf	??___ftmul& (0+255),f,c
  3698  000DF0  E301               	bnc	u201_21
  3699  000DF2  8010               	bsf	(??___ftmul+1)& (0+255),0,c
  3700  000DF4                     u201_21:
  3701  000DF4  500F               	movf	??___ftmul,w,c
  3702  000DF6  6E17               	movwf	___ftmul@sign,c
  3703  000DF8  5017               	movf	___ftmul@sign,w,c
  3704  000DFA  A4D8               	btfss	status,2,c
  3705  000DFC  D007               	goto	i1l2257
  3706  000DFE                     i1l2253:
  3707  000DFE  0E00               	movlw	0
  3708  000E00  6E09               	movwf	?___ftmul,c
  3709  000E02  0E00               	movlw	0
  3710  000E04  6E0A               	movwf	?___ftmul+1,c
  3711  000E06  0E00               	movlw	0
  3712  000E08  6E0B               	movwf	?___ftmul+2,c
  3713  000E0A  D058               	goto	i1l875
  3714  000E0C                     i1l2257:
  3715  000E0C  5017               	movf	___ftmul@sign,w,c
  3716  000E0E  0F7B               	addlw	123
  3717  000E10  2612               	addwf	___ftmul@exp,f,c
  3718  000E12  C00B  F017         	movff	___ftmul@f1+2,___ftmul@sign
  3719  000E16  500E               	movf	___ftmul@f2+2,w,c
  3720  000E18  1A17               	xorwf	___ftmul@sign,f,c
  3721  000E1A  0E80               	movlw	128
  3722  000E1C  1617               	andwf	___ftmul@sign,f,c
  3723  000E1E  8E0A               	bsf	___ftmul@f1+1,7,c
  3724  000E20  8E0D               	bsf	___ftmul@f2+1,7,c
  3725  000E22  0EFF               	movlw	255
  3726  000E24  160C               	andwf	___ftmul@f2,f,c
  3727  000E26  0EFF               	movlw	255
  3728  000E28  160D               	andwf	___ftmul@f2+1,f,c
  3729  000E2A  0E00               	movlw	0
  3730  000E2C  160E               	andwf	___ftmul@f2+2,f,c
  3731  000E2E  0E00               	movlw	0
  3732  000E30  6E13               	movwf	___ftmul@f3_as_product,c
  3733  000E32  0E00               	movlw	0
  3734  000E34  6E14               	movwf	___ftmul@f3_as_product+1,c
  3735  000E36  0E00               	movlw	0
  3736  000E38  6E15               	movwf	___ftmul@f3_as_product+2,c
  3737  000E3A  0E07               	movlw	7
  3738  000E3C  6E16               	movwf	___ftmul@cntr,c
  3739  000E3E  D000               	goto	i1l2271
  3740  000E40                     i1l2271:
  3741  000E40  A009               	btfss	___ftmul@f1,0,c
  3742  000E42  D007               	goto	i1l2275
  3743  000E44  500C               	movf	___ftmul@f2,w,c
  3744  000E46  2613               	addwf	___ftmul@f3_as_product,f,c
  3745  000E48  500D               	movf	___ftmul@f2+1,w,c
  3746  000E4A  2214               	addwfc	___ftmul@f3_as_product+1,f,c
  3747  000E4C  500E               	movf	___ftmul@f2+2,w,c
  3748  000E4E  2215               	addwfc	___ftmul@f3_as_product+2,f,c
  3749  000E50  D000               	goto	i1l2275
  3750  000E52                     i1l2275:
  3751  000E52  90D8               	bcf	status,0,c
  3752  000E54  320B               	rrcf	___ftmul@f1+2,f,c
  3753  000E56  320A               	rrcf	___ftmul@f1+1,f,c
  3754  000E58  3209               	rrcf	___ftmul@f1,f,c
  3755  000E5A  90D8               	bcf	status,0,c
  3756  000E5C  360C               	rlcf	___ftmul@f2,f,c
  3757  000E5E  360D               	rlcf	___ftmul@f2+1,f,c
  3758  000E60  360E               	rlcf	___ftmul@f2+2,f,c
  3759  000E62  2E16               	decfsz	___ftmul@cntr,f,c
  3760  000E64  D7ED               	goto	i1l2271
  3761  000E66  D000               	goto	i1l2279
  3762  000E68                     i1l2279:
  3763  000E68  0E09               	movlw	9
  3764  000E6A  6E16               	movwf	___ftmul@cntr,c
  3765  000E6C  D000               	goto	i1l2281
  3766  000E6E                     i1l2281:
  3767  000E6E  A009               	btfss	___ftmul@f1,0,c
  3768  000E70  D007               	goto	i1l2285
  3769  000E72  500C               	movf	___ftmul@f2,w,c
  3770  000E74  2613               	addwf	___ftmul@f3_as_product,f,c
  3771  000E76  500D               	movf	___ftmul@f2+1,w,c
  3772  000E78  2214               	addwfc	___ftmul@f3_as_product+1,f,c
  3773  000E7A  500E               	movf	___ftmul@f2+2,w,c
  3774  000E7C  2215               	addwfc	___ftmul@f3_as_product+2,f,c
  3775  000E7E  D000               	goto	i1l2285
  3776  000E80                     i1l2285:
  3777  000E80  90D8               	bcf	status,0,c
  3778  000E82  320B               	rrcf	___ftmul@f1+2,f,c
  3779  000E84  320A               	rrcf	___ftmul@f1+1,f,c
  3780  000E86  3209               	rrcf	___ftmul@f1,f,c
  3781  000E88  90D8               	bcf	status,0,c
  3782  000E8A  3215               	rrcf	___ftmul@f3_as_product+2,f,c
  3783  000E8C  3214               	rrcf	___ftmul@f3_as_product+1,f,c
  3784  000E8E  3213               	rrcf	___ftmul@f3_as_product,f,c
  3785  000E90  2E16               	decfsz	___ftmul@cntr,f,c
  3786  000E92  D7ED               	goto	i1l2281
  3787  000E94  D000               	goto	i1l2289
  3788  000E96                     i1l2289:
  3789  000E96  C013  F001         	movff	___ftmul@f3_as_product,___ftpack@arg
  3790  000E9A  C014  F002         	movff	___ftmul@f3_as_product+1,___ftpack@arg+1
  3791  000E9E  C015  F003         	movff	___ftmul@f3_as_product+2,___ftpack@arg+2
  3792  000EA2  C012  F004         	movff	___ftmul@exp,___ftpack@exp
  3793  000EA6  C017  F005         	movff	___ftmul@sign,___ftpack@sign
  3794  000EAA  ECAA  F008         	call	___ftpack	;wreg free
  3795  000EAE  C001  F009         	movff	?___ftpack,?___ftmul
  3796  000EB2  C002  F00A         	movff	?___ftpack+1,?___ftmul+1
  3797  000EB6  C003  F00B         	movff	?___ftpack+2,?___ftmul+2
  3798  000EBA  D000               	goto	i1l875
  3799  000EBC                     i1l875:
  3800  000EBC  0012               	return		;funcret
  3801  000EBE                     __end_of___ftmul:
  3802                           	opt stack 0
  3803                           pclatu	equ	0xFFB
  3804                           pclath	equ	0xFFA
  3805                           tblptru	equ	0xFF8
  3806                           tblptrh	equ	0xFF7
  3807                           tblptrl	equ	0xFF6
  3808                           tablat	equ	0xFF5
  3809                           prodh	equ	0xFF4
  3810                           prodl	equ	0xFF3
  3811                           intcon	equ	0xFF2
  3812                           intcon2	equ	0xFF1
  3813                           intcon3	equ	0xFF0
  3814                           postinc0	equ	0xFEE
  3815                           fsr0h	equ	0xFEA
  3816                           fsr0l	equ	0xFE9
  3817                           wreg	equ	0xFE8
  3818                           fsr1h	equ	0xFE2
  3819                           fsr1l	equ	0xFE1
  3820                           bsr	equ	0xFE0
  3821                           indf2	equ	0xFDF
  3822                           fsr2h	equ	0xFDA
  3823                           fsr2l	equ	0xFD9
  3824                           status	equ	0xFD8
  3825                           
  3826 ;; *************** function ___ftpack *****************
  3827 ;; Defined at:
  3828 ;;		line 62 in file "C:\Program Files (x86)\Microchip\xc8\v1.34\sources\common\float.c"
  3829 ;; Parameters:    Size  Location     Type
  3830 ;;  arg             3    0[COMRAM] unsigned um
  3831 ;;  exp             1    3[COMRAM] unsigned char 
  3832 ;;  sign            1    4[COMRAM] unsigned char 
  3833 ;; Auto vars:     Size  Location     Type
  3834 ;;		None
  3835 ;; Return value:  Size  Location     Type
  3836 ;;                  3    0[COMRAM] float 
  3837 ;; Registers used:
  3838 ;;		wreg, status,2, status,0
  3839 ;; Tracked objects:
  3840 ;;		On entry : 0/0
  3841 ;;		On exit  : 0/0
  3842 ;;		Unchanged: 0/0
  3843 ;; Data sizes:     COMRAM   BANK0   BANK1   BANK2
  3844 ;;      Params:         5       0       0       0
  3845 ;;      Locals:         0       0       0       0
  3846 ;;      Temps:          3       0       0       0
  3847 ;;      Totals:         8       0       0       0
  3848 ;;Total ram usage:        8 bytes
  3849 ;; Hardware stack levels used:    1
  3850 ;; Hardware stack levels required when called:    7
  3851 ;; This function calls:
  3852 ;;		Nothing
  3853 ;; This function is called by:
  3854 ;;		___ftadd
  3855 ;;		___ftmul
  3856 ;;		___lwtoft
  3857 ;;		___ftdiv
  3858 ;;		___altoft
  3859 ;; This function uses a non-reentrant model
  3860 ;;
  3861                           
  3862                           	psect	text26
  3863  001154                     __ptext26:
  3864                           	opt stack 0
  3865  001154                     ___ftpack:
  3866                           	opt stack 14
  3867                           
  3868                           ;incstack = 0
  3869  001154  5004               	movf	___ftpack@exp,w,c
  3870  001156  B4D8               	btfsc	status,2,c
  3871  001158  D005               	goto	i1l2063
  3872  00115A  5001               	movf	___ftpack@arg,w,c
  3873  00115C  1002               	iorwf	___ftpack@arg+1,w,c
  3874  00115E  1003               	iorwf	___ftpack@arg+2,w,c
  3875  001160  A4D8               	btfss	status,2,c
  3876  001162  D00E               	goto	i1l2069
  3877  001164                     i1l2063:
  3878  001164  0E00               	movlw	0
  3879  001166  6E01               	movwf	?___ftpack,c
  3880  001168  0E00               	movlw	0
  3881  00116A  6E02               	movwf	?___ftpack+1,c
  3882  00116C  0E00               	movlw	0
  3883  00116E  6E03               	movwf	?___ftpack+2,c
  3884  001170  D053               	goto	i1l788
  3885  001172  D006               	goto	i1l2069
  3886  001174                     i1l2067:
  3887  001174  2A04               	incf	___ftpack@exp,f,c
  3888  001176  90D8               	bcf	status,0,c
  3889  001178  3203               	rrcf	___ftpack@arg+2,f,c
  3890  00117A  3202               	rrcf	___ftpack@arg+1,f,c
  3891  00117C  3201               	rrcf	___ftpack@arg,f,c
  3892  00117E  D000               	goto	i1l2069
  3893  001180                     i1l2069:
  3894  001180  0E00               	movlw	0
  3895  001182  1401               	andwf	___ftpack@arg,w,c
  3896  001184  6E06               	movwf	??___ftpack& (0+255),c
  3897  001186  0E00               	movlw	0
  3898  001188  1402               	andwf	___ftpack@arg+1,w,c
  3899  00118A  6E07               	movwf	(??___ftpack+1)& (0+255),c
  3900  00118C  0EFE               	movlw	254
  3901  00118E  1403               	andwf	___ftpack@arg+2,w,c
  3902  001190  6E08               	movwf	(??___ftpack+2)& (0+255),c
  3903  001192  5006               	movf	??___ftpack,w,c
  3904  001194  1007               	iorwf	??___ftpack+1,w,c
  3905  001196  1008               	iorwf	??___ftpack+2,w,c
  3906  001198  B4D8               	btfsc	status,2,c
  3907  00119A  D00E               	goto	i1l2075
  3908  00119C  D7EB               	goto	i1l2067
  3909  00119E  D00C               	goto	i1l2075
  3910  0011A0                     i1l2071:
  3911  0011A0  2A04               	incf	___ftpack@exp,f,c
  3912  0011A2  0E01               	movlw	1
  3913  0011A4  2601               	addwf	___ftpack@arg,f,c
  3914  0011A6  0E00               	movlw	0
  3915  0011A8  2202               	addwfc	___ftpack@arg+1,f,c
  3916  0011AA  0E00               	movlw	0
  3917  0011AC  2203               	addwfc	___ftpack@arg+2,f,c
  3918  0011AE  90D8               	bcf	status,0,c
  3919  0011B0  3203               	rrcf	___ftpack@arg+2,f,c
  3920  0011B2  3202               	rrcf	___ftpack@arg+1,f,c
  3921  0011B4  3201               	rrcf	___ftpack@arg,f,c
  3922  0011B6  D000               	goto	i1l2075
  3923  0011B8                     i1l2075:
  3924  0011B8  0E00               	movlw	0
  3925  0011BA  1401               	andwf	___ftpack@arg,w,c
  3926  0011BC  6E06               	movwf	??___ftpack& (0+255),c
  3927  0011BE  0E00               	movlw	0
  3928  0011C0  1402               	andwf	___ftpack@arg+1,w,c
  3929  0011C2  6E07               	movwf	(??___ftpack+1)& (0+255),c
  3930  0011C4  0EFF               	movlw	255
  3931  0011C6  1403               	andwf	___ftpack@arg+2,w,c
  3932  0011C8  6E08               	movwf	(??___ftpack+2)& (0+255),c
  3933  0011CA  5006               	movf	??___ftpack,w,c
  3934  0011CC  1007               	iorwf	??___ftpack+1,w,c
  3935  0011CE  1008               	iorwf	??___ftpack+2,w,c
  3936  0011D0  B4D8               	btfsc	status,2,c
  3937  0011D2  D008               	goto	i1l2079
  3938  0011D4  D7E5               	goto	i1l2071
  3939  0011D6  D006               	goto	i1l2079
  3940  0011D8                     i1l2077:
  3941  0011D8  0604               	decf	___ftpack@exp,f,c
  3942  0011DA  90D8               	bcf	status,0,c
  3943  0011DC  3601               	rlcf	___ftpack@arg,f,c
  3944  0011DE  3602               	rlcf	___ftpack@arg+1,f,c
  3945  0011E0  3603               	rlcf	___ftpack@arg+2,f,c
  3946  0011E2  D000               	goto	i1l2079
  3947  0011E4                     i1l2079:
  3948  0011E4  BE02               	btfsc	___ftpack@arg+1,7,c
  3949  0011E6  D004               	goto	i1l799
  3950  0011E8  0E02               	movlw	2
  3951  0011EA  6004               	cpfslt	___ftpack@exp,c
  3952  0011EC  D7F5               	goto	i1l2077
  3953  0011EE  D000               	goto	i1l799
  3954  0011F0                     i1l799:
  3955  0011F0  B004               	btfsc	___ftpack@exp,0,c
  3956  0011F2  D002               	goto	i1l2085
  3957  0011F4  9E02               	bcf	___ftpack@arg+1,7,c
  3958  0011F6  D000               	goto	i1l2085
  3959  0011F8                     i1l2085:
  3960  0011F8  90D8               	bcf	status,0,c
  3961  0011FA  3204               	rrcf	___ftpack@exp,f,c
  3962  0011FC  5004               	movf	___ftpack@exp,w,c
  3963  0011FE  1203               	iorwf	___ftpack@arg+2,f,c
  3964  001200  5005               	movf	___ftpack@sign,w,c
  3965  001202  B4D8               	btfsc	status,2,c
  3966  001204  D002               	goto	i1l2091
  3967  001206  8E03               	bsf	___ftpack@arg+2,7,c
  3968  001208  D000               	goto	i1l2091
  3969  00120A                     i1l2091:
  3970  00120A  C001  F001         	movff	___ftpack@arg,?___ftpack
  3971  00120E  C002  F002         	movff	___ftpack@arg+1,?___ftpack+1
  3972  001212  C003  F003         	movff	___ftpack@arg+2,?___ftpack+2
  3973  001216  D000               	goto	i1l788
  3974  001218                     i1l788:
  3975  001218  0012               	return		;funcret
  3976  00121A                     __end_of___ftpack:
  3977                           	opt stack 0
  3978                           pclatu	equ	0xFFB
  3979                           pclath	equ	0xFFA
  3980                           tblptru	equ	0xFF8
  3981                           tblptrh	equ	0xFF7
  3982                           tblptrl	equ	0xFF6
  3983                           tablat	equ	0xFF5
  3984                           prodh	equ	0xFF4
  3985                           prodl	equ	0xFF3
  3986                           intcon	equ	0xFF2
  3987                           intcon2	equ	0xFF1
  3988                           intcon3	equ	0xFF0
  3989                           postinc0	equ	0xFEE
  3990                           fsr0h	equ	0xFEA
  3991                           fsr0l	equ	0xFE9
  3992                           wreg	equ	0xFE8
  3993                           fsr1h	equ	0xFE2
  3994                           fsr1l	equ	0xFE1
  3995                           bsr	equ	0xFE0
  3996                           indf2	equ	0xFDF
  3997                           fsr2h	equ	0xFDA
  3998                           fsr2l	equ	0xFD9
  3999                           status	equ	0xFD8
  4000                           
  4001 ;; *************** function _ecretage_consignes *****************
  4002 ;; Defined at:
  4003 ;;		line 44 in file "asserv.c"
  4004 ;; Parameters:    Size  Location     Type
  4005 ;;  commande        2    9[COMRAM] PTR 
  4006 ;;		 -> asserv@commande(3), 
  4007 ;; Auto vars:     Size  Location     Type
  4008 ;;		None
  4009 ;; Return value:  Size  Location     Type
  4010 ;;		None               void
  4011 ;; Registers used:
  4012 ;;		wreg, fsr2l, fsr2h, status,2, status,0, cstack
  4013 ;; Tracked objects:
  4014 ;;		On entry : 0/0
  4015 ;;		On exit  : 0/0
  4016 ;;		Unchanged: 0/0
  4017 ;; Data sizes:     COMRAM   BANK0   BANK1   BANK2
  4018 ;;      Params:         2       0       0       0
  4019 ;;      Locals:         0       0       0       0
  4020 ;;      Temps:          0       0       0       0
  4021 ;;      Totals:         2       0       0       0
  4022 ;;Total ram usage:        2 bytes
  4023 ;; Hardware stack levels used:    1
  4024 ;; Hardware stack levels required when called:    8
  4025 ;; This function calls:
  4026 ;;		___ftge
  4027 ;; This function is called by:
  4028 ;;		_asserv
  4029 ;; This function uses a non-reentrant model
  4030 ;;
  4031                           
  4032                           	psect	text27
  4033  001634                     __ptext27:
  4034                           	opt stack 0
  4035  001634                     _ecretage_consignes:
  4036                           	opt stack 15
  4037                           
  4038                           ;asserv.c: 46: if (*commande > (double) (12. * 100. / 12.))
  4039                           
  4040                           ;incstack = 0
  4041  001634  0E00               	movlw	0
  4042  001636  6E01               	movwf	___ftge@ff1,c
  4043  001638  0EC8               	movlw	200
  4044  00163A  6E02               	movwf	___ftge@ff1+1,c
  4045  00163C  0E42               	movlw	66
  4046  00163E  6E03               	movwf	___ftge@ff1+2,c
  4047  001640  C00A  FFD9         	movff	ecretage_consignes@commande,fsr2l
  4048  001644  C00B  FFDA         	movff	ecretage_consignes@commande+1,fsr2h
  4049  001648  CFDE F004          	movff	postinc2,___ftge@ff2
  4050  00164C  CFDE F005          	movff	postinc2,___ftge@ff2+1
  4051  001650  CFDD F006          	movff	postdec2,___ftge@ff2+2
  4052  001654  ECBC  F009         	call	___ftge	;wreg free
  4053  001658  B0D8               	btfsc	status,0,c
  4054  00165A  D00A               	goto	i1l2537
  4055                           
  4056                           ;asserv.c: 47: *commande = (double) (12. * 100. / 12.);
  4057  00165C  C00A  FFD9         	movff	ecretage_consignes@commande,fsr2l
  4058  001660  C00B  FFDA         	movff	ecretage_consignes@commande+1,fsr2h
  4059  001664  0E00               	movlw	0
  4060  001666  6EDE               	movwf	postinc2,c
  4061  001668  0EC8               	movlw	200
  4062  00166A  6EDE               	movwf	postinc2,c
  4063  00166C  0E42               	movlw	66
  4064  00166E  D01D               	goto	L2
  4065  001670                     i1l2537:
  4066                           
  4067                           ;asserv.c: 48: else if (*commande < - (double) (12. * 100. / 12.))
  4068  001670  C00A  FFD9         	movff	ecretage_consignes@commande,fsr2l
  4069  001674  C00B  FFDA         	movff	ecretage_consignes@commande+1,fsr2h
  4070  001678  CFDE F001          	movff	postinc2,___ftge@ff1
  4071  00167C  CFDE F002          	movff	postinc2,___ftge@ff1+1
  4072  001680  CFDD F003          	movff	postdec2,___ftge@ff1+2
  4073  001684  0E00               	movlw	0
  4074  001686  6E04               	movwf	___ftge@ff2,c
  4075  001688  0EC8               	movlw	200
  4076  00168A  6E05               	movwf	___ftge@ff2+1,c
  4077  00168C  0EC2               	movlw	194
  4078  00168E  6E06               	movwf	___ftge@ff2+2,c
  4079  001690  ECBC  F009         	call	___ftge	;wreg free
  4080  001694  B0D8               	btfsc	status,0,c
  4081  001696  D00B               	goto	i1l455
  4082                           
  4083                           ;asserv.c: 49: *commande = - (double) (12. * 100. / 12.);
  4084  001698  C00A  FFD9         	movff	ecretage_consignes@commande,fsr2l
  4085  00169C  C00B  FFDA         	movff	ecretage_consignes@commande+1,fsr2h
  4086  0016A0  0E00               	movlw	0
  4087  0016A2  6EDE               	movwf	postinc2,c
  4088  0016A4  0EC8               	movlw	200
  4089  0016A6  6EDE               	movwf	postinc2,c
  4090  0016A8  0EC2               	movlw	194
  4091  0016AA                     L2:
  4092  0016AA  6EDE               	movwf	postinc2,c
  4093  0016AC  D000               	goto	i1l455
  4094  0016AE                     i1l455:
  4095  0016AE  0012               	return		;funcret
  4096  0016B0                     __end_of_ecretage_consignes:
  4097                           	opt stack 0
  4098                           pclatu	equ	0xFFB
  4099                           pclath	equ	0xFFA
  4100                           tblptru	equ	0xFF8
  4101                           tblptrh	equ	0xFF7
  4102                           tblptrl	equ	0xFF6
  4103                           tablat	equ	0xFF5
  4104                           prodh	equ	0xFF4
  4105                           prodl	equ	0xFF3
  4106                           intcon	equ	0xFF2
  4107                           intcon2	equ	0xFF1
  4108                           intcon3	equ	0xFF0
  4109                           postinc0	equ	0xFEE
  4110                           fsr0h	equ	0xFEA
  4111                           fsr0l	equ	0xFE9
  4112                           wreg	equ	0xFE8
  4113                           fsr1h	equ	0xFE2
  4114                           fsr1l	equ	0xFE1
  4115                           bsr	equ	0xFE0
  4116                           indf2	equ	0xFDF
  4117                           postinc2	equ	0xFDE
  4118                           postdec2	equ	0xFDD
  4119                           fsr2h	equ	0xFDA
  4120                           fsr2l	equ	0xFD9
  4121                           status	equ	0xFD8
  4122                           
  4123 ;; *************** function ___ftge *****************
  4124 ;; Defined at:
  4125 ;;		line 4 in file "C:\Program Files (x86)\Microchip\xc8\v1.34\sources\common\ftge.c"
  4126 ;; Parameters:    Size  Location     Type
  4127 ;;  ff1             3    0[COMRAM] float 
  4128 ;;  ff2             3    3[COMRAM] float 
  4129 ;; Auto vars:     Size  Location     Type
  4130 ;;		None
  4131 ;; Return value:  Size  Location     Type
  4132 ;;		None               void
  4133 ;; Registers used:
  4134 ;;		wreg, status,2, status,0
  4135 ;; Tracked objects:
  4136 ;;		On entry : 0/0
  4137 ;;		On exit  : 0/0
  4138 ;;		Unchanged: 0/0
  4139 ;; Data sizes:     COMRAM   BANK0   BANK1   BANK2
  4140 ;;      Params:         6       0       0       0
  4141 ;;      Locals:         0       0       0       0
  4142 ;;      Temps:          3       0       0       0
  4143 ;;      Totals:         9       0       0       0
  4144 ;;Total ram usage:        9 bytes
  4145 ;; Hardware stack levels used:    1
  4146 ;; Hardware stack levels required when called:    7
  4147 ;; This function calls:
  4148 ;;		Nothing
  4149 ;; This function is called by:
  4150 ;;		_envoit_pwm
  4151 ;;		_ecretage_consignes
  4152 ;;		_saturation_erreur_integralle_vitesse
  4153 ;; This function uses a non-reentrant model
  4154 ;;
  4155                           
  4156                           	psect	text28
  4157  001378                     __ptext28:
  4158                           	opt stack 0
  4159  001378                     ___ftge:
  4160                           	opt stack 14
  4161                           
  4162                           ;incstack = 0
  4163  001378  AE03               	btfss	___ftge@ff1+2,7,c
  4164  00137A  D017               	goto	i1l2099
  4165  00137C  C001  F007         	movff	___ftge@ff1,??___ftge
  4166  001380  C002  F008         	movff	___ftge@ff1+1,??___ftge+1
  4167  001384  C003  F009         	movff	___ftge@ff1+2,??___ftge+2
  4168  001388  1E07               	comf	??___ftge,f,c
  4169  00138A  1E08               	comf	??___ftge+1,f,c
  4170  00138C  1E09               	comf	??___ftge+2,f,c
  4171  00138E  2A07               	incf	??___ftge,f,c
  4172  001390  0E00               	movlw	0
  4173  001392  2208               	addwfc	??___ftge+1,f,c
  4174  001394  2209               	addwfc	??___ftge+2,f,c
  4175  001396  0E00               	movlw	0
  4176  001398  2407               	addwf	??___ftge,w,c
  4177  00139A  6E01               	movwf	___ftge@ff1,c
  4178  00139C  0E00               	movlw	0
  4179  00139E  2008               	addwfc	??___ftge+1,w,c
  4180  0013A0  6E02               	movwf	___ftge@ff1+1,c
  4181  0013A2  0E80               	movlw	128
  4182  0013A4  2009               	addwfc	??___ftge+2,w,c
  4183  0013A6  6E03               	movwf	___ftge@ff1+2,c
  4184  0013A8  D000               	goto	i1l2099
  4185  0013AA                     i1l2099:
  4186  0013AA  AE06               	btfss	___ftge@ff2+2,7,c
  4187  0013AC  D017               	goto	i1l2103
  4188  0013AE  C004  F007         	movff	___ftge@ff2,??___ftge
  4189  0013B2  C005  F008         	movff	___ftge@ff2+1,??___ftge+1
  4190  0013B6  C006  F009         	movff	___ftge@ff2+2,??___ftge+2
  4191  0013BA  1E07               	comf	??___ftge,f,c
  4192  0013BC  1E08               	comf	??___ftge+1,f,c
  4193  0013BE  1E09               	comf	??___ftge+2,f,c
  4194  0013C0  2A07               	incf	??___ftge,f,c
  4195  0013C2  0E00               	movlw	0
  4196  0013C4  2208               	addwfc	??___ftge+1,f,c
  4197  0013C6  2209               	addwfc	??___ftge+2,f,c
  4198  0013C8  0E00               	movlw	0
  4199  0013CA  2407               	addwf	??___ftge,w,c
  4200  0013CC  6E04               	movwf	___ftge@ff2,c
  4201  0013CE  0E00               	movlw	0
  4202  0013D0  2008               	addwfc	??___ftge+1,w,c
  4203  0013D2  6E05               	movwf	___ftge@ff2+1,c
  4204  0013D4  0E80               	movlw	128
  4205  0013D6  2009               	addwfc	??___ftge+2,w,c
  4206  0013D8  6E06               	movwf	___ftge@ff2+2,c
  4207  0013DA  D000               	goto	i1l2103
  4208  0013DC                     i1l2103:
  4209  0013DC  0E00               	movlw	0
  4210  0013DE  1A01               	xorwf	___ftge@ff1,f,c
  4211  0013E0  0E00               	movlw	0
  4212  0013E2  1A02               	xorwf	___ftge@ff1+1,f,c
  4213  0013E4  0E80               	movlw	128
  4214  0013E6  1A03               	xorwf	___ftge@ff1+2,f,c
  4215  0013E8  0E00               	movlw	0
  4216  0013EA  1A04               	xorwf	___ftge@ff2,f,c
  4217  0013EC  0E00               	movlw	0
  4218  0013EE  1A05               	xorwf	___ftge@ff2+1,f,c
  4219  0013F0  0E80               	movlw	128
  4220  0013F2  1A06               	xorwf	___ftge@ff2+2,f,c
  4221  0013F4  5004               	movf	___ftge@ff2,w,c
  4222  0013F6  5C01               	subwf	___ftge@ff1,w,c
  4223  0013F8  5005               	movf	___ftge@ff2+1,w,c
  4224  0013FA  5802               	subwfb	___ftge@ff1+1,w,c
  4225  0013FC  5006               	movf	___ftge@ff2+2,w,c
  4226  0013FE  5803               	subwfb	___ftge@ff1+2,w,c
  4227  001400  B0D8               	btfsc	status,0,c
  4228  001402  D002               	goto	i1l2109
  4229  001404  90D8               	bcf	status,0,c
  4230  001406  D002               	goto	i1l869
  4231  001408                     i1l2109:
  4232  001408  80D8               	bsf	status,0,c
  4233  00140A  D000               	goto	i1l869
  4234  00140C                     i1l869:
  4235  00140C  0012               	return		;funcret
  4236  00140E                     __end_of___ftge:
  4237                           	opt stack 0
  4238                           pclatu	equ	0xFFB
  4239                           pclath	equ	0xFFA
  4240                           tblptru	equ	0xFF8
  4241                           tblptrh	equ	0xFF7
  4242                           tblptrl	equ	0xFF6
  4243                           tablat	equ	0xFF5
  4244                           prodh	equ	0xFF4
  4245                           prodl	equ	0xFF3
  4246                           intcon	equ	0xFF2
  4247                           intcon2	equ	0xFF1
  4248                           intcon3	equ	0xFF0
  4249                           postinc0	equ	0xFEE
  4250                           fsr0h	equ	0xFEA
  4251                           fsr0l	equ	0xFE9
  4252                           wreg	equ	0xFE8
  4253                           fsr1h	equ	0xFE2
  4254                           fsr1l	equ	0xFE1
  4255                           bsr	equ	0xFE0
  4256                           indf2	equ	0xFDF
  4257                           postinc2	equ	0xFDE
  4258                           postdec2	equ	0xFDD
  4259                           fsr2h	equ	0xFDA
  4260                           fsr2l	equ	0xFD9
  4261                           status	equ	0xFD8
  4262                           
  4263 ;; *************** function _interruption_QEI *****************
  4264 ;; Defined at:
  4265 ;;		line 158 in file "interruptions.c"
  4266 ;; Parameters:    Size  Location     Type
  4267 ;;		None
  4268 ;; Auto vars:     Size  Location     Type
  4269 ;;		None
  4270 ;; Return value:  Size  Location     Type
  4271 ;;		None               void
  4272 ;; Registers used:
  4273 ;;		status,2, status,0
  4274 ;; Tracked objects:
  4275 ;;		On entry : 0/0
  4276 ;;		On exit  : 0/0
  4277 ;;		Unchanged: 0/0
  4278 ;; Data sizes:     COMRAM   BANK0   BANK1   BANK2
  4279 ;;      Params:         0       0       0       0
  4280 ;;      Locals:         0       0       0       0
  4281 ;;      Temps:          0       0       0       0
  4282 ;;      Totals:         0       0       0       0
  4283 ;;Total ram usage:        0 bytes
  4284 ;; Hardware stack levels used:    1
  4285 ;; Hardware stack levels required when called:    7
  4286 ;; This function calls:
  4287 ;;		Nothing
  4288 ;; This function is called by:
  4289 ;;		_subroutine_interruptions
  4290 ;; This function uses a non-reentrant model
  4291 ;;
  4292                           
  4293                           	psect	text29
  4294  001B64                     __ptext29:
  4295                           	opt stack 0
  4296  001B64                     _interruption_QEI:
  4297                           	opt stack 18
  4298                           
  4299                           ;interruptions.c: 160: PIR3bits.IC2QEIF = 0;
  4300                           
  4301                           ;incstack = 0
  4302  001B64  94A4               	bcf	4004,2,c	;volatile
  4303                           
  4304                           ;interruptions.c: 161: QEICONbits.QERR = 0;
  4305  001B66  9CB6               	bcf	4022,6,c	;volatile
  4306                           
  4307                           ;interruptions.c: 163: if (QEICONbits.UPDOWN == 1)
  4308  001B68  AAB6               	btfss	4022,5,c	;volatile
  4309  001B6A  D002               	goto	i1l1735
  4310                           
  4311                           ;interruptions.c: 164: {
  4312                           ;interruptions.c: 165: OVERFLOW_CODEUR++;
  4313  001B6C  2A4E               	incf	_OVERFLOW_CODEUR,f,c
  4314                           
  4315                           ;interruptions.c: 166: }
  4316  001B6E  D002               	goto	i1l343
  4317  001B70                     i1l1735:
  4318                           
  4319                           ;interruptions.c: 167: else
  4320                           ;interruptions.c: 168: {
  4321                           ;interruptions.c: 169: OVERFLOW_CODEUR--;
  4322  001B70  064E               	decf	_OVERFLOW_CODEUR,f,c
  4323  001B72  D000               	goto	i1l343
  4324  001B74                     i1l343:
  4325  001B74  0012               	return		;funcret
  4326  001B76                     __end_of_interruption_QEI:
  4327                           	opt stack 0
  4328                           pclatu	equ	0xFFB
  4329                           pclath	equ	0xFFA
  4330                           tblptru	equ	0xFF8
  4331                           tblptrh	equ	0xFF7
  4332                           tblptrl	equ	0xFF6
  4333                           tablat	equ	0xFF5
  4334                           prodh	equ	0xFF4
  4335                           prodl	equ	0xFF3
  4336                           intcon	equ	0xFF2
  4337                           intcon2	equ	0xFF1
  4338                           intcon3	equ	0xFF0
  4339                           postinc0	equ	0xFEE
  4340                           fsr0h	equ	0xFEA
  4341                           fsr0l	equ	0xFE9
  4342                           wreg	equ	0xFE8
  4343                           fsr1h	equ	0xFE2
  4344                           fsr1l	equ	0xFE1
  4345                           bsr	equ	0xFE0
  4346                           indf2	equ	0xFDF
  4347                           postinc2	equ	0xFDE
  4348                           postdec2	equ	0xFDD
  4349                           fsr2h	equ	0xFDA
  4350                           fsr2l	equ	0xFD9
  4351                           status	equ	0xFD8
  4352                           
  4353 ;; *************** function _interruption_INT0 *****************
  4354 ;; Defined at:
  4355 ;;		line 141 in file "interruptions.c"
  4356 ;; Parameters:    Size  Location     Type
  4357 ;;		None
  4358 ;; Auto vars:     Size  Location     Type
  4359 ;;		None
  4360 ;; Return value:  Size  Location     Type
  4361 ;;		None               void
  4362 ;; Registers used:
  4363 ;;		None
  4364 ;; Tracked objects:
  4365 ;;		On entry : 0/0
  4366 ;;		On exit  : 0/0
  4367 ;;		Unchanged: 0/0
  4368 ;; Data sizes:     COMRAM   BANK0   BANK1   BANK2
  4369 ;;      Params:         0       0       0       0
  4370 ;;      Locals:         0       0       0       0
  4371 ;;      Temps:          0       0       0       0
  4372 ;;      Totals:         0       0       0       0
  4373 ;;Total ram usage:        0 bytes
  4374 ;; Hardware stack levels used:    1
  4375 ;; Hardware stack levels required when called:    7
  4376 ;; This function calls:
  4377 ;;		Nothing
  4378 ;; This function is called by:
  4379 ;;		_subroutine_interruptions
  4380 ;; This function uses a non-reentrant model
  4381 ;;
  4382                           
  4383                           	psect	text30
  4384  001BB6                     __ptext30:
  4385                           	opt stack 0
  4386  001BB6                     _interruption_INT0:
  4387                           	opt stack 18
  4388                           
  4389                           ;interruptions.c: 143: INTCONbits.INT0IF = 0;
  4390                           
  4391                           ;incstack = 0
  4392  001BB6  92F2               	bcf	intcon,1,c	;volatile
  4393  001BB8  0012               	return		;funcret
  4394  001BBA                     __end_of_interruption_INT0:
  4395                           	opt stack 0
  4396                           pclatu	equ	0xFFB
  4397                           pclath	equ	0xFFA
  4398                           tblptru	equ	0xFF8
  4399                           tblptrh	equ	0xFF7
  4400                           tblptrl	equ	0xFF6
  4401                           tablat	equ	0xFF5
  4402                           prodh	equ	0xFF4
  4403                           prodl	equ	0xFF3
  4404                           intcon	equ	0xFF2
  4405                           intcon2	equ	0xFF1
  4406                           intcon3	equ	0xFF0
  4407                           postinc0	equ	0xFEE
  4408                           fsr0h	equ	0xFEA
  4409                           fsr0l	equ	0xFE9
  4410                           wreg	equ	0xFE8
  4411                           fsr1h	equ	0xFE2
  4412                           fsr1l	equ	0xFE1
  4413                           bsr	equ	0xFE0
  4414                           indf2	equ	0xFDF
  4415                           postinc2	equ	0xFDE
  4416                           postdec2	equ	0xFDD
  4417                           fsr2h	equ	0xFDA
  4418                           fsr2l	equ	0xFD9
  4419                           status	equ	0xFD8
  4420                           
  4421 ;; *************** function _interrupt_TX *****************
  4422 ;; Defined at:
  4423 ;;		line 207 in file "interruptions.c"
  4424 ;; Parameters:    Size  Location     Type
  4425 ;;		None
  4426 ;; Auto vars:     Size  Location     Type
  4427 ;;		None
  4428 ;; Return value:  Size  Location     Type
  4429 ;;		None               void
  4430 ;; Registers used:
  4431 ;;		None
  4432 ;; Tracked objects:
  4433 ;;		On entry : 0/0
  4434 ;;		On exit  : 0/0
  4435 ;;		Unchanged: 0/0
  4436 ;; Data sizes:     COMRAM   BANK0   BANK1   BANK2
  4437 ;;      Params:         0       0       0       0
  4438 ;;      Locals:         0       0       0       0
  4439 ;;      Temps:          0       0       0       0
  4440 ;;      Totals:         0       0       0       0
  4441 ;;Total ram usage:        0 bytes
  4442 ;; Hardware stack levels used:    1
  4443 ;; Hardware stack levels required when called:    7
  4444 ;; This function calls:
  4445 ;;		Nothing
  4446 ;; This function is called by:
  4447 ;;		_subroutine_interruptions
  4448 ;; This function uses a non-reentrant model
  4449 ;;
  4450                           
  4451                           	psect	text31
  4452  001BBA                     __ptext31:
  4453                           	opt stack 0
  4454  001BBA                     _interrupt_TX:
  4455                           	opt stack 18
  4456                           
  4457                           ;interruptions.c: 209: PIR1bits.TXIF = 0;
  4458                           
  4459                           ;incstack = 0
  4460  001BBA  989E               	bcf	3998,4,c	;volatile
  4461  001BBC  0012               	return		;funcret
  4462  001BBE                     __end_of_interrupt_TX:
  4463                           	opt stack 0
  4464                           pclatu	equ	0xFFB
  4465                           pclath	equ	0xFFA
  4466                           tblptru	equ	0xFF8
  4467                           tblptrh	equ	0xFF7
  4468                           tblptrl	equ	0xFF6
  4469                           tablat	equ	0xFF5
  4470                           prodh	equ	0xFF4
  4471                           prodl	equ	0xFF3
  4472                           intcon	equ	0xFF2
  4473                           intcon2	equ	0xFF1
  4474                           intcon3	equ	0xFF0
  4475                           postinc0	equ	0xFEE
  4476                           fsr0h	equ	0xFEA
  4477                           fsr0l	equ	0xFE9
  4478                           wreg	equ	0xFE8
  4479                           fsr1h	equ	0xFE2
  4480                           fsr1l	equ	0xFE1
  4481                           bsr	equ	0xFE0
  4482                           indf2	equ	0xFDF
  4483                           postinc2	equ	0xFDE
  4484                           postdec2	equ	0xFDD
  4485                           fsr2h	equ	0xFDA
  4486                           fsr2l	equ	0xFD9
  4487                           status	equ	0xFD8
  4488                           
  4489 ;; *************** function _interrupt_RX *****************
  4490 ;; Defined at:
  4491 ;;		line 188 in file "interruptions.c"
  4492 ;; Parameters:    Size  Location     Type
  4493 ;;		None
  4494 ;; Auto vars:     Size  Location     Type
  4495 ;;  temp            1    0[COMRAM] unsigned char 
  4496 ;; Return value:  Size  Location     Type
  4497 ;;		None               void
  4498 ;; Registers used:
  4499 ;;		wreg, fsr2l, fsr2h, status,2, status,0, prodl, prodh
  4500 ;; Tracked objects:
  4501 ;;		On entry : 0/0
  4502 ;;		On exit  : 0/0
  4503 ;;		Unchanged: 0/0
  4504 ;; Data sizes:     COMRAM   BANK0   BANK1   BANK2
  4505 ;;      Params:         0       0       0       0
  4506 ;;      Locals:         1       0       0       0
  4507 ;;      Temps:          0       0       0       0
  4508 ;;      Totals:         1       0       0       0
  4509 ;;Total ram usage:        1 bytes
  4510 ;; Hardware stack levels used:    1
  4511 ;; Hardware stack levels required when called:    7
  4512 ;; This function calls:
  4513 ;;		Nothing
  4514 ;; This function is called by:
  4515 ;;		_subroutine_interruptions
  4516 ;; This function uses a non-reentrant model
  4517 ;;
  4518                           
  4519                           	psect	text32
  4520  00195A                     __ptext32:
  4521                           	opt stack 0
  4522  00195A                     _interrupt_RX:
  4523                           	opt stack 18
  4524                           
  4525                           ;interruptions.c: 190: PIR1bits.RCIF = 0;
  4526                           
  4527                           ;incstack = 0
  4528  00195A  9A9E               	bcf	3998,5,c	;volatile
  4529                           
  4530                           ;interruptions.c: 191: PORTBbits.RB0 = 1;
  4531  00195C  8081               	bsf	3969,0,c	;volatile
  4532                           
  4533                           ;interruptions.c: 193: if (uart_reception.indice < 100)
  4534  00195E  0E64               	movlw	100
  4535  001960  0101               	movlb	1	; () banked
  4536  001962  6164               	cpfslt	(_uart_reception+100)& (0+255),b
  4537  001964  D011               	goto	i1l2699
  4538                           
  4539                           ; BSR set to: 1
  4540                           ;interruptions.c: 194: {
  4541                           ;interruptions.c: 195: uart_reception.buffer_reeption[uart_reception.indice] = RCREG;
  4542  001966  0101               	movlb	1	; () banked
  4543  001968  5164               	movf	(_uart_reception+100)& (0+255),w,b
  4544  00196A  0D01               	mullw	1
  4545  00196C  0E00               	movlw	low _uart_reception
  4546  00196E  24F3               	addwf	prodl,w,c
  4547  001970  6ED9               	movwf	fsr2l,c
  4548  001972  0E01               	movlw	high _uart_reception
  4549  001974  20F4               	addwfc	prodh,w,c
  4550  001976  6EDA               	movwf	fsr2h,c
  4551  001978  CFAE FFDF          	movff	4014,indf2	;volatile
  4552                           
  4553                           ; BSR set to: 1
  4554                           ;interruptions.c: 196: uart_reception.buffer_vide = 0;
  4555  00197C  0E00               	movlw	0
  4556  00197E  0101               	movlb	1	; () banked
  4557  001980  6F66               	movwf	(_uart_reception+102)& (0+255),b
  4558                           
  4559                           ; BSR set to: 1
  4560                           ;interruptions.c: 197: uart_reception.indice++;
  4561  001982  0101               	movlb	1	; () banked
  4562  001984  2B64               	incf	(_uart_reception+100)& (0+255),f,b
  4563                           
  4564                           ;interruptions.c: 198: }
  4565  001986  D006               	goto	i1l354
  4566  001988                     i1l2699:
  4567                           
  4568                           ; BSR set to: 1
  4569                           ;interruptions.c: 199: else
  4570                           ;interruptions.c: 200: {
  4571                           ;interruptions.c: 201: uart_reception.buffer_plein = 1;
  4572  001988  0E01               	movlw	1
  4573  00198A  0101               	movlb	1	; () banked
  4574  00198C  6F65               	movwf	(_uart_reception+101)& (0+255),b
  4575                           
  4576                           ; BSR set to: 1
  4577                           ;interruptions.c: 202: uint8_t temp = RCREG;
  4578  00198E  CFAE F001          	movff	4014,interrupt_RX@temp	;volatile
  4579  001992  D000               	goto	i1l354
  4580  001994                     i1l354:
  4581                           
  4582                           ; BSR set to: 1
  4583  001994  0012               	return		;funcret
  4584  001996                     __end_of_interrupt_RX:
  4585                           	opt stack 0
  4586                           pclatu	equ	0xFFB
  4587                           pclath	equ	0xFFA
  4588                           tblptru	equ	0xFF8
  4589                           tblptrh	equ	0xFF7
  4590                           tblptrl	equ	0xFF6
  4591                           tablat	equ	0xFF5
  4592                           prodh	equ	0xFF4
  4593                           prodl	equ	0xFF3
  4594                           intcon	equ	0xFF2
  4595                           intcon2	equ	0xFF1
  4596                           intcon3	equ	0xFF0
  4597                           postinc0	equ	0xFEE
  4598                           fsr0h	equ	0xFEA
  4599                           fsr0l	equ	0xFE9
  4600                           wreg	equ	0xFE8
  4601                           fsr1h	equ	0xFE2
  4602                           fsr1l	equ	0xFE1
  4603                           bsr	equ	0xFE0
  4604                           indf2	equ	0xFDF
  4605                           postinc2	equ	0xFDE
  4606                           postdec2	equ	0xFDD
  4607                           fsr2h	equ	0xFDA
  4608                           fsr2l	equ	0xFD9
  4609                           status	equ	0xFD8
  4610                           
  4611 ;; *************** function _high_isr *****************
  4612 ;; Defined at:
  4613 ;;		line 27 in file "interruptions.c"
  4614 ;; Parameters:    Size  Location     Type
  4615 ;;		None
  4616 ;; Auto vars:     Size  Location     Type
  4617 ;;		None
  4618 ;; Return value:  Size  Location     Type
  4619 ;;		None               void
  4620 ;; Registers used:
  4621 ;;		wreg, fsr2l, fsr2h, status,2, status,0, prodl, prodh, cstack
  4622 ;; Tracked objects:
  4623 ;;		On entry : 0/0
  4624 ;;		On exit  : 0/0
  4625 ;;		Unchanged: 0/0
  4626 ;; Data sizes:     COMRAM   BANK0   BANK1   BANK2
  4627 ;;      Params:         0       0       0       0
  4628 ;;      Locals:         0       0       0       0
  4629 ;;      Temps:          0      14       0       0
  4630 ;;      Totals:         0      14       0       0
  4631 ;;Total ram usage:       14 bytes
  4632 ;; Hardware stack levels used:    1
  4633 ;; Hardware stack levels required when called:    6
  4634 ;; This function calls:
  4635 ;;		i2_subroutine_interruptions
  4636 ;; This function is called by:
  4637 ;;		Interrupt level 2
  4638 ;; This function uses a non-reentrant model
  4639 ;;
  4640                           
  4641                           	psect	intcode
  4642  000008                     __pintcode:
  4643                           	opt stack 0
  4644  000008                     _high_isr:
  4645                           	opt stack 14
  4646                           
  4647                           ; BSR set to: 1
  4648                           ;incstack = 0
  4649  000008  CFFA F08D          	movff	pclath,??_high_isr
  4650  00000C  CFFB F08E          	movff	pclatu,??_high_isr+1
  4651  000010  CFE9 F08F          	movff	fsr0l,??_high_isr+2
  4652  000014  EF58  F00B         	goto	int_func
  4653                           pclatu	equ	0xFFB
  4654                           pclath	equ	0xFFA
  4655                           tblptru	equ	0xFF8
  4656                           tblptrh	equ	0xFF7
  4657                           tblptrl	equ	0xFF6
  4658                           tablat	equ	0xFF5
  4659                           prodh	equ	0xFF4
  4660                           prodl	equ	0xFF3
  4661                           intcon	equ	0xFF2
  4662                           intcon2	equ	0xFF1
  4663                           intcon3	equ	0xFF0
  4664                           postinc0	equ	0xFEE
  4665                           fsr0h	equ	0xFEA
  4666                           fsr0l	equ	0xFE9
  4667                           wreg	equ	0xFE8
  4668                           fsr1h	equ	0xFE2
  4669                           fsr1l	equ	0xFE1
  4670                           bsr	equ	0xFE0
  4671                           indf2	equ	0xFDF
  4672                           postinc2	equ	0xFDE
  4673                           postdec2	equ	0xFDD
  4674                           fsr2h	equ	0xFDA
  4675                           fsr2l	equ	0xFD9
  4676                           status	equ	0xFD8
  4677                           
  4678                           	psect	intcode_body
  4679  0016B0                     __pintcode_body:
  4680                           	opt stack 14
  4681  0016B0                     int_func:
  4682                           	opt stack 14
  4683  0016B0  CFEA F090          	movff	fsr0h,??_high_isr+3
  4684  0016B4  CFE1 F091          	movff	fsr1l,??_high_isr+4
  4685  0016B8  CFE2 F092          	movff	fsr1h,??_high_isr+5
  4686  0016BC  CFD9 F093          	movff	fsr2l,??_high_isr+6
  4687  0016C0  CFDA F094          	movff	fsr2h,??_high_isr+7
  4688  0016C4  CFF3 F095          	movff	prodl,??_high_isr+8
  4689  0016C8  CFF4 F096          	movff	prodh,??_high_isr+9
  4690  0016CC  CFF6 F097          	movff	tblptrl,??_high_isr+10
  4691  0016D0  CFF7 F098          	movff	tblptrh,??_high_isr+11
  4692  0016D4  CFF8 F099          	movff	tblptru,??_high_isr+12
  4693  0016D8  CFF5 F09A          	movff	tablat,??_high_isr+13
  4694                           
  4695                           ;interruptions.c: 29: subroutine_interruptions(0b1);
  4696  0016DC  0E01               	movlw	1
  4697  0016DE  EC6E  F009         	call	i2_subroutine_interruptions
  4698  0016E2  C09A  FFF5         	movff	??_high_isr+13,tablat
  4699  0016E6  C099  FFF8         	movff	??_high_isr+12,tblptru
  4700  0016EA  C098  FFF7         	movff	??_high_isr+11,tblptrh
  4701  0016EE  C097  FFF6         	movff	??_high_isr+10,tblptrl
  4702  0016F2  C096  FFF4         	movff	??_high_isr+9,prodh
  4703  0016F6  C095  FFF3         	movff	??_high_isr+8,prodl
  4704  0016FA  C094  FFDA         	movff	??_high_isr+7,fsr2h
  4705  0016FE  C093  FFD9         	movff	??_high_isr+6,fsr2l
  4706  001702  C092  FFE2         	movff	??_high_isr+5,fsr1h
  4707  001706  C091  FFE1         	movff	??_high_isr+4,fsr1l
  4708  00170A  C090  FFEA         	movff	??_high_isr+3,fsr0h
  4709  00170E  C08F  FFE9         	movff	??_high_isr+2,fsr0l
  4710  001712  C08E  FFFB         	movff	??_high_isr+1,pclatu
  4711  001716  C08D  FFFA         	movff	??_high_isr,pclath
  4712  00171A  0011               	retfie		f
  4713  00171C                     __end_of_high_isr:
  4714                           	opt stack 0
  4715                           pclatu	equ	0xFFB
  4716                           pclath	equ	0xFFA
  4717                           tblptru	equ	0xFF8
  4718                           tblptrh	equ	0xFF7
  4719                           tblptrl	equ	0xFF6
  4720                           tablat	equ	0xFF5
  4721                           prodh	equ	0xFF4
  4722                           prodl	equ	0xFF3
  4723                           intcon	equ	0xFF2
  4724                           intcon2	equ	0xFF1
  4725                           intcon3	equ	0xFF0
  4726                           postinc0	equ	0xFEE
  4727                           fsr0h	equ	0xFEA
  4728                           fsr0l	equ	0xFE9
  4729                           wreg	equ	0xFE8
  4730                           fsr1h	equ	0xFE2
  4731                           fsr1l	equ	0xFE1
  4732                           bsr	equ	0xFE0
  4733                           indf2	equ	0xFDF
  4734                           postinc2	equ	0xFDE
  4735                           postdec2	equ	0xFDD
  4736                           fsr2h	equ	0xFDA
  4737                           fsr2l	equ	0xFD9
  4738                           status	equ	0xFD8
  4739                           
  4740 ;; *************** function i2_subroutine_interruptions *****************
  4741 ;; Defined at:
  4742 ;;		line 43 in file "interruptions.c"
  4743 ;; Parameters:    Size  Location     Type
  4744 ;;  priorite        1    wreg     unsigned char 
  4745 ;; Auto vars:     Size  Location     Type
  4746 ;;  priorite        1   44[BANK0 ] unsigned char 
  4747 ;; Return value:  Size  Location     Type
  4748 ;;		None               void
  4749 ;; Registers used:
  4750 ;;		wreg, fsr2l, fsr2h, status,2, status,0, prodl, prodh, cstack
  4751 ;; Tracked objects:
  4752 ;;		On entry : 0/0
  4753 ;;		On exit  : 0/0
  4754 ;;		Unchanged: 0/0
  4755 ;; Data sizes:     COMRAM   BANK0   BANK1   BANK2
  4756 ;;      Params:         0       0       0       0
  4757 ;;      Locals:         0       1       0       0
  4758 ;;      Temps:          0       0       0       0
  4759 ;;      Totals:         0       1       0       0
  4760 ;;Total ram usage:        1 bytes
  4761 ;; Hardware stack levels used:    1
  4762 ;; Hardware stack levels required when called:    5
  4763 ;; This function calls:
  4764 ;;		i2_interrupt_RX
  4765 ;;		i2_interrupt_TX
  4766 ;;		i2_interruption_INT0
  4767 ;;		i2_interruption_QEI
  4768 ;;		i2_interruption_timer0
  4769 ;;		i2_interruption_timer1
  4770 ;;		i2_interruption_timer2
  4771 ;;		i2_interuption_QEI_sens
  4772 ;; This function is called by:
  4773 ;;		_high_isr
  4774 ;; This function uses a non-reentrant model
  4775 ;;
  4776                           
  4777                           	psect	text34
  4778  0012DC                     __ptext34:
  4779                           	opt stack 0
  4780  0012DC                     i2_subroutine_interruptions:
  4781                           	opt stack 14
  4782                           
  4783                           ;incstack = 0
  4784                           ;i2subroutine_interruptions@priorite stored from wreg
  4785  0012DC  0100               	movlb	0	; () banked
  4786  0012DE  6F8C               	movwf	i2subroutine_interruptions@priorite& (0+255),b
  4787                           
  4788                           ; BSR set to: 0
  4789                           ;interruptions.c: 45: if ( PIR3bits.IC2QEIF == 1 && 0b1 == 1 && priorite == 0b1)
  4790  0012E0  A4A4               	btfss	4004,2,c	;volatile
  4791  0012E2  D007               	goto	i2l299
  4792                           
  4793                           ; BSR set to: 0
  4794  0012E4  0100               	movlb	0	; () banked
  4795  0012E6  058C               	decf	i2subroutine_interruptions@priorite& (0+255),w,b
  4796  0012E8  A4D8               	btfss	status,2,c
  4797  0012EA  D003               	goto	i2l299
  4798                           
  4799                           ; BSR set to: 0
  4800                           ;interruptions.c: 46: {
  4801                           ;interruptions.c: 47: interruption_QEI();
  4802  0012EC  ECBB  F00D         	call	i2_interruption_QEI	;wreg free
  4803                           
  4804                           ;interruptions.c: 48: }
  4805  0012F0  D042               	goto	i2l314
  4806  0012F2                     i2l299:
  4807                           
  4808                           ; BSR set to: 0
  4809                           ;interruptions.c: 49: else if ( PIR3bits.IC3DRIF == 1 && 0b0 == 1 && priorite == 0b1)
  4810  0012F2  50A4               	movf	4004,w,c	;volatile
  4811                           
  4812                           ; BSR set to: 0
  4813  0012F4  D007               	goto	i2l301
  4814                           
  4815                           ; BSR set to: 0
  4816  0012F6  0100               	movlb	0	; () banked
  4817  0012F8  058C               	decf	i2subroutine_interruptions@priorite& (0+255),w,b
  4818  0012FA  A4D8               	btfss	status,2,c
  4819  0012FC  D003               	goto	i2l301
  4820                           
  4821                           ; BSR set to: 0
  4822                           ;interruptions.c: 50: {
  4823                           ;interruptions.c: 51: interuption_QEI_sens();
  4824  0012FE  ECDF  F00D         	call	i2_interuption_QEI_sens	;wreg free
  4825                           
  4826                           ;interruptions.c: 52: }
  4827  001302  D039               	goto	i2l314
  4828  001304                     i2l301:
  4829                           
  4830                           ; BSR set to: 0
  4831                           ;interruptions.c: 53: else if ( INTCONbits.TMR0IF == 1 && 0b1 == 1 && priorite == 0b1)
  4832  001304  A4F2               	btfss	intcon,2,c	;volatile
  4833  001306  D007               	goto	i2l303
  4834                           
  4835                           ; BSR set to: 0
  4836  001308  0100               	movlb	0	; () banked
  4837  00130A  058C               	decf	i2subroutine_interruptions@priorite& (0+255),w,b
  4838  00130C  A4D8               	btfss	status,2,c
  4839  00130E  D003               	goto	i2l303
  4840                           
  4841                           ; BSR set to: 0
  4842                           ;interruptions.c: 54: {
  4843                           ;interruptions.c: 55: interruption_timer0();
  4844  001310  ECD1  F00D         	call	i2_interruption_timer0	;wreg free
  4845                           
  4846                           ;interruptions.c: 56: }
  4847  001314  D030               	goto	i2l314
  4848  001316                     i2l303:
  4849                           
  4850                           ; BSR set to: 0
  4851                           ;interruptions.c: 57: else if ( PIR1bits.TMR1IF == 1 && 0b1 == 1 && priorite == 0b1)
  4852  001316  A09E               	btfss	3998,0,c	;volatile
  4853  001318  D007               	goto	i2l305
  4854                           
  4855                           ; BSR set to: 0
  4856  00131A  0100               	movlb	0	; () banked
  4857  00131C  058C               	decf	i2subroutine_interruptions@priorite& (0+255),w,b
  4858  00131E  A4D8               	btfss	status,2,c
  4859  001320  D003               	goto	i2l305
  4860                           
  4861                           ; BSR set to: 0
  4862                           ;interruptions.c: 58: {
  4863                           ;interruptions.c: 59: interruption_timer1();
  4864  001322  EC21  F00C         	call	i2_interruption_timer1	;wreg free
  4865                           
  4866                           ;interruptions.c: 60: }
  4867  001326  D027               	goto	i2l314
  4868  001328                     i2l305:
  4869                           
  4870                           ; BSR set to: 0
  4871                           ;interruptions.c: 61: else if ( PIR1bits.TMR2IF == 1 && 0b0 == 1 && priorite == 0b0)
  4872  001328  509E               	movf	3998,w,c	;volatile
  4873                           
  4874                           ; BSR set to: 0
  4875  00132A  D008               	goto	i2l307
  4876                           
  4877                           ; BSR set to: 0
  4878  00132C  0100               	movlb	0	; () banked
  4879  00132E  518C               	movf	i2subroutine_interruptions@priorite& (0+255),w,b
  4880  001330  0100               	movlb	0	; () banked
  4881  001332  A4D8               	btfss	status,2,c
  4882  001334  D003               	goto	i2l307
  4883                           
  4884                           ; BSR set to: 0
  4885                           ;interruptions.c: 62: {
  4886                           ;interruptions.c: 63: interruption_timer2();
  4887  001336  ECE1  F00D         	call	i2_interruption_timer2	;wreg free
  4888                           
  4889                           ;interruptions.c: 64: }
  4890  00133A  D01D               	goto	i2l314
  4891  00133C                     i2l307:
  4892                           
  4893                           ; BSR set to: 0
  4894                           ;interruptions.c: 65: else if (INTCONbits.INT0IF == 1 && 0b1 == 1 && priorite == 0b0)
  4895  00133C  A2F2               	btfss	intcon,1,c	;volatile
  4896  00133E  D008               	goto	i2l309
  4897                           
  4898                           ; BSR set to: 0
  4899  001340  0100               	movlb	0	; () banked
  4900  001342  518C               	movf	i2subroutine_interruptions@priorite& (0+255),w,b
  4901  001344  0100               	movlb	0	; () banked
  4902  001346  A4D8               	btfss	status,2,c
  4903  001348  D003               	goto	i2l309
  4904                           
  4905                           ; BSR set to: 0
  4906                           ;interruptions.c: 66: {
  4907                           ;interruptions.c: 67: interruption_INT0();
  4908  00134A  ECE3  F00D         	call	i2_interruption_INT0	;wreg free
  4909                           
  4910                           ;interruptions.c: 68: }
  4911  00134E  D013               	goto	i2l314
  4912  001350                     i2l309:
  4913                           
  4914                           ; BSR set to: 0
  4915                           ;interruptions.c: 85: else if ( PIR1bits.RCIF == 1 && 0b1 == 1 && priorite == 0b1)
  4916  001350  AA9E               	btfss	3998,5,c	;volatile
  4917  001352  D007               	goto	i2l311
  4918                           
  4919                           ; BSR set to: 0
  4920  001354  0100               	movlb	0	; () banked
  4921  001356  058C               	decf	i2subroutine_interruptions@priorite& (0+255),w,b
  4922  001358  A4D8               	btfss	status,2,c
  4923  00135A  D003               	goto	i2l311
  4924                           
  4925                           ; BSR set to: 0
  4926                           ;interruptions.c: 86: {
  4927                           ;interruptions.c: 87: interrupt_RX();
  4928  00135C  ECCB  F00C         	call	i2_interrupt_RX	;wreg free
  4929                           
  4930                           ;interruptions.c: 88: }
  4931  001360  D00A               	goto	i2l314
  4932  001362                     i2l311:
  4933                           
  4934                           ; BSR set to: 0
  4935                           ;interruptions.c: 89: else if (PIR1bits.TXIF == 1 && 0b0 == 1 && priorite == 0b0)
  4936  001362  509E               	movf	3998,w,c	;volatile
  4937                           
  4938                           ; BSR set to: 0
  4939  001364  D008               	goto	i2l314
  4940                           
  4941                           ; BSR set to: 0
  4942  001366  0100               	movlb	0	; () banked
  4943  001368  518C               	movf	i2subroutine_interruptions@priorite& (0+255),w,b
  4944  00136A  0100               	movlb	0	; () banked
  4945  00136C  A4D8               	btfss	status,2,c
  4946  00136E  D003               	goto	i2l314
  4947                           
  4948                           ; BSR set to: 0
  4949                           ;interruptions.c: 90: {
  4950                           ;interruptions.c: 91: interrupt_TX();
  4951  001370  ECE5  F00D         	call	i2_interrupt_TX	;wreg free
  4952  001374  D000               	goto	i2l314
  4953  001376                     i2l314:
  4954  001376  0012               	return		;funcret
  4955  001378                     __end_ofi2_subroutine_interruptions:
  4956                           	opt stack 0
  4957                           pclatu	equ	0xFFB
  4958                           pclath	equ	0xFFA
  4959                           tblptru	equ	0xFF8
  4960                           tblptrh	equ	0xFF7
  4961                           tblptrl	equ	0xFF6
  4962                           tablat	equ	0xFF5
  4963                           prodh	equ	0xFF4
  4964                           prodl	equ	0xFF3
  4965                           intcon	equ	0xFF2
  4966                           intcon2	equ	0xFF1
  4967                           intcon3	equ	0xFF0
  4968                           postinc0	equ	0xFEE
  4969                           fsr0h	equ	0xFEA
  4970                           fsr0l	equ	0xFE9
  4971                           wreg	equ	0xFE8
  4972                           fsr1h	equ	0xFE2
  4973                           fsr1l	equ	0xFE1
  4974                           bsr	equ	0xFE0
  4975                           indf2	equ	0xFDF
  4976                           postinc2	equ	0xFDE
  4977                           postdec2	equ	0xFDD
  4978                           fsr2h	equ	0xFDA
  4979                           fsr2l	equ	0xFD9
  4980                           status	equ	0xFD8
  4981                           
  4982 ;; *************** function i2_interuption_QEI_sens *****************
  4983 ;; Defined at:
  4984 ;;		line 174 in file "interruptions.c"
  4985 ;; Parameters:    Size  Location     Type
  4986 ;;		None
  4987 ;; Auto vars:     Size  Location     Type
  4988 ;;		None
  4989 ;; Return value:  Size  Location     Type
  4990 ;;		None               void
  4991 ;; Registers used:
  4992 ;;		None
  4993 ;; Tracked objects:
  4994 ;;		On entry : 0/0
  4995 ;;		On exit  : 0/0
  4996 ;;		Unchanged: 0/0
  4997 ;; Data sizes:     COMRAM   BANK0   BANK1   BANK2
  4998 ;;      Params:         0       0       0       0
  4999 ;;      Locals:         0       0       0       0
  5000 ;;      Temps:          0       0       0       0
  5001 ;;      Totals:         0       0       0       0
  5002 ;;Total ram usage:        0 bytes
  5003 ;; Hardware stack levels used:    1
  5004 ;; This function calls:
  5005 ;;		Nothing
  5006 ;; This function is called by:
  5007 ;;		i2_subroutine_interruptions
  5008 ;; This function uses a non-reentrant model
  5009 ;;
  5010                           
  5011                           	psect	text35
  5012  001BBE                     __ptext35:
  5013                           	opt stack 0
  5014  001BBE                     i2_interuption_QEI_sens:
  5015                           	opt stack 18
  5016                           
  5017                           ;interruptions.c: 176: PIR3bits.IC3DRIF = 0;
  5018                           
  5019                           ;incstack = 0
  5020  001BBE  96A4               	bcf	4004,3,c	;volatile
  5021  001BC0  0012               	return		;funcret
  5022  001BC2                     __end_ofi2_interuption_QEI_sens:
  5023                           	opt stack 0
  5024                           pclatu	equ	0xFFB
  5025                           pclath	equ	0xFFA
  5026                           tblptru	equ	0xFF8
  5027                           tblptrh	equ	0xFF7
  5028                           tblptrl	equ	0xFF6
  5029                           tablat	equ	0xFF5
  5030                           prodh	equ	0xFF4
  5031                           prodl	equ	0xFF3
  5032                           intcon	equ	0xFF2
  5033                           intcon2	equ	0xFF1
  5034                           intcon3	equ	0xFF0
  5035                           postinc0	equ	0xFEE
  5036                           fsr0h	equ	0xFEA
  5037                           fsr0l	equ	0xFE9
  5038                           wreg	equ	0xFE8
  5039                           fsr1h	equ	0xFE2
  5040                           fsr1l	equ	0xFE1
  5041                           bsr	equ	0xFE0
  5042                           indf2	equ	0xFDF
  5043                           postinc2	equ	0xFDE
  5044                           postdec2	equ	0xFDD
  5045                           fsr2h	equ	0xFDA
  5046                           fsr2l	equ	0xFD9
  5047                           status	equ	0xFD8
  5048                           
  5049 ;; *************** function i2_interruption_timer2 *****************
  5050 ;; Defined at:
  5051 ;;		line 129 in file "interruptions.c"
  5052 ;; Parameters:    Size  Location     Type
  5053 ;;		None
  5054 ;; Auto vars:     Size  Location     Type
  5055 ;;		None
  5056 ;; Return value:  Size  Location     Type
  5057 ;;		None               void
  5058 ;; Registers used:
  5059 ;;		None
  5060 ;; Tracked objects:
  5061 ;;		On entry : 0/0
  5062 ;;		On exit  : 0/0
  5063 ;;		Unchanged: 0/0
  5064 ;; Data sizes:     COMRAM   BANK0   BANK1   BANK2
  5065 ;;      Params:         0       0       0       0
  5066 ;;      Locals:         0       0       0       0
  5067 ;;      Temps:          0       0       0       0
  5068 ;;      Totals:         0       0       0       0
  5069 ;;Total ram usage:        0 bytes
  5070 ;; Hardware stack levels used:    1
  5071 ;; This function calls:
  5072 ;;		Nothing
  5073 ;; This function is called by:
  5074 ;;		i2_subroutine_interruptions
  5075 ;; This function uses a non-reentrant model
  5076 ;;
  5077                           
  5078                           	psect	text36
  5079  001BC2                     __ptext36:
  5080                           	opt stack 0
  5081  001BC2                     i2_interruption_timer2:
  5082                           	opt stack 18
  5083                           
  5084                           ;interruptions.c: 131: PIR1bits.TMR2IF = 0;
  5085                           
  5086                           ;incstack = 0
  5087  001BC2  929E               	bcf	3998,1,c	;volatile
  5088  001BC4  0012               	return		;funcret
  5089  001BC6                     __end_ofi2_interruption_timer2:
  5090                           	opt stack 0
  5091                           pclatu	equ	0xFFB
  5092                           pclath	equ	0xFFA
  5093                           tblptru	equ	0xFF8
  5094                           tblptrh	equ	0xFF7
  5095                           tblptrl	equ	0xFF6
  5096                           tablat	equ	0xFF5
  5097                           prodh	equ	0xFF4
  5098                           prodl	equ	0xFF3
  5099                           intcon	equ	0xFF2
  5100                           intcon2	equ	0xFF1
  5101                           intcon3	equ	0xFF0
  5102                           postinc0	equ	0xFEE
  5103                           fsr0h	equ	0xFEA
  5104                           fsr0l	equ	0xFE9
  5105                           wreg	equ	0xFE8
  5106                           fsr1h	equ	0xFE2
  5107                           fsr1l	equ	0xFE1
  5108                           bsr	equ	0xFE0
  5109                           indf2	equ	0xFDF
  5110                           postinc2	equ	0xFDE
  5111                           postdec2	equ	0xFDD
  5112                           fsr2h	equ	0xFDA
  5113                           fsr2l	equ	0xFD9
  5114                           status	equ	0xFD8
  5115                           
  5116 ;; *************** function i2_interruption_timer1 *****************
  5117 ;; Defined at:
  5118 ;;		line 112 in file "interruptions.c"
  5119 ;; Parameters:    Size  Location     Type
  5120 ;;		None
  5121 ;; Auto vars:     Size  Location     Type
  5122 ;;		None
  5123 ;; Return value:  Size  Location     Type
  5124 ;;		None               void
  5125 ;; Registers used:
  5126 ;;		wreg, fsr2l, fsr2h, status,2, status,0, prodl, prodh
  5127 ;; Tracked objects:
  5128 ;;		On entry : 0/0
  5129 ;;		On exit  : 0/0
  5130 ;;		Unchanged: 0/0
  5131 ;; Data sizes:     COMRAM   BANK0   BANK1   BANK2
  5132 ;;      Params:         0       0       0       0
  5133 ;;      Locals:         0       0       0       0
  5134 ;;      Temps:          0       1       0       0
  5135 ;;      Totals:         0       1       0       0
  5136 ;;Total ram usage:        1 bytes
  5137 ;; Hardware stack levels used:    1
  5138 ;; This function calls:
  5139 ;;		Nothing
  5140 ;; This function is called by:
  5141 ;;		i2_subroutine_interruptions
  5142 ;; This function uses a non-reentrant model
  5143 ;;
  5144                           
  5145                           	psect	text37
  5146  001842                     __ptext37:
  5147                           	opt stack 0
  5148  001842                     i2_interruption_timer1:
  5149                           	opt stack 18
  5150                           
  5151                           ;interruptions.c: 114: PIR1bits.TMR1IF = 0;
  5152                           
  5153                           ;incstack = 0
  5154  001842  909E               	bcf	3998,0,c	;volatile
  5155                           
  5156                           ;interruptions.c: 115: TMR1 = 65535 - 810;
  5157  001844  0EFC               	movlw	252
  5158  001846  6ECF               	movwf	4047,c	;volatile
  5159  001848  0ED5               	movlw	213
  5160  00184A  6ECE               	movwf	4046,c	;volatile
  5161                           
  5162                           ;interruptions.c: 117: if (uart_logiciel.transmission_en_cours == 1)
  5163  00184C  045A               	decf	_uart_logiciel+11,w,c
  5164  00184E  A4D8               	btfss	status,2,c
  5165  001850  D01B               	goto	i2l320
  5166                           
  5167                           ;interruptions.c: 118: {
  5168                           ;interruptions.c: 119: PORTCbits.RC5 = uart_logiciel.buffer_uart[uart_logiciel.indice];
  5169  001852  505B               	movf	_uart_logiciel+12,w,c
  5170  001854  0D01               	mullw	1
  5171  001856  0E4F               	movlw	low _uart_logiciel
  5172  001858  24F3               	addwf	prodl,w,c
  5173  00185A  6ED9               	movwf	fsr2l,c
  5174  00185C  0E00               	movlw	high _uart_logiciel
  5175  00185E  20F4               	addwfc	prodh,w,c
  5176  001860  6EDA               	movwf	fsr2h,c
  5177  001862  50DF               	movf	indf2,w,c
  5178  001864  0100               	movlb	0	; () banked
  5179  001866  6F60               	movwf	??i2_interruption_timer1& (0+255),b
  5180  001868  0100               	movlb	0	; () banked
  5181  00186A  3B60               	swapf	??i2_interruption_timer1& (0+255),f,b
  5182  00186C  4760               	rlncf	??i2_interruption_timer1& (0+255),f,b
  5183  00186E  5082               	movf	3970,w,c	;volatile
  5184  001870  0100               	movlb	0	; () banked
  5185  001872  1960               	xorwf	??i2_interruption_timer1& (0+255),w,b
  5186  001874  0BDF               	andlw	-33
  5187  001876  1960               	xorwf	??i2_interruption_timer1& (0+255),w,b
  5188  001878  6E82               	movwf	3970,c	;volatile
  5189                           
  5190                           ; BSR set to: 0
  5191                           ;interruptions.c: 120: uart_logiciel.indice++;
  5192  00187A  2A5B               	incf	_uart_logiciel+12,f,c
  5193                           
  5194                           ; BSR set to: 0
  5195                           ;interruptions.c: 122: if (uart_logiciel.indice > 10)
  5196  00187C  0E0A               	movlw	10
  5197  00187E  645B               	cpfsgt	_uart_logiciel+12,c
  5198  001880  D005               	goto	i2l323
  5199                           
  5200                           ; BSR set to: 0
  5201                           ;interruptions.c: 123: uart_logiciel.transmission_en_cours = 0;
  5202  001882  0E00               	movlw	0
  5203  001884  6E5A               	movwf	_uart_logiciel+11,c
  5204                           
  5205                           ; BSR set to: 0
  5206                           ;interruptions.c: 124: }
  5207  001886  D002               	goto	i2l323
  5208  001888                     i2l320:
  5209                           
  5210                           ;interruptions.c: 125: else
  5211                           ;interruptions.c: 126: PORTCbits.RC5 = 1;
  5212  001888  8A82               	bsf	3970,5,c	;volatile
  5213  00188A  D000               	goto	i2l323
  5214  00188C                     i2l323:
  5215  00188C  0012               	return		;funcret
  5216  00188E                     __end_ofi2_interruption_timer1:
  5217                           	opt stack 0
  5218                           pclatu	equ	0xFFB
  5219                           pclath	equ	0xFFA
  5220                           tblptru	equ	0xFF8
  5221                           tblptrh	equ	0xFF7
  5222                           tblptrl	equ	0xFF6
  5223                           tablat	equ	0xFF5
  5224                           prodh	equ	0xFF4
  5225                           prodl	equ	0xFF3
  5226                           intcon	equ	0xFF2
  5227                           intcon2	equ	0xFF1
  5228                           intcon3	equ	0xFF0
  5229                           postinc0	equ	0xFEE
  5230                           fsr0h	equ	0xFEA
  5231                           fsr0l	equ	0xFE9
  5232                           wreg	equ	0xFE8
  5233                           fsr1h	equ	0xFE2
  5234                           fsr1l	equ	0xFE1
  5235                           bsr	equ	0xFE0
  5236                           indf2	equ	0xFDF
  5237                           postinc2	equ	0xFDE
  5238                           postdec2	equ	0xFDD
  5239                           fsr2h	equ	0xFDA
  5240                           fsr2l	equ	0xFD9
  5241                           status	equ	0xFD8
  5242                           
  5243 ;; *************** function i2_interruption_timer0 *****************
  5244 ;; Defined at:
  5245 ;;		line 104 in file "interruptions.c"
  5246 ;; Parameters:    Size  Location     Type
  5247 ;;		None
  5248 ;; Auto vars:     Size  Location     Type
  5249 ;;		None
  5250 ;; Return value:  Size  Location     Type
  5251 ;;		None               void
  5252 ;; Registers used:
  5253 ;;		wreg, fsr2l, fsr2h, status,2, status,0, cstack
  5254 ;; Tracked objects:
  5255 ;;		On entry : 0/0
  5256 ;;		On exit  : 0/0
  5257 ;;		Unchanged: 0/0
  5258 ;; Data sizes:     COMRAM   BANK0   BANK1   BANK2
  5259 ;;      Params:         0       0       0       0
  5260 ;;      Locals:         0       0       0       0
  5261 ;;      Temps:          0       0       0       0
  5262 ;;      Totals:         0       0       0       0
  5263 ;;Total ram usage:        0 bytes
  5264 ;; Hardware stack levels used:    1
  5265 ;; Hardware stack levels required when called:    4
  5266 ;; This function calls:
  5267 ;;		i2_asserv
  5268 ;; This function is called by:
  5269 ;;		i2_subroutine_interruptions
  5270 ;; This function uses a non-reentrant model
  5271 ;;
  5272                           
  5273                           	psect	text38
  5274  001BA2                     __ptext38:
  5275                           	opt stack 0
  5276  001BA2                     i2_interruption_timer0:
  5277                           	opt stack 14
  5278                           
  5279                           ;interruptions.c: 106: INTCONbits.TMR0IF = 0;
  5280                           
  5281                           ;incstack = 0
  5282  001BA2  94F2               	bcf	intcon,2,c	;volatile
  5283                           
  5284                           ;interruptions.c: 107: TMR0L = 131;
  5285  001BA4  0E83               	movlw	131
  5286  001BA6  6ED6               	movwf	4054,c	;volatile
  5287                           
  5288                           ;interruptions.c: 109: asserv();
  5289  001BA8  EC8E  F00C         	call	i2_asserv	;wreg free
  5290  001BAC  0012               	return		;funcret
  5291  001BAE                     __end_ofi2_interruption_timer0:
  5292                           	opt stack 0
  5293                           pclatu	equ	0xFFB
  5294                           pclath	equ	0xFFA
  5295                           tblptru	equ	0xFF8
  5296                           tblptrh	equ	0xFF7
  5297                           tblptrl	equ	0xFF6
  5298                           tablat	equ	0xFF5
  5299                           prodh	equ	0xFF4
  5300                           prodl	equ	0xFF3
  5301                           intcon	equ	0xFF2
  5302                           intcon2	equ	0xFF1
  5303                           intcon3	equ	0xFF0
  5304                           postinc0	equ	0xFEE
  5305                           fsr0h	equ	0xFEA
  5306                           fsr0l	equ	0xFE9
  5307                           wreg	equ	0xFE8
  5308                           fsr1h	equ	0xFE2
  5309                           fsr1l	equ	0xFE1
  5310                           bsr	equ	0xFE0
  5311                           indf2	equ	0xFDF
  5312                           postinc2	equ	0xFDE
  5313                           postdec2	equ	0xFDD
  5314                           fsr2h	equ	0xFDA
  5315                           fsr2l	equ	0xFD9
  5316                           status	equ	0xFD8
  5317                           
  5318 ;; *************** function i2_asserv *****************
  5319 ;; Defined at:
  5320 ;;		line 92 in file "asserv.c"
  5321 ;; Parameters:    Size  Location     Type
  5322 ;;		None
  5323 ;; Auto vars:     Size  Location     Type
  5324 ;;		None
  5325 ;; Return value:  Size  Location     Type
  5326 ;;		None               void
  5327 ;; Registers used:
  5328 ;;		wreg, fsr2l, fsr2h, status,2, status,0, cstack
  5329 ;; Tracked objects:
  5330 ;;		On entry : 0/0
  5331 ;;		On exit  : 0/0
  5332 ;;		Unchanged: 0/0
  5333 ;; Data sizes:     COMRAM   BANK0   BANK1   BANK2
  5334 ;;      Params:         0       0       0       0
  5335 ;;      Locals:         0       0       0       0
  5336 ;;      Temps:          0       0       0       0
  5337 ;;      Totals:         0       0       0       0
  5338 ;;Total ram usage:        0 bytes
  5339 ;; Hardware stack levels used:    1
  5340 ;; Hardware stack levels required when called:    3
  5341 ;; This function calls:
  5342 ;;		i2_ecretage_consignes
  5343 ;;		i2_envoit_pwm
  5344 ;;		i2_fonction_PID
  5345 ;; This function is called by:
  5346 ;;		i2_interruption_timer0
  5347 ;; This function uses a non-reentrant model
  5348 ;;
  5349                           
  5350                           	psect	text39
  5351  00191C                     __ptext39:
  5352                           	opt stack 0
  5353  00191C                     i2_asserv:
  5354                           	opt stack 14
  5355                           
  5356                           ;asserv.c: 94: static double commande = 0;
  5357                           ;asserv.c: 96: VITESSE.consigne = 0.00005;
  5358                           
  5359                           ;incstack = 0
  5360  00191C  0EB7               	movlw	183
  5361  00191E  6E48               	movwf	_VITESSE,c
  5362  001920  0E51               	movlw	81
  5363  001922  6E49               	movwf	_VITESSE+1,c
  5364  001924  0E38               	movlw	56
  5365  001926  6E4A               	movwf	_VITESSE+2,c
  5366                           
  5367                           ;asserv.c: 98: commande = fonction_PID();
  5368  001928  EC5E  F004         	call	i2_fonction_PID	;wreg free
  5369  00192C  C083  F05C         	movff	?i2_fonction_PID,asserv@commande
  5370  001930  C084  F05D         	movff	?i2_fonction_PID+1,asserv@commande+1
  5371  001934  C085  F05E         	movff	?i2_fonction_PID+2,asserv@commande+2
  5372                           
  5373                           ;asserv.c: 99: ecretage_consignes(&commande);
  5374  001938  0E5C               	movlw	low asserv@commande
  5375  00193A  0100               	movlb	0	; () banked
  5376  00193C  6F69               	movwf	i2ecretage_consignes@commande& (0+255),b
  5377  00193E  0E00               	movlw	high asserv@commande
  5378  001940  0100               	movlb	0	; () banked
  5379  001942  6F6A               	movwf	(i2ecretage_consignes@commande+1)& (0+255),b
  5380  001944  EC4E  F00A         	call	i2_ecretage_consignes	;wreg free
  5381                           
  5382                           ;asserv.c: 100: envoit_pwm(commande);
  5383  001948  C05C  F077         	movff	asserv@commande,i2envoit_pwm@valeur
  5384  00194C  C05D  F078         	movff	asserv@commande+1,i2envoit_pwm@valeur+1
  5385  001950  C05E  F079         	movff	asserv@commande+2,i2envoit_pwm@valeur+2
  5386  001954  ECD2  F007         	call	i2_envoit_pwm	;wreg free
  5387  001958  0012               	return		;funcret
  5388  00195A                     __end_ofi2_asserv:
  5389                           	opt stack 0
  5390                           pclatu	equ	0xFFB
  5391                           pclath	equ	0xFFA
  5392                           tblptru	equ	0xFF8
  5393                           tblptrh	equ	0xFF7
  5394                           tblptrl	equ	0xFF6
  5395                           tablat	equ	0xFF5
  5396                           prodh	equ	0xFF4
  5397                           prodl	equ	0xFF3
  5398                           intcon	equ	0xFF2
  5399                           intcon2	equ	0xFF1
  5400                           intcon3	equ	0xFF0
  5401                           postinc0	equ	0xFEE
  5402                           fsr0h	equ	0xFEA
  5403                           fsr0l	equ	0xFE9
  5404                           wreg	equ	0xFE8
  5405                           fsr1h	equ	0xFE2
  5406                           fsr1l	equ	0xFE1
  5407                           bsr	equ	0xFE0
  5408                           indf2	equ	0xFDF
  5409                           postinc2	equ	0xFDE
  5410                           postdec2	equ	0xFDD
  5411                           fsr2h	equ	0xFDA
  5412                           fsr2l	equ	0xFD9
  5413                           status	equ	0xFD8
  5414                           
  5415 ;; *************** function i2_fonction_PID *****************
  5416 ;; Defined at:
  5417 ;;		line 72 in file "asserv.c"
  5418 ;; Parameters:    Size  Location     Type
  5419 ;;		None
  5420 ;; Auto vars:     Size  Location     Type
  5421 ;;		None
  5422 ;; Return value:  Size  Location     Type
  5423 ;;                  3   35[BANK0 ] unsigned char 
  5424 ;; Registers used:
  5425 ;;		wreg, status,2, status,0, cstack
  5426 ;; Tracked objects:
  5427 ;;		On entry : 0/0
  5428 ;;		On exit  : 0/0
  5429 ;;		Unchanged: 0/0
  5430 ;; Data sizes:     COMRAM   BANK0   BANK1   BANK2
  5431 ;;      Params:         0       3       0       0
  5432 ;;      Locals:         0       6       0       0
  5433 ;;      Temps:          0       0       0       0
  5434 ;;      Totals:         0       9       0       0
  5435 ;;Total ram usage:        9 bytes
  5436 ;; Hardware stack levels used:    1
  5437 ;; Hardware stack levels required when called:    2
  5438 ;; This function calls:
  5439 ;;		i2___ftadd
  5440 ;;		i2___ftmul
  5441 ;;		i2___ftneg
  5442 ;;		i2_saturation_erreur_integralle_vitesse
  5443 ;; This function is called by:
  5444 ;;		i2_asserv
  5445 ;; This function uses a non-reentrant model
  5446 ;;
  5447                           
  5448                           	psect	text40
  5449  0008BC                     __ptext40:
  5450                           	opt stack 0
  5451  0008BC                     i2_fonction_PID:
  5452                           	opt stack 14
  5453                           
  5454                           ;asserv.c: 74: static double commande;
  5455                           ;asserv.c: 75: ERREUR_VITESSE.actuelle = VITESSE.consigne - VITESSE.actuelle;
  5456                           
  5457                           ;incstack = 0
  5458  0008BC  C04B  F060         	movff	_VITESSE+3,i2___ftneg@f1
  5459  0008C0  C04C  F061         	movff	_VITESSE+4,i2___ftneg@f1+1
  5460  0008C4  C04D  F062         	movff	_VITESSE+5,i2___ftneg@f1+2
  5461  0008C8  EC22  F00D         	call	i2___ftneg	;wreg free
  5462  0008CC  C060  F077         	movff	?i2___ftneg,i2___ftadd@f1
  5463  0008D0  C061  F078         	movff	?i2___ftneg+1,i2___ftadd@f1+1
  5464  0008D4  C062  F079         	movff	?i2___ftneg+2,i2___ftadd@f1+2
  5465  0008D8  C048  F07A         	movff	_VITESSE,i2___ftadd@f2
  5466  0008DC  C049  F07B         	movff	_VITESSE+1,i2___ftadd@f2+1
  5467  0008E0  C04A  F07C         	movff	_VITESSE+2,i2___ftadd@f2+2
  5468  0008E4  EC8F  F001         	call	i2___ftadd	;wreg free
  5469  0008E8  C077  F03F         	movff	?i2___ftadd,_ERREUR_VITESSE
  5470  0008EC  C078  F040         	movff	?i2___ftadd+1,_ERREUR_VITESSE+1
  5471  0008F0  C079  F041         	movff	?i2___ftadd+2,_ERREUR_VITESSE+2
  5472                           
  5473                           ;asserv.c: 76: ERREUR_VITESSE.integralle += ERREUR_VITESSE.actuelle;
  5474  0008F4  C042  F077         	movff	_ERREUR_VITESSE+3,i2___ftadd@f1
  5475  0008F8  C043  F078         	movff	_ERREUR_VITESSE+4,i2___ftadd@f1+1
  5476  0008FC  C044  F079         	movff	_ERREUR_VITESSE+5,i2___ftadd@f1+2
  5477  000900  C03F  F07A         	movff	_ERREUR_VITESSE,i2___ftadd@f2
  5478  000904  C040  F07B         	movff	_ERREUR_VITESSE+1,i2___ftadd@f2+1
  5479  000908  C041  F07C         	movff	_ERREUR_VITESSE+2,i2___ftadd@f2+2
  5480  00090C  EC8F  F001         	call	i2___ftadd	;wreg free
  5481  000910  C077  F042         	movff	?i2___ftadd,_ERREUR_VITESSE+3
  5482  000914  C078  F043         	movff	?i2___ftadd+1,_ERREUR_VITESSE+4
  5483  000918  C079  F044         	movff	?i2___ftadd+2,_ERREUR_VITESSE+5
  5484                           
  5485                           ;asserv.c: 78: saturation_erreur_integralle_vitesse();
  5486  00091C  EC8E  F00B         	call	i2_saturation_erreur_integralle_vitesse	;wreg free
  5487                           
  5488                           ;asserv.c: 81: commande = ERREUR_VITESSE.actuelle * PID.KP + ERREUR_VITESSE.integralle *
      +                           PID.KI + (ERREUR_VITESSE.actuelle - ERREUR_VITESSE.precedente ) * PID.KD;
  5489  000920  C0B0  F06B         	movff	_PID+3,i2___ftmul@f2
  5490  000924  C0B1  F06C         	movff	_PID+4,i2___ftmul@f2+1
  5491  000928  C0B2  F06D         	movff	_PID+5,i2___ftmul@f2+2
  5492  00092C  C042  F068         	movff	_ERREUR_VITESSE+3,i2___ftmul@f1
  5493  000930  C043  F069         	movff	_ERREUR_VITESSE+4,i2___ftmul@f1+1
  5494  000934  C044  F06A         	movff	_ERREUR_VITESSE+5,i2___ftmul@f1+2
  5495  000938  EC0C  F005         	call	i2___ftmul	;wreg free
  5496  00093C  C068  F07A         	movff	?i2___ftmul,i2___ftadd@f2
  5497  000940  C069  F07B         	movff	?i2___ftmul+1,i2___ftadd@f2+1
  5498  000944  C06A  F07C         	movff	?i2___ftmul+2,i2___ftadd@f2+2
  5499  000948  C0AD  F06B         	movff	_PID,i2___ftmul@f2
  5500  00094C  C0AE  F06C         	movff	_PID+1,i2___ftmul@f2+1
  5501  000950  C0AF  F06D         	movff	_PID+2,i2___ftmul@f2+2
  5502  000954  C03F  F068         	movff	_ERREUR_VITESSE,i2___ftmul@f1
  5503  000958  C040  F069         	movff	_ERREUR_VITESSE+1,i2___ftmul@f1+1
  5504  00095C  C041  F06A         	movff	_ERREUR_VITESSE+2,i2___ftmul@f1+2
  5505  000960  EC0C  F005         	call	i2___ftmul	;wreg free
  5506  000964  C068  F077         	movff	?i2___ftmul,i2___ftadd@f1
  5507  000968  C069  F078         	movff	?i2___ftmul+1,i2___ftadd@f1+1
  5508  00096C  C06A  F079         	movff	?i2___ftmul+2,i2___ftadd@f1+2
  5509  000970  EC8F  F001         	call	i2___ftadd	;wreg free
  5510  000974  C077  F086         	movff	?i2___ftadd,i2_fonction_PID$2888
  5511  000978  C078  F087         	movff	?i2___ftadd+1,i2_fonction_PID$2888+1
  5512  00097C  C079  F088         	movff	?i2___ftadd+2,i2_fonction_PID$2888+2
  5513                           
  5514                           ;asserv.c: 81: commande = ERREUR_VITESSE.actuelle * PID.KP + ERREUR_VITESSE.integralle *
      +                           PID.KI + (ERREUR_VITESSE.actuelle - ERREUR_VITESSE.precedente ) * PID.KD;
  5515  000980  C0B3  F06B         	movff	_PID+6,i2___ftmul@f2
  5516  000984  C0B4  F06C         	movff	_PID+7,i2___ftmul@f2+1
  5517  000988  C0B5  F06D         	movff	_PID+8,i2___ftmul@f2+2
  5518  00098C  C03F  F07A         	movff	_ERREUR_VITESSE,i2___ftadd@f2
  5519  000990  C040  F07B         	movff	_ERREUR_VITESSE+1,i2___ftadd@f2+1
  5520  000994  C041  F07C         	movff	_ERREUR_VITESSE+2,i2___ftadd@f2+2
  5521  000998  C045  F060         	movff	_ERREUR_VITESSE+6,i2___ftneg@f1
  5522  00099C  C046  F061         	movff	_ERREUR_VITESSE+7,i2___ftneg@f1+1
  5523  0009A0  C047  F062         	movff	_ERREUR_VITESSE+8,i2___ftneg@f1+2
  5524  0009A4  EC22  F00D         	call	i2___ftneg	;wreg free
  5525  0009A8  C060  F077         	movff	?i2___ftneg,i2___ftadd@f1
  5526  0009AC  C061  F078         	movff	?i2___ftneg+1,i2___ftadd@f1+1
  5527  0009B0  C062  F079         	movff	?i2___ftneg+2,i2___ftadd@f1+2
  5528  0009B4  EC8F  F001         	call	i2___ftadd	;wreg free
  5529  0009B8  C077  F068         	movff	?i2___ftadd,i2___ftmul@f1
  5530  0009BC  C078  F069         	movff	?i2___ftadd+1,i2___ftmul@f1+1
  5531  0009C0  C079  F06A         	movff	?i2___ftadd+2,i2___ftmul@f1+2
  5532  0009C4  EC0C  F005         	call	i2___ftmul	;wreg free
  5533  0009C8  C068  F089         	movff	?i2___ftmul,i2_fonction_PID$2889
  5534  0009CC  C069  F08A         	movff	?i2___ftmul+1,i2_fonction_PID$2889+1
  5535  0009D0  C06A  F08B         	movff	?i2___ftmul+2,i2_fonction_PID$2889+2
  5536                           
  5537                           ;asserv.c: 81: commande = ERREUR_VITESSE.actuelle * PID.KP + ERREUR_VITESSE.integralle *
      +                           PID.KI + (ERREUR_VITESSE.actuelle - ERREUR_VITESSE.precedente ) * PID.KD;
  5538  0009D4  C086  F077         	movff	i2_fonction_PID$2888,i2___ftadd@f1
  5539  0009D8  C087  F078         	movff	i2_fonction_PID$2888+1,i2___ftadd@f1+1
  5540  0009DC  C088  F079         	movff	i2_fonction_PID$2888+2,i2___ftadd@f1+2
  5541  0009E0  C089  F07A         	movff	i2_fonction_PID$2889,i2___ftadd@f2
  5542  0009E4  C08A  F07B         	movff	i2_fonction_PID$2889+1,i2___ftadd@f2+1
  5543  0009E8  C08B  F07C         	movff	i2_fonction_PID$2889+2,i2___ftadd@f2+2
  5544  0009EC  EC8F  F001         	call	i2___ftadd	;wreg free
  5545  0009F0  C077  F0BA         	movff	?i2___ftadd,fonction_PID@commande
  5546  0009F4  C078  F0BB         	movff	?i2___ftadd+1,fonction_PID@commande+1
  5547  0009F8  C079  F0BC         	movff	?i2___ftadd+2,fonction_PID@commande+2
  5548                           
  5549                           ;asserv.c: 83: ERREUR_VITESSE.precedente = ERREUR_VITESSE.actuelle;
  5550  0009FC  C03F  F045         	movff	_ERREUR_VITESSE,_ERREUR_VITESSE+6
  5551  000A00  C040  F046         	movff	_ERREUR_VITESSE+1,_ERREUR_VITESSE+7
  5552  000A04  C041  F047         	movff	_ERREUR_VITESSE+2,_ERREUR_VITESSE+8
  5553                           
  5554                           ;asserv.c: 85: return commande;
  5555  000A08  C0BA  F083         	movff	fonction_PID@commande,?i2_fonction_PID
  5556  000A0C  C0BB  F084         	movff	fonction_PID@commande+1,?i2_fonction_PID+1
  5557  000A10  C0BC  F085         	movff	fonction_PID@commande+2,?i2_fonction_PID+2
  5558  000A14  D000               	goto	i2l469
  5559  000A16                     i2l469:
  5560  000A16  0012               	return		;funcret
  5561  000A18                     __end_ofi2_fonction_PID:
  5562                           	opt stack 0
  5563                           pclatu	equ	0xFFB
  5564                           pclath	equ	0xFFA
  5565                           tblptru	equ	0xFF8
  5566                           tblptrh	equ	0xFF7
  5567                           tblptrl	equ	0xFF6
  5568                           tablat	equ	0xFF5
  5569                           prodh	equ	0xFF4
  5570                           prodl	equ	0xFF3
  5571                           intcon	equ	0xFF2
  5572                           intcon2	equ	0xFF1
  5573                           intcon3	equ	0xFF0
  5574                           postinc0	equ	0xFEE
  5575                           fsr0h	equ	0xFEA
  5576                           fsr0l	equ	0xFE9
  5577                           wreg	equ	0xFE8
  5578                           fsr1h	equ	0xFE2
  5579                           fsr1l	equ	0xFE1
  5580                           bsr	equ	0xFE0
  5581                           indf2	equ	0xFDF
  5582                           postinc2	equ	0xFDE
  5583                           postdec2	equ	0xFDD
  5584                           fsr2h	equ	0xFDA
  5585                           fsr2l	equ	0xFD9
  5586                           status	equ	0xFD8
  5587                           
  5588 ;; *************** function i2_saturation_erreur_integralle_vitesse *****************
  5589 ;; Defined at:
  5590 ;;		line 52 in file "asserv.c"
  5591 ;; Parameters:    Size  Location     Type
  5592 ;;		None
  5593 ;; Auto vars:     Size  Location     Type
  5594 ;;		None
  5595 ;; Return value:  Size  Location     Type
  5596 ;;		None               void
  5597 ;; Registers used:
  5598 ;;		wreg, status,2, status,0, cstack
  5599 ;; Tracked objects:
  5600 ;;		On entry : 0/0
  5601 ;;		On exit  : 0/0
  5602 ;;		Unchanged: 0/0
  5603 ;; Data sizes:     COMRAM   BANK0   BANK1   BANK2
  5604 ;;      Params:         0       0       0       0
  5605 ;;      Locals:         0       0       0       0
  5606 ;;      Temps:          0       0       0       0
  5607 ;;      Totals:         0       0       0       0
  5608 ;;Total ram usage:        0 bytes
  5609 ;; Hardware stack levels used:    1
  5610 ;; Hardware stack levels required when called:    1
  5611 ;; This function calls:
  5612 ;;		i2___ftge
  5613 ;; This function is called by:
  5614 ;;		i2_fonction_PID
  5615 ;; This function uses a non-reentrant model
  5616 ;;
  5617                           
  5618                           	psect	text41
  5619  00171C                     __ptext41:
  5620                           	opt stack 0
  5621  00171C                     i2_saturation_erreur_integralle_vitesse:
  5622                           	opt stack 14
  5623                           
  5624                           ;asserv.c: 54: if (ERREUR_VITESSE.integralle > 1000.)
  5625                           
  5626                           ;incstack = 0
  5627  00171C  0E00               	movlw	0
  5628  00171E  0100               	movlb	0	; () banked
  5629  001720  6F60               	movwf	i2___ftge@ff1& (0+255),b
  5630  001722  0E7A               	movlw	122
  5631  001724  0100               	movlb	0	; () banked
  5632  001726  6F61               	movwf	(i2___ftge@ff1+1)& (0+255),b
  5633  001728  0E44               	movlw	68
  5634  00172A  0100               	movlb	0	; () banked
  5635  00172C  6F62               	movwf	(i2___ftge@ff1+2)& (0+255),b
  5636  00172E  C042  F063         	movff	_ERREUR_VITESSE+3,i2___ftge@ff2
  5637  001732  C043  F064         	movff	_ERREUR_VITESSE+4,i2___ftge@ff2+1
  5638  001736  C044  F065         	movff	_ERREUR_VITESSE+5,i2___ftge@ff2+2
  5639  00173A  EC43  F008         	call	i2___ftge	;wreg free
  5640  00173E  0100               	movlb	0	; () banked
  5641  001740  B0D8               	btfsc	status,0,c
  5642  001742  D006               	goto	i2l2347
  5643                           
  5644                           ; BSR set to: 0
  5645                           ;asserv.c: 55: ERREUR_VITESSE.integralle = 1000.;
  5646  001744  0E00               	movlw	0
  5647  001746  6E42               	movwf	_ERREUR_VITESSE+3,c
  5648  001748  0E7A               	movlw	122
  5649  00174A  6E43               	movwf	_ERREUR_VITESSE+4,c
  5650  00174C  0E44               	movlw	68
  5651  00174E  D019               	goto	L3
  5652  001750                     i2l2347:
  5653                           
  5654                           ; BSR set to: 0
  5655                           ;asserv.c: 56: else if (ERREUR_VITESSE.integralle < - 1000.)
  5656  001750  C042  F060         	movff	_ERREUR_VITESSE+3,i2___ftge@ff1
  5657  001754  C043  F061         	movff	_ERREUR_VITESSE+4,i2___ftge@ff1+1
  5658  001758  C044  F062         	movff	_ERREUR_VITESSE+5,i2___ftge@ff1+2
  5659  00175C  0E00               	movlw	0
  5660  00175E  0100               	movlb	0	; () banked
  5661  001760  6F63               	movwf	i2___ftge@ff2& (0+255),b
  5662  001762  0E7A               	movlw	122
  5663  001764  0100               	movlb	0	; () banked
  5664  001766  6F64               	movwf	(i2___ftge@ff2+1)& (0+255),b
  5665  001768  0EC4               	movlw	196
  5666  00176A  0100               	movlb	0	; () banked
  5667  00176C  6F65               	movwf	(i2___ftge@ff2+2)& (0+255),b
  5668  00176E  EC43  F008         	call	i2___ftge	;wreg free
  5669  001772  0100               	movlb	0	; () banked
  5670  001774  B0D8               	btfsc	status,0,c
  5671  001776  D007               	goto	i2l461
  5672                           
  5673                           ; BSR set to: 0
  5674                           ;asserv.c: 57: ERREUR_VITESSE.integralle = - 1000.;
  5675  001778  0E00               	movlw	0
  5676  00177A  6E42               	movwf	_ERREUR_VITESSE+3,c
  5677  00177C  0E7A               	movlw	122
  5678  00177E  6E43               	movwf	_ERREUR_VITESSE+4,c
  5679  001780  0EC4               	movlw	196
  5680  001782                     L3:
  5681  001782  6E44               	movwf	_ERREUR_VITESSE+5,c
  5682                           
  5683                           ; BSR set to: 0
  5684  001784  D000               	goto	i2l461
  5685  001786                     i2l461:
  5686                           
  5687                           ; BSR set to: 0
  5688  001786  0012               	return		;funcret
  5689  001788                     __end_ofi2_saturation_erreur_integralle_vitesse:
  5690                           	opt stack 0
  5691                           pclatu	equ	0xFFB
  5692                           pclath	equ	0xFFA
  5693                           tblptru	equ	0xFF8
  5694                           tblptrh	equ	0xFF7
  5695                           tblptrl	equ	0xFF6
  5696                           tablat	equ	0xFF5
  5697                           prodh	equ	0xFF4
  5698                           prodl	equ	0xFF3
  5699                           intcon	equ	0xFF2
  5700                           intcon2	equ	0xFF1
  5701                           intcon3	equ	0xFF0
  5702                           postinc0	equ	0xFEE
  5703                           fsr0h	equ	0xFEA
  5704                           fsr0l	equ	0xFE9
  5705                           wreg	equ	0xFE8
  5706                           fsr1h	equ	0xFE2
  5707                           fsr1l	equ	0xFE1
  5708                           bsr	equ	0xFE0
  5709                           indf2	equ	0xFDF
  5710                           postinc2	equ	0xFDE
  5711                           postdec2	equ	0xFDD
  5712                           fsr2h	equ	0xFDA
  5713                           fsr2l	equ	0xFD9
  5714                           status	equ	0xFD8
  5715                           
  5716 ;; *************** function i2___ftadd *****************
  5717 ;; Defined at:
  5718 ;;		line 86 in file "C:\Program Files (x86)\Microchip\xc8\v1.34\sources\common\ftadd.c"
  5719 ;; Parameters:    Size  Location     Type
  5720 ;;  f1              3   23[BANK0 ] float 
  5721 ;;  f2              3   26[BANK0 ] float 
  5722 ;; Auto vars:     Size  Location     Type
  5723 ;;  __ftadd         1   34[BANK0 ] unsigned char 
  5724 ;;  __ftadd         1   33[BANK0 ] unsigned char 
  5725 ;;  __ftadd         1   32[BANK0 ] unsigned char 
  5726 ;; Return value:  Size  Location     Type
  5727 ;;                  3   23[BANK0 ] float 
  5728 ;; Registers used:
  5729 ;;		wreg, status,2, status,0, cstack
  5730 ;; Tracked objects:
  5731 ;;		On entry : 0/0
  5732 ;;		On exit  : 0/0
  5733 ;;		Unchanged: 0/0
  5734 ;; Data sizes:     COMRAM   BANK0   BANK1   BANK2
  5735 ;;      Params:         0       6       0       0
  5736 ;;      Locals:         0       3       0       0
  5737 ;;      Temps:          0       3       0       0
  5738 ;;      Totals:         0      12       0       0
  5739 ;;Total ram usage:       12 bytes
  5740 ;; Hardware stack levels used:    1
  5741 ;; Hardware stack levels required when called:    1
  5742 ;; This function calls:
  5743 ;;		i2___ftpack
  5744 ;; This function is called by:
  5745 ;;		i2_fonction_PID
  5746 ;; This function uses a non-reentrant model
  5747 ;;
  5748                           
  5749                           	psect	text42
  5750  00031E                     __ptext42:
  5751                           	opt stack 0
  5752  00031E                     i2___ftadd:
  5753                           	opt stack 14
  5754                           
  5755                           ; BSR set to: 0
  5756                           ;incstack = 0
  5757  00031E  C079  F07D         	movff	i2___ftadd@f1+2,??i2___ftadd
  5758  000322  0100               	movlb	0	; () banked
  5759  000324  6B7E               	clrf	(??i2___ftadd+1)& (0+255),b
  5760  000326  6B7F               	clrf	(??i2___ftadd+2)& (0+255),b
  5761  000328  0100               	movlb	0	; () banked
  5762  00032A  3578               	rlcf	(i2___ftadd@f1+1)& (0+255),w,b
  5763  00032C  0100               	movlb	0	; () banked
  5764  00032E  377D               	rlcf	??i2___ftadd& (0+255),f,b
  5765  000330  E301               	bnc	u216_41
  5766  000332  817E               	bsf	(??i2___ftadd+1)& (0+255),0,b
  5767  000334                     u216_41:
  5768  000334  0100               	movlb	0	; () banked
  5769  000336  517D               	movf	??i2___ftadd& (0+255),w,b
  5770  000338  0100               	movlb	0	; () banked
  5771  00033A  6F82               	movwf	i2___ftadd@exp1& (0+255),b
  5772  00033C  C07C  F07D         	movff	i2___ftadd@f2+2,??i2___ftadd
  5773  000340  0100               	movlb	0	; () banked
  5774  000342  6B7E               	clrf	(??i2___ftadd+1)& (0+255),b
  5775  000344  6B7F               	clrf	(??i2___ftadd+2)& (0+255),b
  5776  000346  0100               	movlb	0	; () banked
  5777  000348  357B               	rlcf	(i2___ftadd@f2+1)& (0+255),w,b
  5778  00034A  0100               	movlb	0	; () banked
  5779  00034C  377D               	rlcf	??i2___ftadd& (0+255),f,b
  5780  00034E  E301               	bnc	u217_41
  5781  000350  817E               	bsf	(??i2___ftadd+1)& (0+255),0,b
  5782  000352                     u217_41:
  5783  000352  0100               	movlb	0	; () banked
  5784  000354  517D               	movf	??i2___ftadd& (0+255),w,b
  5785  000356  0100               	movlb	0	; () banked
  5786  000358  6F81               	movwf	i2___ftadd@exp2& (0+255),b
  5787                           
  5788                           ; BSR set to: 0
  5789  00035A  0100               	movlb	0	; () banked
  5790  00035C  5182               	movf	i2___ftadd@exp1& (0+255),w,b
  5791  00035E  0100               	movlb	0	; () banked
  5792  000360  B4D8               	btfsc	status,2,c
  5793  000362  D011               	goto	i2l828
  5794                           
  5795                           ; BSR set to: 0
  5796  000364  0100               	movlb	0	; () banked
  5797  000366  5181               	movf	i2___ftadd@exp2& (0+255),w,b
  5798  000368  0100               	movlb	0	; () banked
  5799  00036A  5D82               	subwf	i2___ftadd@exp1& (0+255),w,b
  5800  00036C  B0D8               	btfsc	status,0,c
  5801  00036E  D012               	goto	i2l2359
  5802                           
  5803                           ; BSR set to: 0
  5804  000370  0100               	movlb	0	; () banked
  5805  000372  5182               	movf	i2___ftadd@exp1& (0+255),w,b
  5806  000374  0800               	sublw	0
  5807  000376  0100               	movlb	0	; () banked
  5808  000378  2581               	addwf	i2___ftadd@exp2& (0+255),w,b
  5809  00037A  0100               	movlb	0	; () banked
  5810  00037C  6F7D               	movwf	??i2___ftadd& (0+255),b
  5811  00037E  0E18               	movlw	24
  5812  000380  0100               	movlb	0	; () banked
  5813  000382  657D               	cpfsgt	??i2___ftadd& (0+255),b
  5814  000384  D007               	goto	i2l2359
  5815  000386                     i2l828:
  5816                           
  5817                           ; BSR set to: 0
  5818  000386  C07A  F077         	movff	i2___ftadd@f2,?i2___ftadd
  5819  00038A  C07B  F078         	movff	i2___ftadd@f2+1,?i2___ftadd+1
  5820  00038E  C07C  F079         	movff	i2___ftadd@f2+2,?i2___ftadd+2
  5821  000392  D103               	goto	i2l829
  5822  000394                     i2l2359:
  5823                           
  5824                           ; BSR set to: 0
  5825  000394  0100               	movlb	0	; () banked
  5826  000396  5181               	movf	i2___ftadd@exp2& (0+255),w,b
  5827  000398  0100               	movlb	0	; () banked
  5828  00039A  B4D8               	btfsc	status,2,c
  5829  00039C  D011               	goto	i2l832
  5830                           
  5831                           ; BSR set to: 0
  5832  00039E  0100               	movlb	0	; () banked
  5833  0003A0  5182               	movf	i2___ftadd@exp1& (0+255),w,b
  5834  0003A2  0100               	movlb	0	; () banked
  5835  0003A4  5D81               	subwf	i2___ftadd@exp2& (0+255),w,b
  5836  0003A6  B0D8               	btfsc	status,0,c
  5837  0003A8  D012               	goto	i2l2365
  5838                           
  5839                           ; BSR set to: 0
  5840  0003AA  0100               	movlb	0	; () banked
  5841  0003AC  5181               	movf	i2___ftadd@exp2& (0+255),w,b
  5842  0003AE  0800               	sublw	0
  5843  0003B0  0100               	movlb	0	; () banked
  5844  0003B2  2582               	addwf	i2___ftadd@exp1& (0+255),w,b
  5845  0003B4  0100               	movlb	0	; () banked
  5846  0003B6  6F7D               	movwf	??i2___ftadd& (0+255),b
  5847  0003B8  0E18               	movlw	24
  5848  0003BA  0100               	movlb	0	; () banked
  5849  0003BC  657D               	cpfsgt	??i2___ftadd& (0+255),b
  5850  0003BE  D007               	goto	i2l2365
  5851  0003C0                     i2l832:
  5852                           
  5853                           ; BSR set to: 0
  5854  0003C0  C077  F077         	movff	i2___ftadd@f1,?i2___ftadd
  5855  0003C4  C078  F078         	movff	i2___ftadd@f1+1,?i2___ftadd+1
  5856  0003C8  C079  F079         	movff	i2___ftadd@f1+2,?i2___ftadd+2
  5857  0003CC  D0E6               	goto	i2l829
  5858  0003CE                     i2l2365:
  5859                           
  5860                           ; BSR set to: 0
  5861  0003CE  0E06               	movlw	6
  5862  0003D0  0100               	movlb	0	; () banked
  5863  0003D2  6F80               	movwf	i2___ftadd@sign& (0+255),b
  5864                           
  5865                           ; BSR set to: 0
  5866  0003D4  0100               	movlb	0	; () banked
  5867  0003D6  AF79               	btfss	(i2___ftadd@f1+2)& (0+255),7,b
  5868  0003D8  D003               	goto	i2l2371
  5869                           
  5870                           ; BSR set to: 0
  5871  0003DA  0100               	movlb	0	; () banked
  5872  0003DC  8F80               	bsf	i2___ftadd@sign& (0+255),7,b
  5873  0003DE  D000               	goto	i2l2371
  5874  0003E0                     i2l2371:
  5875                           
  5876                           ; BSR set to: 0
  5877  0003E0  0100               	movlb	0	; () banked
  5878  0003E2  AF7C               	btfss	(i2___ftadd@f2+2)& (0+255),7,b
  5879  0003E4  D002               	goto	i2l834
  5880                           
  5881                           ; BSR set to: 0
  5882  0003E6  0100               	movlb	0	; () banked
  5883  0003E8  8D80               	bsf	i2___ftadd@sign& (0+255),6,b
  5884  0003EA                     i2l834:
  5885                           
  5886                           ; BSR set to: 0
  5887  0003EA  0100               	movlb	0	; () banked
  5888  0003EC  8F78               	bsf	(i2___ftadd@f1+1)& (0+255),7,b
  5889                           
  5890                           ; BSR set to: 0
  5891  0003EE  0EFF               	movlw	255
  5892  0003F0  0100               	movlb	0	; () banked
  5893  0003F2  1777               	andwf	i2___ftadd@f1& (0+255),f,b
  5894  0003F4  0EFF               	movlw	255
  5895  0003F6  0100               	movlb	0	; () banked
  5896  0003F8  1778               	andwf	(i2___ftadd@f1+1)& (0+255),f,b
  5897  0003FA  0E00               	movlw	0
  5898  0003FC  0100               	movlb	0	; () banked
  5899  0003FE  1779               	andwf	(i2___ftadd@f1+2)& (0+255),f,b
  5900  000400  0100               	movlb	0	; () banked
  5901  000402  8F7B               	bsf	(i2___ftadd@f2+1)& (0+255),7,b
  5902                           
  5903                           ; BSR set to: 0
  5904  000404  0EFF               	movlw	255
  5905  000406  0100               	movlb	0	; () banked
  5906  000408  177A               	andwf	i2___ftadd@f2& (0+255),f,b
  5907  00040A  0EFF               	movlw	255
  5908  00040C  0100               	movlb	0	; () banked
  5909  00040E  177B               	andwf	(i2___ftadd@f2+1)& (0+255),f,b
  5910  000410  0E00               	movlw	0
  5911  000412  0100               	movlb	0	; () banked
  5912  000414  177C               	andwf	(i2___ftadd@f2+2)& (0+255),f,b
  5913                           
  5914                           ; BSR set to: 0
  5915  000416  0100               	movlb	0	; () banked
  5916  000418  5181               	movf	i2___ftadd@exp2& (0+255),w,b
  5917  00041A  0100               	movlb	0	; () banked
  5918  00041C  5D82               	subwf	i2___ftadd@exp1& (0+255),w,b
  5919  00041E  B0D8               	btfsc	status,0,c
  5920  000420  D028               	goto	i2l2391
  5921  000422                     i2l2381:
  5922                           
  5923                           ; BSR set to: 0
  5924  000422  0100               	movlb	0	; () banked
  5925  000424  90D8               	bcf	status,0,c
  5926  000426  377A               	rlcf	i2___ftadd@f2& (0+255),f,b
  5927  000428  377B               	rlcf	(i2___ftadd@f2+1)& (0+255),f,b
  5928  00042A  377C               	rlcf	(i2___ftadd@f2+2)& (0+255),f,b
  5929  00042C  0100               	movlb	0	; () banked
  5930  00042E  0781               	decf	i2___ftadd@exp2& (0+255),f,b
  5931                           
  5932                           ; BSR set to: 0
  5933  000430  0100               	movlb	0	; () banked
  5934  000432  5182               	movf	i2___ftadd@exp1& (0+255),w,b
  5935  000434  0100               	movlb	0	; () banked
  5936  000436  1981               	xorwf	i2___ftadd@exp2& (0+255),w,b
  5937  000438  B4D8               	btfsc	status,2,c
  5938  00043A  D013               	goto	i2l2389
  5939                           
  5940                           ; BSR set to: 0
  5941  00043C  0100               	movlb	0	; () banked
  5942  00043E  0780               	decf	i2___ftadd@sign& (0+255),f,b
  5943  000440  C080  F07D         	movff	i2___ftadd@sign,??i2___ftadd
  5944  000444  0E07               	movlw	7
  5945  000446  0100               	movlb	0	; () banked
  5946  000448  177D               	andwf	??i2___ftadd& (0+255),f,b
  5947  00044A  B4D8               	btfsc	status,2,c
  5948  00044C  D00A               	goto	i2l2389
  5949  00044E  D7E9               	goto	i2l2381
  5950                           
  5951                           ; BSR set to: 0
  5952                           
  5953                           ; BSR set to: 0
  5954  000450  D008               	goto	i2l2389
  5955  000452                     i2l2387:
  5956                           
  5957                           ; BSR set to: 0
  5958  000452  0100               	movlb	0	; () banked
  5959  000454  90D8               	bcf	status,0,c
  5960  000456  3379               	rrcf	(i2___ftadd@f1+2)& (0+255),f,b
  5961  000458  3378               	rrcf	(i2___ftadd@f1+1)& (0+255),f,b
  5962  00045A  3377               	rrcf	i2___ftadd@f1& (0+255),f,b
  5963  00045C  0100               	movlb	0	; () banked
  5964  00045E  2B82               	incf	i2___ftadd@exp1& (0+255),f,b
  5965  000460  D000               	goto	i2l2389
  5966  000462                     i2l2389:
  5967                           
  5968                           ; BSR set to: 0
  5969  000462  0100               	movlb	0	; () banked
  5970  000464  5181               	movf	i2___ftadd@exp2& (0+255),w,b
  5971  000466  0100               	movlb	0	; () banked
  5972  000468  1982               	xorwf	i2___ftadd@exp1& (0+255),w,b
  5973  00046A  B4D8               	btfsc	status,2,c
  5974  00046C  D030               	goto	i2l843
  5975  00046E  D7F1               	goto	i2l2387
  5976                           
  5977                           ; BSR set to: 0
  5978  000470  D02E               	goto	i2l843
  5979  000472                     i2l2391:
  5980                           
  5981                           ; BSR set to: 0
  5982  000472  0100               	movlb	0	; () banked
  5983  000474  5182               	movf	i2___ftadd@exp1& (0+255),w,b
  5984  000476  0100               	movlb	0	; () banked
  5985  000478  5D81               	subwf	i2___ftadd@exp2& (0+255),w,b
  5986  00047A  B0D8               	btfsc	status,0,c
  5987  00047C  D028               	goto	i2l843
  5988  00047E                     i2l2393:
  5989                           
  5990                           ; BSR set to: 0
  5991  00047E  0100               	movlb	0	; () banked
  5992  000480  90D8               	bcf	status,0,c
  5993  000482  3777               	rlcf	i2___ftadd@f1& (0+255),f,b
  5994  000484  3778               	rlcf	(i2___ftadd@f1+1)& (0+255),f,b
  5995  000486  3779               	rlcf	(i2___ftadd@f1+2)& (0+255),f,b
  5996  000488  0100               	movlb	0	; () banked
  5997  00048A  0782               	decf	i2___ftadd@exp1& (0+255),f,b
  5998                           
  5999                           ; BSR set to: 0
  6000  00048C  0100               	movlb	0	; () banked
  6001  00048E  5182               	movf	i2___ftadd@exp1& (0+255),w,b
  6002  000490  0100               	movlb	0	; () banked
  6003  000492  1981               	xorwf	i2___ftadd@exp2& (0+255),w,b
  6004  000494  B4D8               	btfsc	status,2,c
  6005  000496  D013               	goto	i2l2401
  6006                           
  6007                           ; BSR set to: 0
  6008  000498  0100               	movlb	0	; () banked
  6009  00049A  0780               	decf	i2___ftadd@sign& (0+255),f,b
  6010  00049C  C080  F07D         	movff	i2___ftadd@sign,??i2___ftadd
  6011  0004A0  0E07               	movlw	7
  6012  0004A2  0100               	movlb	0	; () banked
  6013  0004A4  177D               	andwf	??i2___ftadd& (0+255),f,b
  6014  0004A6  B4D8               	btfsc	status,2,c
  6015  0004A8  D00A               	goto	i2l2401
  6016  0004AA  D7E9               	goto	i2l2393
  6017                           
  6018                           ; BSR set to: 0
  6019                           
  6020                           ; BSR set to: 0
  6021  0004AC  D008               	goto	i2l2401
  6022  0004AE                     i2l2399:
  6023                           
  6024                           ; BSR set to: 0
  6025  0004AE  0100               	movlb	0	; () banked
  6026  0004B0  90D8               	bcf	status,0,c
  6027  0004B2  337C               	rrcf	(i2___ftadd@f2+2)& (0+255),f,b
  6028  0004B4  337B               	rrcf	(i2___ftadd@f2+1)& (0+255),f,b
  6029  0004B6  337A               	rrcf	i2___ftadd@f2& (0+255),f,b
  6030  0004B8  0100               	movlb	0	; () banked
  6031  0004BA  2B81               	incf	i2___ftadd@exp2& (0+255),f,b
  6032  0004BC  D000               	goto	i2l2401
  6033  0004BE                     i2l2401:
  6034                           
  6035                           ; BSR set to: 0
  6036  0004BE  0100               	movlb	0	; () banked
  6037  0004C0  5181               	movf	i2___ftadd@exp2& (0+255),w,b
  6038  0004C2  0100               	movlb	0	; () banked
  6039  0004C4  1982               	xorwf	i2___ftadd@exp1& (0+255),w,b
  6040  0004C6  B4D8               	btfsc	status,2,c
  6041  0004C8  D002               	goto	i2l843
  6042  0004CA  D7F1               	goto	i2l2399
  6043                           
  6044                           ; BSR set to: 0
  6045  0004CC  D000               	goto	i2l843
  6046  0004CE                     i2l843:
  6047                           
  6048                           ; BSR set to: 0
  6049  0004CE  0100               	movlb	0	; () banked
  6050  0004D0  AF80               	btfss	i2___ftadd@sign& (0+255),7,b
  6051  0004D2  D012               	goto	i2l852
  6052                           
  6053                           ; BSR set to: 0
  6054  0004D4  0EFF               	movlw	255
  6055  0004D6  0100               	movlb	0	; () banked
  6056  0004D8  1B77               	xorwf	i2___ftadd@f1& (0+255),f,b
  6057  0004DA  0EFF               	movlw	255
  6058  0004DC  0100               	movlb	0	; () banked
  6059  0004DE  1B78               	xorwf	(i2___ftadd@f1+1)& (0+255),f,b
  6060  0004E0  0EFF               	movlw	255
  6061  0004E2  0100               	movlb	0	; () banked
  6062  0004E4  1B79               	xorwf	(i2___ftadd@f1+2)& (0+255),f,b
  6063  0004E6  0E01               	movlw	1
  6064  0004E8  0100               	movlb	0	; () banked
  6065  0004EA  2777               	addwf	i2___ftadd@f1& (0+255),f,b
  6066  0004EC  0E00               	movlw	0
  6067  0004EE  0100               	movlb	0	; () banked
  6068  0004F0  2378               	addwfc	(i2___ftadd@f1+1)& (0+255),f,b
  6069  0004F2  0E00               	movlw	0
  6070  0004F4  0100               	movlb	0	; () banked
  6071  0004F6  2379               	addwfc	(i2___ftadd@f1+2)& (0+255),f,b
  6072  0004F8                     i2l852:
  6073                           
  6074                           ; BSR set to: 0
  6075  0004F8  0100               	movlb	0	; () banked
  6076  0004FA  AD80               	btfss	i2___ftadd@sign& (0+255),6,b
  6077  0004FC  D013               	goto	i2l2407
  6078                           
  6079                           ; BSR set to: 0
  6080  0004FE  0EFF               	movlw	255
  6081  000500  0100               	movlb	0	; () banked
  6082  000502  1B7A               	xorwf	i2___ftadd@f2& (0+255),f,b
  6083  000504  0EFF               	movlw	255
  6084  000506  0100               	movlb	0	; () banked
  6085  000508  1B7B               	xorwf	(i2___ftadd@f2+1)& (0+255),f,b
  6086  00050A  0EFF               	movlw	255
  6087  00050C  0100               	movlb	0	; () banked
  6088  00050E  1B7C               	xorwf	(i2___ftadd@f2+2)& (0+255),f,b
  6089  000510  0E01               	movlw	1
  6090  000512  0100               	movlb	0	; () banked
  6091  000514  277A               	addwf	i2___ftadd@f2& (0+255),f,b
  6092  000516  0E00               	movlw	0
  6093  000518  0100               	movlb	0	; () banked
  6094  00051A  237B               	addwfc	(i2___ftadd@f2+1)& (0+255),f,b
  6095  00051C  0E00               	movlw	0
  6096  00051E  0100               	movlb	0	; () banked
  6097  000520  237C               	addwfc	(i2___ftadd@f2+2)& (0+255),f,b
  6098  000522  D000               	goto	i2l2407
  6099  000524                     i2l2407:
  6100                           
  6101                           ; BSR set to: 0
  6102  000524  0E00               	movlw	0
  6103  000526  0100               	movlb	0	; () banked
  6104  000528  6F80               	movwf	i2___ftadd@sign& (0+255),b
  6105                           
  6106                           ; BSR set to: 0
  6107  00052A  0100               	movlb	0	; () banked
  6108  00052C  5177               	movf	i2___ftadd@f1& (0+255),w,b
  6109  00052E  0100               	movlb	0	; () banked
  6110  000530  277A               	addwf	i2___ftadd@f2& (0+255),f,b
  6111  000532  0100               	movlb	0	; () banked
  6112  000534  5178               	movf	(i2___ftadd@f1+1)& (0+255),w,b
  6113  000536  0100               	movlb	0	; () banked
  6114  000538  237B               	addwfc	(i2___ftadd@f2+1)& (0+255),f,b
  6115  00053A  0100               	movlb	0	; () banked
  6116  00053C  5179               	movf	(i2___ftadd@f1+2)& (0+255),w,b
  6117  00053E  0100               	movlb	0	; () banked
  6118  000540  237C               	addwfc	(i2___ftadd@f2+2)& (0+255),f,b
  6119                           
  6120                           ; BSR set to: 0
  6121  000542  0100               	movlb	0	; () banked
  6122  000544  AF7C               	btfss	(i2___ftadd@f2+2)& (0+255),7,b
  6123  000546  D016               	goto	i2l2417
  6124                           
  6125                           ; BSR set to: 0
  6126  000548  0EFF               	movlw	255
  6127  00054A  0100               	movlb	0	; () banked
  6128  00054C  1B7A               	xorwf	i2___ftadd@f2& (0+255),f,b
  6129  00054E  0EFF               	movlw	255
  6130  000550  0100               	movlb	0	; () banked
  6131  000552  1B7B               	xorwf	(i2___ftadd@f2+1)& (0+255),f,b
  6132  000554  0EFF               	movlw	255
  6133  000556  0100               	movlb	0	; () banked
  6134  000558  1B7C               	xorwf	(i2___ftadd@f2+2)& (0+255),f,b
  6135  00055A  0E01               	movlw	1
  6136  00055C  0100               	movlb	0	; () banked
  6137  00055E  277A               	addwf	i2___ftadd@f2& (0+255),f,b
  6138  000560  0E00               	movlw	0
  6139  000562  0100               	movlb	0	; () banked
  6140  000564  237B               	addwfc	(i2___ftadd@f2+1)& (0+255),f,b
  6141  000566  0E00               	movlw	0
  6142  000568  0100               	movlb	0	; () banked
  6143  00056A  237C               	addwfc	(i2___ftadd@f2+2)& (0+255),f,b
  6144                           
  6145                           ; BSR set to: 0
  6146  00056C  0E01               	movlw	1
  6147  00056E  0100               	movlb	0	; () banked
  6148  000570  6F80               	movwf	i2___ftadd@sign& (0+255),b
  6149  000572  D000               	goto	i2l2417
  6150  000574                     i2l2417:
  6151                           
  6152                           ; BSR set to: 0
  6153  000574  C07A  F060         	movff	i2___ftadd@f2,i2___ftpack@arg
  6154  000578  C07B  F061         	movff	i2___ftadd@f2+1,i2___ftpack@arg+1
  6155  00057C  C07C  F062         	movff	i2___ftadd@f2+2,i2___ftpack@arg+2
  6156  000580  C082  F063         	movff	i2___ftadd@exp1,i2___ftpack@exp
  6157  000584  C080  F064         	movff	i2___ftadd@sign,i2___ftpack@sign
  6158  000588  EC53  F006         	call	i2___ftpack	;wreg free
  6159  00058C  C060  F077         	movff	?i2___ftpack,?i2___ftadd
  6160  000590  C061  F078         	movff	?i2___ftpack+1,?i2___ftadd+1
  6161  000594  C062  F079         	movff	?i2___ftpack+2,?i2___ftadd+2
  6162  000598  D000               	goto	i2l829
  6163  00059A                     i2l829:
  6164  00059A  0012               	return		;funcret
  6165  00059C                     __end_ofi2___ftadd:
  6166                           	opt stack 0
  6167                           pclatu	equ	0xFFB
  6168                           pclath	equ	0xFFA
  6169                           tblptru	equ	0xFF8
  6170                           tblptrh	equ	0xFF7
  6171                           tblptrl	equ	0xFF6
  6172                           tablat	equ	0xFF5
  6173                           prodh	equ	0xFF4
  6174                           prodl	equ	0xFF3
  6175                           intcon	equ	0xFF2
  6176                           intcon2	equ	0xFF1
  6177                           intcon3	equ	0xFF0
  6178                           postinc0	equ	0xFEE
  6179                           fsr0h	equ	0xFEA
  6180                           fsr0l	equ	0xFE9
  6181                           wreg	equ	0xFE8
  6182                           fsr1h	equ	0xFE2
  6183                           fsr1l	equ	0xFE1
  6184                           bsr	equ	0xFE0
  6185                           indf2	equ	0xFDF
  6186                           postinc2	equ	0xFDE
  6187                           postdec2	equ	0xFDD
  6188                           fsr2h	equ	0xFDA
  6189                           fsr2l	equ	0xFD9
  6190                           status	equ	0xFD8
  6191                           
  6192 ;; *************** function i2_envoit_pwm *****************
  6193 ;; Defined at:
  6194 ;;		line 53 in file "moteur.c"
  6195 ;; Parameters:    Size  Location     Type
  6196 ;;  valeur          3   23[BANK0 ] float 
  6197 ;; Auto vars:     Size  Location     Type
  6198 ;;  envoit_pwm      3   26[BANK0 ] float 
  6199 ;; Return value:  Size  Location     Type
  6200 ;;		None               void
  6201 ;; Registers used:
  6202 ;;		wreg, status,2, status,0, cstack
  6203 ;; Tracked objects:
  6204 ;;		On entry : 0/0
  6205 ;;		On exit  : 0/0
  6206 ;;		Unchanged: 0/0
  6207 ;; Data sizes:     COMRAM   BANK0   BANK1   BANK2
  6208 ;;      Params:         0       3       0       0
  6209 ;;      Locals:         0       3       0       0
  6210 ;;      Temps:          0       0       0       0
  6211 ;;      Totals:         0       6       0       0
  6212 ;;Total ram usage:        6 bytes
  6213 ;; Hardware stack levels used:    1
  6214 ;; Hardware stack levels required when called:    2
  6215 ;; This function calls:
  6216 ;;		i2___ftge
  6217 ;;		i2___ftmul
  6218 ;;		i2___ftneg
  6219 ;;		i2___fttol
  6220 ;; This function is called by:
  6221 ;;		i2_asserv
  6222 ;; This function uses a non-reentrant model
  6223 ;;
  6224                           
  6225                           	psect	text43
  6226  000FA4                     __ptext43:
  6227                           	opt stack 0
  6228  000FA4                     i2_envoit_pwm:
  6229                           	opt stack 14
  6230                           
  6231                           ;moteur.c: 55: double abs_valeur;
  6232                           ;moteur.c: 57: if (valeur < 0)
  6233                           
  6234                           ;incstack = 0
  6235  000FA4  0100               	movlb	0	; () banked
  6236  000FA6  AF79               	btfss	(i2envoit_pwm@valeur+2)& (0+255),7,b
  6237  000FA8  D00F               	goto	i2l413
  6238                           
  6239                           ; BSR set to: 0
  6240                           ;moteur.c: 58: abs_valeur = (double) (-valeur);
  6241  000FAA  C077  F060         	movff	i2envoit_pwm@valeur,i2___ftneg@f1
  6242  000FAE  C078  F061         	movff	i2envoit_pwm@valeur+1,i2___ftneg@f1+1
  6243  000FB2  C079  F062         	movff	i2envoit_pwm@valeur+2,i2___ftneg@f1+2
  6244  000FB6  EC22  F00D         	call	i2___ftneg	;wreg free
  6245  000FBA  C060  F07A         	movff	?i2___ftneg,i2envoit_pwm@abs_valeur
  6246  000FBE  C061  F07B         	movff	?i2___ftneg+1,i2envoit_pwm@abs_valeur+1
  6247  000FC2  C062  F07C         	movff	?i2___ftneg+2,i2envoit_pwm@abs_valeur+2
  6248  000FC6  D007               	goto	i2l2553
  6249  000FC8                     i2l413:
  6250                           
  6251                           ; BSR set to: 0
  6252                           ;moteur.c: 59: else
  6253                           ;moteur.c: 60: abs_valeur = (double) valeur;
  6254  000FC8  C077  F07A         	movff	i2envoit_pwm@valeur,i2envoit_pwm@abs_valeur
  6255  000FCC  C078  F07B         	movff	i2envoit_pwm@valeur+1,i2envoit_pwm@abs_valeur+1
  6256  000FD0  C079  F07C         	movff	i2envoit_pwm@valeur+2,i2envoit_pwm@abs_valeur+2
  6257  000FD4  D000               	goto	i2l2553
  6258  000FD6                     i2l2553:
  6259                           
  6260                           ;moteur.c: 62: abs_valeur *= (double) 669 / 100;
  6261  000FD6  C07A  F068         	movff	i2envoit_pwm@abs_valeur,i2___ftmul@f1
  6262  000FDA  C07B  F069         	movff	i2envoit_pwm@abs_valeur+1,i2___ftmul@f1+1
  6263  000FDE  C07C  F06A         	movff	i2envoit_pwm@abs_valeur+2,i2___ftmul@f1+2
  6264  000FE2  0E14               	movlw	20
  6265  000FE4  0100               	movlb	0	; () banked
  6266  000FE6  6F6B               	movwf	i2___ftmul@f2& (0+255),b
  6267  000FE8  0ED6               	movlw	214
  6268  000FEA  0100               	movlb	0	; () banked
  6269  000FEC  6F6C               	movwf	(i2___ftmul@f2+1)& (0+255),b
  6270  000FEE  0E40               	movlw	64
  6271  000FF0  0100               	movlb	0	; () banked
  6272  000FF2  6F6D               	movwf	(i2___ftmul@f2+2)& (0+255),b
  6273  000FF4  EC0C  F005         	call	i2___ftmul	;wreg free
  6274  000FF8  C068  F07A         	movff	?i2___ftmul,i2envoit_pwm@abs_valeur
  6275  000FFC  C069  F07B         	movff	?i2___ftmul+1,i2envoit_pwm@abs_valeur+1
  6276  001000  C06A  F07C         	movff	?i2___ftmul+2,i2envoit_pwm@abs_valeur+2
  6277                           
  6278                           ;moteur.c: 64: if (abs_valeur > 669)
  6279  001004  0E40               	movlw	64
  6280  001006  0100               	movlb	0	; () banked
  6281  001008  6F60               	movwf	i2___ftge@ff1& (0+255),b
  6282  00100A  0E27               	movlw	39
  6283  00100C  0100               	movlb	0	; () banked
  6284  00100E  6F61               	movwf	(i2___ftge@ff1+1)& (0+255),b
  6285  001010  0E44               	movlw	68
  6286  001012  0100               	movlb	0	; () banked
  6287  001014  6F62               	movwf	(i2___ftge@ff1+2)& (0+255),b
  6288  001016  C07A  F063         	movff	i2envoit_pwm@abs_valeur,i2___ftge@ff2
  6289  00101A  C07B  F064         	movff	i2envoit_pwm@abs_valeur+1,i2___ftge@ff2+1
  6290  00101E  C07C  F065         	movff	i2envoit_pwm@abs_valeur+2,i2___ftge@ff2+2
  6291  001022  EC43  F008         	call	i2___ftge	;wreg free
  6292  001026  0100               	movlb	0	; () banked
  6293  001028  B0D8               	btfsc	status,0,c
  6294  00102A  D00A               	goto	i2l2557
  6295                           
  6296                           ; BSR set to: 0
  6297                           ;moteur.c: 65: abs_valeur = 669;
  6298  00102C  0E40               	movlw	64
  6299  00102E  0100               	movlb	0	; () banked
  6300  001030  6F7A               	movwf	i2envoit_pwm@abs_valeur& (0+255),b
  6301  001032  0E27               	movlw	39
  6302  001034  0100               	movlb	0	; () banked
  6303  001036  6F7B               	movwf	(i2envoit_pwm@abs_valeur+1)& (0+255),b
  6304  001038  0E44               	movlw	68
  6305  00103A  0100               	movlb	0	; () banked
  6306  00103C  6F7C               	movwf	(i2envoit_pwm@abs_valeur+2)& (0+255),b
  6307  00103E  D000               	goto	i2l2557
  6308  001040                     i2l2557:
  6309                           
  6310                           ; BSR set to: 0
  6311                           ;moteur.c: 67: if (valeur < (double) 0.)
  6312  001040  0100               	movlb	0	; () banked
  6313  001042  AF79               	btfss	(i2envoit_pwm@valeur+2)& (0+255),7,b
  6314  001044  D002               	goto	i2l416
  6315                           
  6316                           ; BSR set to: 0
  6317                           ;moteur.c: 68: {
  6318                           ;moteur.c: 69: PORTDbits.RD4 = 1;
  6319  001046  8883               	bsf	3971,4,c	;volatile
  6320                           
  6321                           ;moteur.c: 70: }
  6322  001048  D002               	goto	i2l2561
  6323  00104A                     i2l416:
  6324                           
  6325                           ; BSR set to: 0
  6326                           ;moteur.c: 71: else
  6327                           ;moteur.c: 72: {
  6328                           ;moteur.c: 73: PORTDbits.RD4 = 0;
  6329  00104A  9883               	bcf	3971,4,c	;volatile
  6330  00104C  D000               	goto	i2l2561
  6331  00104E                     i2l2561:
  6332                           
  6333                           ; BSR set to: 0
  6334                           ;moteur.c: 74: }
  6335                           ;moteur.c: 76: PDC0L = (uint8_t) ((uint16_t) abs_valeur % 256);
  6336  00104E  C07A  F060         	movff	i2envoit_pwm@abs_valeur,i2___fttol@f1
  6337  001052  C07B  F061         	movff	i2envoit_pwm@abs_valeur+1,i2___fttol@f1+1
  6338  001056  C07C  F062         	movff	i2envoit_pwm@abs_valeur+2,i2___fttol@f1+2
  6339  00105A  ECBA  F005         	call	i2___fttol	;wreg free
  6340  00105E  0100               	movlb	0	; () banked
  6341  001060  5160               	movf	?i2___fttol& (0+255),w,b
  6342  001062  6E79               	movwf	3961,c	;volatile
  6343                           
  6344                           ;moteur.c: 77: PDC0H = (uint8_t) ((uint16_t) abs_valeur / 256);
  6345  001064  C07A  F060         	movff	i2envoit_pwm@abs_valeur,i2___fttol@f1
  6346  001068  C07B  F061         	movff	i2envoit_pwm@abs_valeur+1,i2___fttol@f1+1
  6347  00106C  C07C  F062         	movff	i2envoit_pwm@abs_valeur+2,i2___fttol@f1+2
  6348  001070  ECBA  F005         	call	i2___fttol	;wreg free
  6349  001074  0100               	movlb	0	; () banked
  6350  001076  C061  F060         	movff	?i2___fttol+1,?i2___fttol
  6351  00107A  0100               	movlb	0	; () banked
  6352  00107C  6B61               	clrf	(?i2___fttol+1)& (0+255),b
  6353  00107E  0100               	movlb	0	; () banked
  6354  001080  5160               	movf	?i2___fttol& (0+255),w,b
  6355  001082  6E78               	movwf	3960,c	;volatile
  6356                           
  6357                           ; BSR set to: 0
  6358  001084  0012               	return		;funcret
  6359  001086                     __end_ofi2_envoit_pwm:
  6360                           	opt stack 0
  6361                           pclatu	equ	0xFFB
  6362                           pclath	equ	0xFFA
  6363                           tblptru	equ	0xFF8
  6364                           tblptrh	equ	0xFF7
  6365                           tblptrl	equ	0xFF6
  6366                           tablat	equ	0xFF5
  6367                           prodh	equ	0xFF4
  6368                           prodl	equ	0xFF3
  6369                           intcon	equ	0xFF2
  6370                           intcon2	equ	0xFF1
  6371                           intcon3	equ	0xFF0
  6372                           postinc0	equ	0xFEE
  6373                           fsr0h	equ	0xFEA
  6374                           fsr0l	equ	0xFE9
  6375                           wreg	equ	0xFE8
  6376                           fsr1h	equ	0xFE2
  6377                           fsr1l	equ	0xFE1
  6378                           bsr	equ	0xFE0
  6379                           indf2	equ	0xFDF
  6380                           postinc2	equ	0xFDE
  6381                           postdec2	equ	0xFDD
  6382                           fsr2h	equ	0xFDA
  6383                           fsr2l	equ	0xFD9
  6384                           status	equ	0xFD8
  6385                           
  6386 ;; *************** function i2___fttol *****************
  6387 ;; Defined at:
  6388 ;;		line 44 in file "C:\Program Files (x86)\Microchip\xc8\v1.34\sources\common\fttol.c"
  6389 ;; Parameters:    Size  Location     Type
  6390 ;;  f1              3    0[BANK0 ] float 
  6391 ;; Auto vars:     Size  Location     Type
  6392 ;;  __fttol         4   10[BANK0 ] unsigned long 
  6393 ;;  __fttol         1   14[BANK0 ] unsigned char 
  6394 ;;  __fttol         1    9[BANK0 ] unsigned char 
  6395 ;; Return value:  Size  Location     Type
  6396 ;;                  4    0[BANK0 ] long 
  6397 ;; Registers used:
  6398 ;;		wreg, status,2, status,0
  6399 ;; Tracked objects:
  6400 ;;		On entry : 0/0
  6401 ;;		On exit  : 0/0
  6402 ;;		Unchanged: 0/0
  6403 ;; Data sizes:     COMRAM   BANK0   BANK1   BANK2
  6404 ;;      Params:         0       4       0       0
  6405 ;;      Locals:         0       6       0       0
  6406 ;;      Temps:          0       5       0       0
  6407 ;;      Totals:         0      15       0       0
  6408 ;;Total ram usage:       15 bytes
  6409 ;; Hardware stack levels used:    1
  6410 ;; This function calls:
  6411 ;;		Nothing
  6412 ;; This function is called by:
  6413 ;;		i2_envoit_pwm
  6414 ;; This function uses a non-reentrant model
  6415 ;;
  6416                           
  6417                           	psect	text44
  6418  000B74                     __ptext44:
  6419                           	opt stack 0
  6420  000B74                     i2___fttol:
  6421                           	opt stack 15
  6422                           
  6423                           ; BSR set to: 0
  6424                           ;incstack = 0
  6425  000B74  C062  F064         	movff	i2___fttol@f1+2,??i2___fttol
  6426  000B78  0100               	movlb	0	; () banked
  6427  000B7A  6B65               	clrf	(??i2___fttol+1)& (0+255),b
  6428  000B7C  6B66               	clrf	(??i2___fttol+2)& (0+255),b
  6429  000B7E  0100               	movlb	0	; () banked
  6430  000B80  3561               	rlcf	(i2___fttol@f1+1)& (0+255),w,b
  6431  000B82  0100               	movlb	0	; () banked
  6432  000B84  3764               	rlcf	??i2___fttol& (0+255),f,b
  6433  000B86  E301               	bnc	u244_41
  6434  000B88  8165               	bsf	(??i2___fttol+1)& (0+255),0,b
  6435  000B8A                     u244_41:
  6436  000B8A  0100               	movlb	0	; () banked
  6437  000B8C  5164               	movf	??i2___fttol& (0+255),w,b
  6438  000B8E  0100               	movlb	0	; () banked
  6439  000B90  6F6E               	movwf	i2___fttol@exp1& (0+255),b
  6440  000B92  0100               	movlb	0	; () banked
  6441  000B94  516E               	movf	i2___fttol@exp1& (0+255),w,b
  6442  000B96  A4D8               	btfss	status,2,c
  6443  000B98  D002               	goto	i2l2479
  6444  000B9A  D051               	goto	i2l2503
  6445                           
  6446                           ; BSR set to: 0
  6447                           
  6448                           ; BSR set to: 0
  6449  000B9C  D083               	goto	i2l896
  6450  000B9E                     i2l2479:
  6451                           
  6452                           ; BSR set to: 0
  6453  000B9E  0E17               	movlw	23
  6454  000BA0  0100               	movlb	0	; () banked
  6455  000BA2  6F64               	movwf	??i2___fttol& (0+255),b
  6456  000BA4  C060  F065         	movff	i2___fttol@f1,??i2___fttol+1
  6457  000BA8  C061  F066         	movff	i2___fttol@f1+1,??i2___fttol+2
  6458  000BAC  C062  F067         	movff	i2___fttol@f1+2,??i2___fttol+3
  6459  000BB0  0100               	movlb	0	; () banked
  6460  000BB2  2964               	incf	??i2___fttol& (0+255),w,b
  6461  000BB4  0100               	movlb	0	; () banked
  6462  000BB6  6F68               	movwf	(??i2___fttol+4)& (0+255),b
  6463  000BB8  D005               	goto	i2u246_40
  6464  000BBA                     i2u246_45:
  6465  000BBA  0100               	movlb	0	; () banked
  6466  000BBC  90D8               	bcf	status,0,c
  6467  000BBE  3367               	rrcf	(??i2___fttol+3)& (0+255),f,b
  6468  000BC0  3366               	rrcf	(??i2___fttol+2)& (0+255),f,b
  6469  000BC2  3365               	rrcf	(??i2___fttol+1)& (0+255),f,b
  6470  000BC4                     i2u246_40:
  6471  000BC4  0100               	movlb	0	; () banked
  6472  000BC6  2F68               	decfsz	(??i2___fttol+4)& (0+255),f,b
  6473  000BC8  D7F8               	goto	i2u246_45
  6474  000BCA  0100               	movlb	0	; () banked
  6475  000BCC  5165               	movf	(??i2___fttol+1)& (0+255),w,b
  6476  000BCE  0100               	movlb	0	; () banked
  6477  000BD0  6F69               	movwf	i2___fttol@sign1& (0+255),b
  6478                           
  6479                           ; BSR set to: 0
  6480  000BD2  0100               	movlb	0	; () banked
  6481  000BD4  8F61               	bsf	(i2___fttol@f1+1)& (0+255),7,b
  6482                           
  6483                           ; BSR set to: 0
  6484  000BD6  0EFF               	movlw	255
  6485  000BD8  0100               	movlb	0	; () banked
  6486  000BDA  1760               	andwf	i2___fttol@f1& (0+255),f,b
  6487  000BDC  0EFF               	movlw	255
  6488  000BDE  0100               	movlb	0	; () banked
  6489  000BE0  1761               	andwf	(i2___fttol@f1+1)& (0+255),f,b
  6490  000BE2  0E00               	movlw	0
  6491  000BE4  0100               	movlb	0	; () banked
  6492  000BE6  1762               	andwf	(i2___fttol@f1+2)& (0+255),f,b
  6493                           
  6494                           ; BSR set to: 0
  6495  000BE8  0100               	movlb	0	; () banked
  6496  000BEA  5160               	movf	i2___fttol@f1& (0+255),w,b
  6497  000BEC  0100               	movlb	0	; () banked
  6498  000BEE  6F6A               	movwf	i2___fttol@lval& (0+255),b
  6499  000BF0  0100               	movlb	0	; () banked
  6500  000BF2  5161               	movf	(i2___fttol@f1+1)& (0+255),w,b
  6501  000BF4  0100               	movlb	0	; () banked
  6502  000BF6  6F6B               	movwf	(i2___fttol@lval+1)& (0+255),b
  6503  000BF8  0100               	movlb	0	; () banked
  6504  000BFA  5162               	movf	(i2___fttol@f1+2)& (0+255),w,b
  6505  000BFC  0100               	movlb	0	; () banked
  6506  000BFE  6F6C               	movwf	(i2___fttol@lval+2)& (0+255),b
  6507  000C00  0100               	movlb	0	; () banked
  6508  000C02  6B6D               	clrf	(i2___fttol@lval+3)& (0+255),b
  6509                           
  6510                           ; BSR set to: 0
  6511  000C04  0E8E               	movlw	142
  6512  000C06  0100               	movlb	0	; () banked
  6513  000C08  5F6E               	subwf	i2___fttol@exp1& (0+255),f,b
  6514                           
  6515                           ; BSR set to: 0
  6516  000C0A  0100               	movlb	0	; () banked
  6517  000C0C  AF6E               	btfss	i2___fttol@exp1& (0+255),7,b
  6518  000C0E  D013               	goto	i2l2501
  6519                           
  6520                           ; BSR set to: 0
  6521  000C10  0100               	movlb	0	; () banked
  6522  000C12  516E               	movf	i2___fttol@exp1& (0+255),w,b
  6523  000C14  0A80               	xorlw	128
  6524  000C16  0F8F               	addlw	143
  6525  000C18  B0D8               	btfsc	status,0,c
  6526  000C1A  D003               	goto	i2l2497
  6527  000C1C  D010               	goto	i2l2503
  6528                           
  6529                           ; BSR set to: 0
  6530                           
  6531                           ; BSR set to: 0
  6532  000C1E  D042               	goto	i2l896
  6533                           
  6534                           ; BSR set to: 0
  6535  000C20  D000               	goto	i2l2497
  6536  000C22                     i2l2497:
  6537                           
  6538                           ; BSR set to: 0
  6539  000C22  0100               	movlb	0	; () banked
  6540  000C24  90D8               	bcf	status,0,c
  6541  000C26  336D               	rrcf	(i2___fttol@lval+3)& (0+255),f,b
  6542  000C28  336C               	rrcf	(i2___fttol@lval+2)& (0+255),f,b
  6543  000C2A  336B               	rrcf	(i2___fttol@lval+1)& (0+255),f,b
  6544  000C2C  336A               	rrcf	i2___fttol@lval& (0+255),f,b
  6545                           
  6546                           ; BSR set to: 0
  6547  000C2E  0100               	movlb	0	; () banked
  6548  000C30  3F6E               	incfsz	i2___fttol@exp1& (0+255),f,b
  6549  000C32  D7F7               	goto	i2l2497
  6550                           
  6551                           ; BSR set to: 0
  6552  000C34  D01F               	goto	i2l2511
  6553  000C36                     i2l2501:
  6554                           
  6555                           ; BSR set to: 0
  6556  000C36  0E17               	movlw	23
  6557  000C38  0100               	movlb	0	; () banked
  6558  000C3A  656E               	cpfsgt	i2___fttol@exp1& (0+255),b
  6559  000C3C  D014               	goto	i2l2509
  6560  000C3E                     i2l2503:
  6561                           
  6562                           ; BSR set to: 0
  6563  000C3E  0E00               	movlw	0
  6564  000C40  0100               	movlb	0	; () banked
  6565  000C42  6F60               	movwf	?i2___fttol& (0+255),b
  6566  000C44  0E00               	movlw	0
  6567  000C46  6F61               	movwf	(?i2___fttol+1)& (0+255),b
  6568  000C48  0E00               	movlw	0
  6569  000C4A  6F62               	movwf	(?i2___fttol+2)& (0+255),b
  6570  000C4C  0E00               	movlw	0
  6571  000C4E  6F63               	movwf	(?i2___fttol+3)& (0+255),b
  6572                           
  6573                           ; BSR set to: 0
  6574  000C50  D029               	goto	i2l896
  6575                           
  6576                           ; BSR set to: 0
  6577  000C52  D009               	goto	i2l2509
  6578  000C54                     i2l2507:
  6579                           
  6580                           ; BSR set to: 0
  6581  000C54  0100               	movlb	0	; () banked
  6582  000C56  90D8               	bcf	status,0,c
  6583  000C58  376A               	rlcf	i2___fttol@lval& (0+255),f,b
  6584  000C5A  376B               	rlcf	(i2___fttol@lval+1)& (0+255),f,b
  6585  000C5C  376C               	rlcf	(i2___fttol@lval+2)& (0+255),f,b
  6586  000C5E  376D               	rlcf	(i2___fttol@lval+3)& (0+255),f,b
  6587  000C60  0100               	movlb	0	; () banked
  6588  000C62  076E               	decf	i2___fttol@exp1& (0+255),f,b
  6589  000C64  D000               	goto	i2l2509
  6590  000C66                     i2l2509:
  6591                           
  6592                           ; BSR set to: 0
  6593  000C66  0100               	movlb	0	; () banked
  6594  000C68  516E               	movf	i2___fttol@exp1& (0+255),w,b
  6595  000C6A  0100               	movlb	0	; () banked
  6596  000C6C  B4D8               	btfsc	status,2,c
  6597  000C6E  D002               	goto	i2l2511
  6598  000C70  D7F1               	goto	i2l2507
  6599                           
  6600                           ; BSR set to: 0
  6601  000C72  D000               	goto	i2l2511
  6602  000C74                     i2l2511:
  6603                           
  6604                           ; BSR set to: 0
  6605  000C74  0100               	movlb	0	; () banked
  6606  000C76  5169               	movf	i2___fttol@sign1& (0+255),w,b
  6607  000C78  0100               	movlb	0	; () banked
  6608  000C7A  B4D8               	btfsc	status,2,c
  6609  000C7C  D00A               	goto	i2l2515
  6610                           
  6611                           ; BSR set to: 0
  6612  000C7E  0100               	movlb	0	; () banked
  6613  000C80  1F6D               	comf	(i2___fttol@lval+3)& (0+255),f,b
  6614  000C82  1F6C               	comf	(i2___fttol@lval+2)& (0+255),f,b
  6615  000C84  1F6B               	comf	(i2___fttol@lval+1)& (0+255),f,b
  6616  000C86  6D6A               	negf	i2___fttol@lval& (0+255),b
  6617  000C88  0E00               	movlw	0
  6618  000C8A  236B               	addwfc	(i2___fttol@lval+1)& (0+255),f,b
  6619  000C8C  236C               	addwfc	(i2___fttol@lval+2)& (0+255),f,b
  6620  000C8E  236D               	addwfc	(i2___fttol@lval+3)& (0+255),f,b
  6621  000C90  D000               	goto	i2l2515
  6622  000C92                     i2l2515:
  6623                           
  6624                           ; BSR set to: 0
  6625  000C92  C06A  F060         	movff	i2___fttol@lval,?i2___fttol
  6626  000C96  C06B  F061         	movff	i2___fttol@lval+1,?i2___fttol+1
  6627  000C9A  C06C  F062         	movff	i2___fttol@lval+2,?i2___fttol+2
  6628  000C9E  C06D  F063         	movff	i2___fttol@lval+3,?i2___fttol+3
  6629  000CA2  D000               	goto	i2l896
  6630  000CA4                     i2l896:
  6631                           
  6632                           ; BSR set to: 0
  6633  000CA4  0012               	return		;funcret
  6634  000CA6                     __end_ofi2___fttol:
  6635                           	opt stack 0
  6636                           pclatu	equ	0xFFB
  6637                           pclath	equ	0xFFA
  6638                           tblptru	equ	0xFF8
  6639                           tblptrh	equ	0xFF7
  6640                           tblptrl	equ	0xFF6
  6641                           tablat	equ	0xFF5
  6642                           prodh	equ	0xFF4
  6643                           prodl	equ	0xFF3
  6644                           intcon	equ	0xFF2
  6645                           intcon2	equ	0xFF1
  6646                           intcon3	equ	0xFF0
  6647                           postinc0	equ	0xFEE
  6648                           fsr0h	equ	0xFEA
  6649                           fsr0l	equ	0xFE9
  6650                           wreg	equ	0xFE8
  6651                           fsr1h	equ	0xFE2
  6652                           fsr1l	equ	0xFE1
  6653                           bsr	equ	0xFE0
  6654                           indf2	equ	0xFDF
  6655                           postinc2	equ	0xFDE
  6656                           postdec2	equ	0xFDD
  6657                           fsr2h	equ	0xFDA
  6658                           fsr2l	equ	0xFD9
  6659                           status	equ	0xFD8
  6660                           
  6661 ;; *************** function i2___ftneg *****************
  6662 ;; Defined at:
  6663 ;;		line 15 in file "C:\Program Files (x86)\Microchip\xc8\v1.34\sources\common\ftneg.c"
  6664 ;; Parameters:    Size  Location     Type
  6665 ;;  f1              3    0[BANK0 ] float 
  6666 ;; Auto vars:     Size  Location     Type
  6667 ;;		None
  6668 ;; Return value:  Size  Location     Type
  6669 ;;                  3    0[BANK0 ] float 
  6670 ;; Registers used:
  6671 ;;		wreg, status,2, status,0
  6672 ;; Tracked objects:
  6673 ;;		On entry : 0/0
  6674 ;;		On exit  : 0/0
  6675 ;;		Unchanged: 0/0
  6676 ;; Data sizes:     COMRAM   BANK0   BANK1   BANK2
  6677 ;;      Params:         0       3       0       0
  6678 ;;      Locals:         0       0       0       0
  6679 ;;      Temps:          0       0       0       0
  6680 ;;      Totals:         0       3       0       0
  6681 ;;Total ram usage:        3 bytes
  6682 ;; Hardware stack levels used:    1
  6683 ;; This function calls:
  6684 ;;		Nothing
  6685 ;; This function is called by:
  6686 ;;		i2_envoit_pwm
  6687 ;;		i2_fonction_PID
  6688 ;; This function uses a non-reentrant model
  6689 ;;
  6690                           
  6691                           	psect	text45
  6692  001A44                     __ptext45:
  6693                           	opt stack 0
  6694  001A44                     i2___ftneg:
  6695                           	opt stack 15
  6696                           
  6697                           ; BSR set to: 0
  6698                           ;incstack = 0
  6699  001A44  0100               	movlb	0	; () banked
  6700  001A46  5160               	movf	i2___ftneg@f1& (0+255),w,b
  6701  001A48  0100               	movlb	0	; () banked
  6702  001A4A  1161               	iorwf	(i2___ftneg@f1+1)& (0+255),w,b
  6703  001A4C  0100               	movlb	0	; () banked
  6704  001A4E  1162               	iorwf	(i2___ftneg@f1+2)& (0+255),w,b
  6705  001A50  B4D8               	btfsc	status,2,c
  6706  001A52  D009               	goto	i2l885
  6707                           
  6708                           ; BSR set to: 0
  6709  001A54  0E00               	movlw	0
  6710  001A56  0100               	movlb	0	; () banked
  6711  001A58  1B60               	xorwf	i2___ftneg@f1& (0+255),f,b
  6712  001A5A  0E00               	movlw	0
  6713  001A5C  0100               	movlb	0	; () banked
  6714  001A5E  1B61               	xorwf	(i2___ftneg@f1+1)& (0+255),f,b
  6715  001A60  0E80               	movlw	128
  6716  001A62  0100               	movlb	0	; () banked
  6717  001A64  1B62               	xorwf	(i2___ftneg@f1+2)& (0+255),f,b
  6718  001A66                     i2l885:
  6719                           
  6720                           ; BSR set to: 0
  6721  001A66  C060  F060         	movff	i2___ftneg@f1,?i2___ftneg
  6722  001A6A  C061  F061         	movff	i2___ftneg@f1+1,?i2___ftneg+1
  6723  001A6E  C062  F062         	movff	i2___ftneg@f1+2,?i2___ftneg+2
  6724                           
  6725                           ; BSR set to: 0
  6726  001A72  0012               	return		;funcret
  6727  001A74                     __end_ofi2___ftneg:
  6728                           	opt stack 0
  6729                           pclatu	equ	0xFFB
  6730                           pclath	equ	0xFFA
  6731                           tblptru	equ	0xFF8
  6732                           tblptrh	equ	0xFF7
  6733                           tblptrl	equ	0xFF6
  6734                           tablat	equ	0xFF5
  6735                           prodh	equ	0xFF4
  6736                           prodl	equ	0xFF3
  6737                           intcon	equ	0xFF2
  6738                           intcon2	equ	0xFF1
  6739                           intcon3	equ	0xFF0
  6740                           postinc0	equ	0xFEE
  6741                           fsr0h	equ	0xFEA
  6742                           fsr0l	equ	0xFE9
  6743                           wreg	equ	0xFE8
  6744                           fsr1h	equ	0xFE2
  6745                           fsr1l	equ	0xFE1
  6746                           bsr	equ	0xFE0
  6747                           indf2	equ	0xFDF
  6748                           postinc2	equ	0xFDE
  6749                           postdec2	equ	0xFDD
  6750                           fsr2h	equ	0xFDA
  6751                           fsr2l	equ	0xFD9
  6752                           status	equ	0xFD8
  6753                           
  6754 ;; *************** function i2___ftmul *****************
  6755 ;; Defined at:
  6756 ;;		line 62 in file "C:\Program Files (x86)\Microchip\xc8\v1.34\sources\common\ftmul.c"
  6757 ;; Parameters:    Size  Location     Type
  6758 ;;  f1              3    8[BANK0 ] float 
  6759 ;;  f2              3   11[BANK0 ] float 
  6760 ;; Auto vars:     Size  Location     Type
  6761 ;;  __ftmul         3   18[BANK0 ] unsigned um
  6762 ;;  __ftmul         1   22[BANK0 ] unsigned char 
  6763 ;;  __ftmul         1   21[BANK0 ] unsigned char 
  6764 ;;  __ftmul         1   17[BANK0 ] unsigned char 
  6765 ;; Return value:  Size  Location     Type
  6766 ;;                  3    8[BANK0 ] float 
  6767 ;; Registers used:
  6768 ;;		wreg, status,2, status,0, cstack
  6769 ;; Tracked objects:
  6770 ;;		On entry : 0/0
  6771 ;;		On exit  : 0/0
  6772 ;;		Unchanged: 0/0
  6773 ;; Data sizes:     COMRAM   BANK0   BANK1   BANK2
  6774 ;;      Params:         0       6       0       0
  6775 ;;      Locals:         0       6       0       0
  6776 ;;      Temps:          0       3       0       0
  6777 ;;      Totals:         0      15       0       0
  6778 ;;Total ram usage:       15 bytes
  6779 ;; Hardware stack levels used:    1
  6780 ;; Hardware stack levels required when called:    1
  6781 ;; This function calls:
  6782 ;;		i2___ftpack
  6783 ;; This function is called by:
  6784 ;;		i2_envoit_pwm
  6785 ;;		i2_fonction_PID
  6786 ;; This function uses a non-reentrant model
  6787 ;;
  6788                           
  6789                           	psect	text46
  6790  000A18                     __ptext46:
  6791                           	opt stack 0
  6792  000A18                     i2___ftmul:
  6793                           	opt stack 14
  6794                           
  6795                           ; BSR set to: 0
  6796                           ;incstack = 0
  6797  000A18  C06A  F06E         	movff	i2___ftmul@f1+2,??i2___ftmul
  6798  000A1C  0100               	movlb	0	; () banked
  6799  000A1E  6B6F               	clrf	(??i2___ftmul+1)& (0+255),b
  6800  000A20  6B70               	clrf	(??i2___ftmul+2)& (0+255),b
  6801  000A22  0100               	movlb	0	; () banked
  6802  000A24  3569               	rlcf	(i2___ftmul@f1+1)& (0+255),w,b
  6803  000A26  0100               	movlb	0	; () banked
  6804  000A28  376E               	rlcf	??i2___ftmul& (0+255),f,b
  6805  000A2A  E301               	bnc	u237_41
  6806  000A2C  816F               	bsf	(??i2___ftmul+1)& (0+255),0,b
  6807  000A2E                     u237_41:
  6808  000A2E  0100               	movlb	0	; () banked
  6809  000A30  516E               	movf	??i2___ftmul& (0+255),w,b
  6810  000A32  0100               	movlb	0	; () banked
  6811  000A34  6F71               	movwf	i2___ftmul@exp& (0+255),b
  6812  000A36  0100               	movlb	0	; () banked
  6813  000A38  5171               	movf	i2___ftmul@exp& (0+255),w,b
  6814  000A3A  A4D8               	btfss	status,2,c
  6815  000A3C  D002               	goto	i2l2427
  6816  000A3E  D014               	goto	i2l2429
  6817                           
  6818                           ; BSR set to: 0
  6819                           
  6820                           ; BSR set to: 0
  6821  000A40  D098               	goto	i2l875
  6822  000A42                     i2l2427:
  6823                           
  6824                           ; BSR set to: 0
  6825  000A42  C06D  F06E         	movff	i2___ftmul@f2+2,??i2___ftmul
  6826  000A46  0100               	movlb	0	; () banked
  6827  000A48  6B6F               	clrf	(??i2___ftmul+1)& (0+255),b
  6828  000A4A  6B70               	clrf	(??i2___ftmul+2)& (0+255),b
  6829  000A4C  0100               	movlb	0	; () banked
  6830  000A4E  356C               	rlcf	(i2___ftmul@f2+1)& (0+255),w,b
  6831  000A50  0100               	movlb	0	; () banked
  6832  000A52  376E               	rlcf	??i2___ftmul& (0+255),f,b
  6833  000A54  E301               	bnc	u239_41
  6834  000A56  816F               	bsf	(??i2___ftmul+1)& (0+255),0,b
  6835  000A58                     u239_41:
  6836  000A58  0100               	movlb	0	; () banked
  6837  000A5A  516E               	movf	??i2___ftmul& (0+255),w,b
  6838  000A5C  0100               	movlb	0	; () banked
  6839  000A5E  6F76               	movwf	i2___ftmul@sign& (0+255),b
  6840  000A60  0100               	movlb	0	; () banked
  6841  000A62  5176               	movf	i2___ftmul@sign& (0+255),w,b
  6842  000A64  A4D8               	btfss	status,2,c
  6843  000A66  D00A               	goto	i2l2433
  6844  000A68                     i2l2429:
  6845                           
  6846                           ; BSR set to: 0
  6847  000A68  0E00               	movlw	0
  6848  000A6A  0100               	movlb	0	; () banked
  6849  000A6C  6F68               	movwf	?i2___ftmul& (0+255),b
  6850  000A6E  0E00               	movlw	0
  6851  000A70  0100               	movlb	0	; () banked
  6852  000A72  6F69               	movwf	(?i2___ftmul+1)& (0+255),b
  6853  000A74  0E00               	movlw	0
  6854  000A76  0100               	movlb	0	; () banked
  6855  000A78  6F6A               	movwf	(?i2___ftmul+2)& (0+255),b
  6856                           
  6857                           ; BSR set to: 0
  6858  000A7A  D07B               	goto	i2l875
  6859  000A7C                     i2l2433:
  6860                           
  6861                           ; BSR set to: 0
  6862  000A7C  0100               	movlb	0	; () banked
  6863  000A7E  5176               	movf	i2___ftmul@sign& (0+255),w,b
  6864  000A80  0F7B               	addlw	123
  6865  000A82  0100               	movlb	0	; () banked
  6866  000A84  2771               	addwf	i2___ftmul@exp& (0+255),f,b
  6867                           
  6868                           ; BSR set to: 0
  6869  000A86  C06A  F076         	movff	i2___ftmul@f1+2,i2___ftmul@sign
  6870  000A8A  0100               	movlb	0	; () banked
  6871  000A8C  516D               	movf	(i2___ftmul@f2+2)& (0+255),w,b
  6872  000A8E  0100               	movlb	0	; () banked
  6873  000A90  1B76               	xorwf	i2___ftmul@sign& (0+255),f,b
  6874  000A92  0E80               	movlw	128
  6875  000A94  0100               	movlb	0	; () banked
  6876  000A96  1776               	andwf	i2___ftmul@sign& (0+255),f,b
  6877                           
  6878                           ; BSR set to: 0
  6879  000A98  0100               	movlb	0	; () banked
  6880  000A9A  8F69               	bsf	(i2___ftmul@f1+1)& (0+255),7,b
  6881                           
  6882                           ; BSR set to: 0
  6883  000A9C  0100               	movlb	0	; () banked
  6884  000A9E  8F6C               	bsf	(i2___ftmul@f2+1)& (0+255),7,b
  6885                           
  6886                           ; BSR set to: 0
  6887  000AA0  0EFF               	movlw	255
  6888  000AA2  0100               	movlb	0	; () banked
  6889  000AA4  176B               	andwf	i2___ftmul@f2& (0+255),f,b
  6890  000AA6  0EFF               	movlw	255
  6891  000AA8  0100               	movlb	0	; () banked
  6892  000AAA  176C               	andwf	(i2___ftmul@f2+1)& (0+255),f,b
  6893  000AAC  0E00               	movlw	0
  6894  000AAE  0100               	movlb	0	; () banked
  6895  000AB0  176D               	andwf	(i2___ftmul@f2+2)& (0+255),f,b
  6896                           
  6897                           ; BSR set to: 0
  6898  000AB2  0E00               	movlw	0
  6899  000AB4  0100               	movlb	0	; () banked
  6900  000AB6  6F72               	movwf	i2___ftmul@f3_as_product& (0+255),b
  6901  000AB8  0E00               	movlw	0
  6902  000ABA  0100               	movlb	0	; () banked
  6903  000ABC  6F73               	movwf	(i2___ftmul@f3_as_product+1)& (0+255),b
  6904  000ABE  0E00               	movlw	0
  6905  000AC0  0100               	movlb	0	; () banked
  6906  000AC2  6F74               	movwf	(i2___ftmul@f3_as_product+2)& (0+255),b
  6907                           
  6908                           ; BSR set to: 0
  6909  000AC4  0E07               	movlw	7
  6910  000AC6  0100               	movlb	0	; () banked
  6911  000AC8  6F75               	movwf	i2___ftmul@cntr& (0+255),b
  6912  000ACA  D000               	goto	i2l2447
  6913  000ACC                     i2l2447:
  6914                           
  6915                           ; BSR set to: 0
  6916  000ACC  0100               	movlb	0	; () banked
  6917  000ACE  A168               	btfss	i2___ftmul@f1& (0+255),0,b
  6918  000AD0  D00D               	goto	i2l2451
  6919                           
  6920                           ; BSR set to: 0
  6921  000AD2  0100               	movlb	0	; () banked
  6922  000AD4  516B               	movf	i2___ftmul@f2& (0+255),w,b
  6923  000AD6  0100               	movlb	0	; () banked
  6924  000AD8  2772               	addwf	i2___ftmul@f3_as_product& (0+255),f,b
  6925  000ADA  0100               	movlb	0	; () banked
  6926  000ADC  516C               	movf	(i2___ftmul@f2+1)& (0+255),w,b
  6927  000ADE  0100               	movlb	0	; () banked
  6928  000AE0  2373               	addwfc	(i2___ftmul@f3_as_product+1)& (0+255),f,b
  6929  000AE2  0100               	movlb	0	; () banked
  6930  000AE4  516D               	movf	(i2___ftmul@f2+2)& (0+255),w,b
  6931  000AE6  0100               	movlb	0	; () banked
  6932  000AE8  2374               	addwfc	(i2___ftmul@f3_as_product+2)& (0+255),f,b
  6933  000AEA  D000               	goto	i2l2451
  6934  000AEC                     i2l2451:
  6935                           
  6936                           ; BSR set to: 0
  6937  000AEC  0100               	movlb	0	; () banked
  6938  000AEE  90D8               	bcf	status,0,c
  6939  000AF0  336A               	rrcf	(i2___ftmul@f1+2)& (0+255),f,b
  6940  000AF2  3369               	rrcf	(i2___ftmul@f1+1)& (0+255),f,b
  6941  000AF4  3368               	rrcf	i2___ftmul@f1& (0+255),f,b
  6942  000AF6  0100               	movlb	0	; () banked
  6943  000AF8  90D8               	bcf	status,0,c
  6944  000AFA  376B               	rlcf	i2___ftmul@f2& (0+255),f,b
  6945  000AFC  376C               	rlcf	(i2___ftmul@f2+1)& (0+255),f,b
  6946  000AFE  376D               	rlcf	(i2___ftmul@f2+2)& (0+255),f,b
  6947                           
  6948                           ; BSR set to: 0
  6949  000B00  0100               	movlb	0	; () banked
  6950  000B02  2F75               	decfsz	i2___ftmul@cntr& (0+255),f,b
  6951  000B04  D7E3               	goto	i2l2447
  6952  000B06  D000               	goto	i2l2455
  6953  000B08                     i2l2455:
  6954                           
  6955                           ; BSR set to: 0
  6956  000B08  0E09               	movlw	9
  6957  000B0A  0100               	movlb	0	; () banked
  6958  000B0C  6F75               	movwf	i2___ftmul@cntr& (0+255),b
  6959  000B0E  D000               	goto	i2l2457
  6960  000B10                     i2l2457:
  6961                           
  6962                           ; BSR set to: 0
  6963  000B10  0100               	movlb	0	; () banked
  6964  000B12  A168               	btfss	i2___ftmul@f1& (0+255),0,b
  6965  000B14  D00D               	goto	i2l2461
  6966                           
  6967                           ; BSR set to: 0
  6968  000B16  0100               	movlb	0	; () banked
  6969  000B18  516B               	movf	i2___ftmul@f2& (0+255),w,b
  6970  000B1A  0100               	movlb	0	; () banked
  6971  000B1C  2772               	addwf	i2___ftmul@f3_as_product& (0+255),f,b
  6972  000B1E  0100               	movlb	0	; () banked
  6973  000B20  516C               	movf	(i2___ftmul@f2+1)& (0+255),w,b
  6974  000B22  0100               	movlb	0	; () banked
  6975  000B24  2373               	addwfc	(i2___ftmul@f3_as_product+1)& (0+255),f,b
  6976  000B26  0100               	movlb	0	; () banked
  6977  000B28  516D               	movf	(i2___ftmul@f2+2)& (0+255),w,b
  6978  000B2A  0100               	movlb	0	; () banked
  6979  000B2C  2374               	addwfc	(i2___ftmul@f3_as_product+2)& (0+255),f,b
  6980  000B2E  D000               	goto	i2l2461
  6981  000B30                     i2l2461:
  6982                           
  6983                           ; BSR set to: 0
  6984  000B30  0100               	movlb	0	; () banked
  6985  000B32  90D8               	bcf	status,0,c
  6986  000B34  336A               	rrcf	(i2___ftmul@f1+2)& (0+255),f,b
  6987  000B36  3369               	rrcf	(i2___ftmul@f1+1)& (0+255),f,b
  6988  000B38  3368               	rrcf	i2___ftmul@f1& (0+255),f,b
  6989  000B3A  0100               	movlb	0	; () banked
  6990  000B3C  90D8               	bcf	status,0,c
  6991  000B3E  3374               	rrcf	(i2___ftmul@f3_as_product+2)& (0+255),f,b
  6992  000B40  3373               	rrcf	(i2___ftmul@f3_as_product+1)& (0+255),f,b
  6993  000B42  3372               	rrcf	i2___ftmul@f3_as_product& (0+255),f,b
  6994                           
  6995                           ; BSR set to: 0
  6996  000B44  0100               	movlb	0	; () banked
  6997  000B46  2F75               	decfsz	i2___ftmul@cntr& (0+255),f,b
  6998  000B48  D7E3               	goto	i2l2457
  6999  000B4A  D000               	goto	i2l2465
  7000  000B4C                     i2l2465:
  7001                           
  7002                           ; BSR set to: 0
  7003  000B4C  C072  F060         	movff	i2___ftmul@f3_as_product,i2___ftpack@arg
  7004  000B50  C073  F061         	movff	i2___ftmul@f3_as_product+1,i2___ftpack@arg+1
  7005  000B54  C074  F062         	movff	i2___ftmul@f3_as_product+2,i2___ftpack@arg+2
  7006  000B58  C071  F063         	movff	i2___ftmul@exp,i2___ftpack@exp
  7007  000B5C  C076  F064         	movff	i2___ftmul@sign,i2___ftpack@sign
  7008  000B60  EC53  F006         	call	i2___ftpack	;wreg free
  7009  000B64  C060  F068         	movff	?i2___ftpack,?i2___ftmul
  7010  000B68  C061  F069         	movff	?i2___ftpack+1,?i2___ftmul+1
  7011  000B6C  C062  F06A         	movff	?i2___ftpack+2,?i2___ftmul+2
  7012  000B70  D000               	goto	i2l875
  7013  000B72                     i2l875:
  7014  000B72  0012               	return		;funcret
  7015  000B74                     __end_ofi2___ftmul:
  7016                           	opt stack 0
  7017                           pclatu	equ	0xFFB
  7018                           pclath	equ	0xFFA
  7019                           tblptru	equ	0xFF8
  7020                           tblptrh	equ	0xFF7
  7021                           tblptrl	equ	0xFF6
  7022                           tablat	equ	0xFF5
  7023                           prodh	equ	0xFF4
  7024                           prodl	equ	0xFF3
  7025                           intcon	equ	0xFF2
  7026                           intcon2	equ	0xFF1
  7027                           intcon3	equ	0xFF0
  7028                           postinc0	equ	0xFEE
  7029                           fsr0h	equ	0xFEA
  7030                           fsr0l	equ	0xFE9
  7031                           wreg	equ	0xFE8
  7032                           fsr1h	equ	0xFE2
  7033                           fsr1l	equ	0xFE1
  7034                           bsr	equ	0xFE0
  7035                           indf2	equ	0xFDF
  7036                           postinc2	equ	0xFDE
  7037                           postdec2	equ	0xFDD
  7038                           fsr2h	equ	0xFDA
  7039                           fsr2l	equ	0xFD9
  7040                           status	equ	0xFD8
  7041                           
  7042 ;; *************** function i2___ftpack *****************
  7043 ;; Defined at:
  7044 ;;		line 62 in file "C:\Program Files (x86)\Microchip\xc8\v1.34\sources\common\float.c"
  7045 ;; Parameters:    Size  Location     Type
  7046 ;;  arg             3    0[BANK0 ] unsigned um
  7047 ;;  exp             1    3[BANK0 ] unsigned char 
  7048 ;;  sign            1    4[BANK0 ] unsigned char 
  7049 ;; Auto vars:     Size  Location     Type
  7050 ;;		None
  7051 ;; Return value:  Size  Location     Type
  7052 ;;                  3    0[BANK0 ] float 
  7053 ;; Registers used:
  7054 ;;		wreg, status,2, status,0
  7055 ;; Tracked objects:
  7056 ;;		On entry : 0/0
  7057 ;;		On exit  : 0/0
  7058 ;;		Unchanged: 0/0
  7059 ;; Data sizes:     COMRAM   BANK0   BANK1   BANK2
  7060 ;;      Params:         0       5       0       0
  7061 ;;      Locals:         0       0       0       0
  7062 ;;      Temps:          0       3       0       0
  7063 ;;      Totals:         0       8       0       0
  7064 ;;Total ram usage:        8 bytes
  7065 ;; Hardware stack levels used:    1
  7066 ;; This function calls:
  7067 ;;		Nothing
  7068 ;; This function is called by:
  7069 ;;		i2___ftadd
  7070 ;;		i2___ftmul
  7071 ;; This function uses a non-reentrant model
  7072 ;;
  7073                           
  7074                           	psect	text47
  7075  000CA6                     __ptext47:
  7076                           	opt stack 0
  7077  000CA6                     i2___ftpack:
  7078                           	opt stack 14
  7079                           
  7080                           ;incstack = 0
  7081  000CA6  0100               	movlb	0	; () banked
  7082  000CA8  5163               	movf	i2___ftpack@exp& (0+255),w,b
  7083  000CAA  0100               	movlb	0	; () banked
  7084  000CAC  B4D8               	btfsc	status,2,c
  7085  000CAE  D008               	goto	i2l2117
  7086                           
  7087                           ; BSR set to: 0
  7088  000CB0  0100               	movlb	0	; () banked
  7089  000CB2  5160               	movf	i2___ftpack@arg& (0+255),w,b
  7090  000CB4  0100               	movlb	0	; () banked
  7091  000CB6  1161               	iorwf	(i2___ftpack@arg+1)& (0+255),w,b
  7092  000CB8  0100               	movlb	0	; () banked
  7093  000CBA  1162               	iorwf	(i2___ftpack@arg+2)& (0+255),w,b
  7094  000CBC  A4D8               	btfss	status,2,c
  7095  000CBE  D013               	goto	i2l2123
  7096  000CC0                     i2l2117:
  7097                           
  7098                           ; BSR set to: 0
  7099  000CC0  0E00               	movlw	0
  7100  000CC2  0100               	movlb	0	; () banked
  7101  000CC4  6F60               	movwf	?i2___ftpack& (0+255),b
  7102  000CC6  0E00               	movlw	0
  7103  000CC8  0100               	movlb	0	; () banked
  7104  000CCA  6F61               	movwf	(?i2___ftpack+1)& (0+255),b
  7105  000CCC  0E00               	movlw	0
  7106  000CCE  0100               	movlb	0	; () banked
  7107  000CD0  6F62               	movwf	(?i2___ftpack+2)& (0+255),b
  7108                           
  7109                           ; BSR set to: 0
  7110  000CD2  D078               	goto	i2l788
  7111                           
  7112                           ; BSR set to: 0
  7113  000CD4  D008               	goto	i2l2123
  7114  000CD6                     i2l2121:
  7115                           
  7116                           ; BSR set to: 0
  7117  000CD6  0100               	movlb	0	; () banked
  7118  000CD8  2B63               	incf	i2___ftpack@exp& (0+255),f,b
  7119  000CDA  0100               	movlb	0	; () banked
  7120  000CDC  90D8               	bcf	status,0,c
  7121  000CDE  3362               	rrcf	(i2___ftpack@arg+2)& (0+255),f,b
  7122  000CE0  3361               	rrcf	(i2___ftpack@arg+1)& (0+255),f,b
  7123  000CE2  3360               	rrcf	i2___ftpack@arg& (0+255),f,b
  7124  000CE4  D000               	goto	i2l2123
  7125  000CE6                     i2l2123:
  7126                           
  7127                           ; BSR set to: 0
  7128  000CE6  0E00               	movlw	0
  7129  000CE8  0100               	movlb	0	; () banked
  7130  000CEA  1560               	andwf	i2___ftpack@arg& (0+255),w,b
  7131  000CEC  0100               	movlb	0	; () banked
  7132  000CEE  6F65               	movwf	??i2___ftpack& (0+255),b
  7133  000CF0  0E00               	movlw	0
  7134  000CF2  0100               	movlb	0	; () banked
  7135  000CF4  1561               	andwf	(i2___ftpack@arg+1)& (0+255),w,b
  7136  000CF6  0100               	movlb	0	; () banked
  7137  000CF8  6F66               	movwf	(??i2___ftpack+1)& (0+255),b
  7138  000CFA  0EFE               	movlw	254
  7139  000CFC  0100               	movlb	0	; () banked
  7140  000CFE  1562               	andwf	(i2___ftpack@arg+2)& (0+255),w,b
  7141  000D00  0100               	movlb	0	; () banked
  7142  000D02  6F67               	movwf	(??i2___ftpack+2)& (0+255),b
  7143  000D04  0100               	movlb	0	; () banked
  7144  000D06  5165               	movf	??i2___ftpack& (0+255),w,b
  7145  000D08  0100               	movlb	0	; () banked
  7146  000D0A  1166               	iorwf	(??i2___ftpack+1)& (0+255),w,b
  7147  000D0C  0100               	movlb	0	; () banked
  7148  000D0E  1167               	iorwf	(??i2___ftpack+2)& (0+255),w,b
  7149  000D10  B4D8               	btfsc	status,2,c
  7150  000D12  D013               	goto	i2l2129
  7151  000D14  D7E0               	goto	i2l2121
  7152                           
  7153                           ; BSR set to: 0
  7154  000D16  D011               	goto	i2l2129
  7155  000D18                     i2l2125:
  7156                           
  7157                           ; BSR set to: 0
  7158  000D18  0100               	movlb	0	; () banked
  7159  000D1A  2B63               	incf	i2___ftpack@exp& (0+255),f,b
  7160                           
  7161                           ; BSR set to: 0
  7162  000D1C  0E01               	movlw	1
  7163  000D1E  0100               	movlb	0	; () banked
  7164  000D20  2760               	addwf	i2___ftpack@arg& (0+255),f,b
  7165  000D22  0E00               	movlw	0
  7166  000D24  0100               	movlb	0	; () banked
  7167  000D26  2361               	addwfc	(i2___ftpack@arg+1)& (0+255),f,b
  7168  000D28  0E00               	movlw	0
  7169  000D2A  0100               	movlb	0	; () banked
  7170  000D2C  2362               	addwfc	(i2___ftpack@arg+2)& (0+255),f,b
  7171  000D2E  0100               	movlb	0	; () banked
  7172  000D30  90D8               	bcf	status,0,c
  7173  000D32  3362               	rrcf	(i2___ftpack@arg+2)& (0+255),f,b
  7174  000D34  3361               	rrcf	(i2___ftpack@arg+1)& (0+255),f,b
  7175  000D36  3360               	rrcf	i2___ftpack@arg& (0+255),f,b
  7176  000D38  D000               	goto	i2l2129
  7177  000D3A                     i2l2129:
  7178                           
  7179                           ; BSR set to: 0
  7180  000D3A  0E00               	movlw	0
  7181  000D3C  0100               	movlb	0	; () banked
  7182  000D3E  1560               	andwf	i2___ftpack@arg& (0+255),w,b
  7183  000D40  0100               	movlb	0	; () banked
  7184  000D42  6F65               	movwf	??i2___ftpack& (0+255),b
  7185  000D44  0E00               	movlw	0
  7186  000D46  0100               	movlb	0	; () banked
  7187  000D48  1561               	andwf	(i2___ftpack@arg+1)& (0+255),w,b
  7188  000D4A  0100               	movlb	0	; () banked
  7189  000D4C  6F66               	movwf	(??i2___ftpack+1)& (0+255),b
  7190  000D4E  0EFF               	movlw	255
  7191  000D50  0100               	movlb	0	; () banked
  7192  000D52  1562               	andwf	(i2___ftpack@arg+2)& (0+255),w,b
  7193  000D54  0100               	movlb	0	; () banked
  7194  000D56  6F67               	movwf	(??i2___ftpack+2)& (0+255),b
  7195  000D58  0100               	movlb	0	; () banked
  7196  000D5A  5165               	movf	??i2___ftpack& (0+255),w,b
  7197  000D5C  0100               	movlb	0	; () banked
  7198  000D5E  1166               	iorwf	(??i2___ftpack+1)& (0+255),w,b
  7199  000D60  0100               	movlb	0	; () banked
  7200  000D62  1167               	iorwf	(??i2___ftpack+2)& (0+255),w,b
  7201  000D64  B4D8               	btfsc	status,2,c
  7202  000D66  D00A               	goto	i2l2133
  7203  000D68  D7D7               	goto	i2l2125
  7204                           
  7205                           ; BSR set to: 0
  7206  000D6A  D008               	goto	i2l2133
  7207  000D6C                     i2l2131:
  7208                           
  7209                           ; BSR set to: 0
  7210  000D6C  0100               	movlb	0	; () banked
  7211  000D6E  0763               	decf	i2___ftpack@exp& (0+255),f,b
  7212  000D70  0100               	movlb	0	; () banked
  7213  000D72  90D8               	bcf	status,0,c
  7214  000D74  3760               	rlcf	i2___ftpack@arg& (0+255),f,b
  7215  000D76  3761               	rlcf	(i2___ftpack@arg+1)& (0+255),f,b
  7216  000D78  3762               	rlcf	(i2___ftpack@arg+2)& (0+255),f,b
  7217  000D7A  D000               	goto	i2l2133
  7218  000D7C                     i2l2133:
  7219                           
  7220                           ; BSR set to: 0
  7221  000D7C  0100               	movlb	0	; () banked
  7222  000D7E  BF61               	btfsc	(i2___ftpack@arg+1)& (0+255),7,b
  7223  000D80  D005               	goto	i2l799
  7224                           
  7225                           ; BSR set to: 0
  7226  000D82  0E02               	movlw	2
  7227  000D84  0100               	movlb	0	; () banked
  7228  000D86  6163               	cpfslt	i2___ftpack@exp& (0+255),b
  7229  000D88  D7F1               	goto	i2l2131
  7230  000D8A  D000               	goto	i2l799
  7231  000D8C                     i2l799:
  7232                           
  7233                           ; BSR set to: 0
  7234  000D8C  0100               	movlb	0	; () banked
  7235  000D8E  B163               	btfsc	i2___ftpack@exp& (0+255),0,b
  7236  000D90  D003               	goto	i2l2139
  7237                           
  7238                           ; BSR set to: 0
  7239  000D92  0100               	movlb	0	; () banked
  7240  000D94  9F61               	bcf	(i2___ftpack@arg+1)& (0+255),7,b
  7241  000D96  D000               	goto	i2l2139
  7242  000D98                     i2l2139:
  7243                           
  7244                           ; BSR set to: 0
  7245  000D98  0100               	movlb	0	; () banked
  7246  000D9A  90D8               	bcf	status,0,c
  7247  000D9C  3363               	rrcf	i2___ftpack@exp& (0+255),f,b
  7248  000D9E  0100               	movlb	0	; () banked
  7249  000DA0  5163               	movf	i2___ftpack@exp& (0+255),w,b
  7250  000DA2  0100               	movlb	0	; () banked
  7251  000DA4  1362               	iorwf	(i2___ftpack@arg+2)& (0+255),f,b
  7252                           
  7253                           ; BSR set to: 0
  7254  000DA6  0100               	movlb	0	; () banked
  7255  000DA8  5164               	movf	i2___ftpack@sign& (0+255),w,b
  7256  000DAA  0100               	movlb	0	; () banked
  7257  000DAC  B4D8               	btfsc	status,2,c
  7258  000DAE  D003               	goto	i2l2145
  7259                           
  7260                           ; BSR set to: 0
  7261  000DB0  0100               	movlb	0	; () banked
  7262  000DB2  8F62               	bsf	(i2___ftpack@arg+2)& (0+255),7,b
  7263  000DB4  D000               	goto	i2l2145
  7264  000DB6                     i2l2145:
  7265                           
  7266                           ; BSR set to: 0
  7267  000DB6  C060  F060         	movff	i2___ftpack@arg,?i2___ftpack
  7268  000DBA  C061  F061         	movff	i2___ftpack@arg+1,?i2___ftpack+1
  7269  000DBE  C062  F062         	movff	i2___ftpack@arg+2,?i2___ftpack+2
  7270  000DC2  D000               	goto	i2l788
  7271  000DC4                     i2l788:
  7272                           
  7273                           ; BSR set to: 0
  7274  000DC4  0012               	return		;funcret
  7275  000DC6                     __end_ofi2___ftpack:
  7276                           	opt stack 0
  7277                           pclatu	equ	0xFFB
  7278                           pclath	equ	0xFFA
  7279                           tblptru	equ	0xFF8
  7280                           tblptrh	equ	0xFF7
  7281                           tblptrl	equ	0xFF6
  7282                           tablat	equ	0xFF5
  7283                           prodh	equ	0xFF4
  7284                           prodl	equ	0xFF3
  7285                           intcon	equ	0xFF2
  7286                           intcon2	equ	0xFF1
  7287                           intcon3	equ	0xFF0
  7288                           postinc0	equ	0xFEE
  7289                           fsr0h	equ	0xFEA
  7290                           fsr0l	equ	0xFE9
  7291                           wreg	equ	0xFE8
  7292                           fsr1h	equ	0xFE2
  7293                           fsr1l	equ	0xFE1
  7294                           bsr	equ	0xFE0
  7295                           indf2	equ	0xFDF
  7296                           postinc2	equ	0xFDE
  7297                           postdec2	equ	0xFDD
  7298                           fsr2h	equ	0xFDA
  7299                           fsr2l	equ	0xFD9
  7300                           status	equ	0xFD8
  7301                           
  7302 ;; *************** function i2_ecretage_consignes *****************
  7303 ;; Defined at:
  7304 ;;		line 44 in file "asserv.c"
  7305 ;; Parameters:    Size  Location     Type
  7306 ;;  commande        2    9[BANK0 ] PTR 
  7307 ;;		 -> asserv@commande(3), 
  7308 ;; Auto vars:     Size  Location     Type
  7309 ;;		None
  7310 ;; Return value:  Size  Location     Type
  7311 ;;		None               void
  7312 ;; Registers used:
  7313 ;;		wreg, fsr2l, fsr2h, status,2, status,0, cstack
  7314 ;; Tracked objects:
  7315 ;;		On entry : 0/0
  7316 ;;		On exit  : 0/0
  7317 ;;		Unchanged: 0/0
  7318 ;; Data sizes:     COMRAM   BANK0   BANK1   BANK2
  7319 ;;      Params:         0       2       0       0
  7320 ;;      Locals:         0       0       0       0
  7321 ;;      Temps:          0       0       0       0
  7322 ;;      Totals:         0       2       0       0
  7323 ;;Total ram usage:        2 bytes
  7324 ;; Hardware stack levels used:    1
  7325 ;; Hardware stack levels required when called:    1
  7326 ;; This function calls:
  7327 ;;		i2___ftge
  7328 ;; This function is called by:
  7329 ;;		i2_asserv
  7330 ;; This function uses a non-reentrant model
  7331 ;;
  7332                           
  7333                           	psect	text48
  7334  00149C                     __ptext48:
  7335                           	opt stack 0
  7336  00149C                     i2_ecretage_consignes:
  7337                           	opt stack 15
  7338                           
  7339                           ;asserv.c: 46: if (*commande > (double) (12. * 100. / 12.))
  7340                           
  7341                           ; BSR set to: 0
  7342                           ;incstack = 0
  7343  00149C  0E00               	movlw	0
  7344  00149E  0100               	movlb	0	; () banked
  7345  0014A0  6F60               	movwf	i2___ftge@ff1& (0+255),b
  7346  0014A2  0EC8               	movlw	200
  7347  0014A4  0100               	movlb	0	; () banked
  7348  0014A6  6F61               	movwf	(i2___ftge@ff1+1)& (0+255),b
  7349  0014A8  0E42               	movlw	66
  7350  0014AA  0100               	movlb	0	; () banked
  7351  0014AC  6F62               	movwf	(i2___ftge@ff1+2)& (0+255),b
  7352  0014AE  C069  FFD9         	movff	i2ecretage_consignes@commande,fsr2l
  7353  0014B2  C06A  FFDA         	movff	i2ecretage_consignes@commande+1,fsr2h
  7354  0014B6  CFDE F063          	movff	postinc2,i2___ftge@ff2
  7355  0014BA  CFDE F064          	movff	postinc2,i2___ftge@ff2+1
  7356  0014BE  CFDD F065          	movff	postdec2,i2___ftge@ff2+2
  7357  0014C2  EC43  F008         	call	i2___ftge	;wreg free
  7358  0014C6  0100               	movlb	0	; () banked
  7359  0014C8  B0D8               	btfsc	status,0,c
  7360  0014CA  D00A               	goto	i2l2567
  7361                           
  7362                           ; BSR set to: 0
  7363                           ;asserv.c: 47: *commande = (double) (12. * 100. / 12.);
  7364  0014CC  C069  FFD9         	movff	i2ecretage_consignes@commande,fsr2l
  7365  0014D0  C06A  FFDA         	movff	i2ecretage_consignes@commande+1,fsr2h
  7366  0014D4  0E00               	movlw	0
  7367  0014D6  6EDE               	movwf	postinc2,c
  7368  0014D8  0EC8               	movlw	200
  7369  0014DA  6EDE               	movwf	postinc2,c
  7370  0014DC  0E42               	movlw	66
  7371  0014DE  D021               	goto	L4
  7372  0014E0                     i2l2567:
  7373                           
  7374                           ; BSR set to: 0
  7375                           ;asserv.c: 48: else if (*commande < - (double) (12. * 100. / 12.))
  7376  0014E0  C069  FFD9         	movff	i2ecretage_consignes@commande,fsr2l
  7377  0014E4  C06A  FFDA         	movff	i2ecretage_consignes@commande+1,fsr2h
  7378  0014E8  CFDE F060          	movff	postinc2,i2___ftge@ff1
  7379  0014EC  CFDE F061          	movff	postinc2,i2___ftge@ff1+1
  7380  0014F0  CFDD F062          	movff	postdec2,i2___ftge@ff1+2
  7381  0014F4  0E00               	movlw	0
  7382  0014F6  0100               	movlb	0	; () banked
  7383  0014F8  6F63               	movwf	i2___ftge@ff2& (0+255),b
  7384  0014FA  0EC8               	movlw	200
  7385  0014FC  0100               	movlb	0	; () banked
  7386  0014FE  6F64               	movwf	(i2___ftge@ff2+1)& (0+255),b
  7387  001500  0EC2               	movlw	194
  7388  001502  0100               	movlb	0	; () banked
  7389  001504  6F65               	movwf	(i2___ftge@ff2+2)& (0+255),b
  7390  001506  EC43  F008         	call	i2___ftge	;wreg free
  7391  00150A  0100               	movlb	0	; () banked
  7392  00150C  B0D8               	btfsc	status,0,c
  7393  00150E  D00B               	goto	i2l455
  7394                           
  7395                           ; BSR set to: 0
  7396                           ;asserv.c: 49: *commande = - (double) (12. * 100. / 12.);
  7397  001510  C069  FFD9         	movff	i2ecretage_consignes@commande,fsr2l
  7398  001514  C06A  FFDA         	movff	i2ecretage_consignes@commande+1,fsr2h
  7399  001518  0E00               	movlw	0
  7400  00151A  6EDE               	movwf	postinc2,c
  7401  00151C  0EC8               	movlw	200
  7402  00151E  6EDE               	movwf	postinc2,c
  7403  001520  0EC2               	movlw	194
  7404  001522                     L4:
  7405  001522  6EDE               	movwf	postinc2,c
  7406                           
  7407                           ; BSR set to: 0
  7408  001524  D000               	goto	i2l455
  7409  001526                     i2l455:
  7410                           
  7411                           ; BSR set to: 0
  7412  001526  0012               	return		;funcret
  7413  001528                     __end_ofi2_ecretage_consignes:
  7414                           	opt stack 0
  7415                           pclatu	equ	0xFFB
  7416                           pclath	equ	0xFFA
  7417                           tblptru	equ	0xFF8
  7418                           tblptrh	equ	0xFF7
  7419                           tblptrl	equ	0xFF6
  7420                           tablat	equ	0xFF5
  7421                           prodh	equ	0xFF4
  7422                           prodl	equ	0xFF3
  7423                           intcon	equ	0xFF2
  7424                           intcon2	equ	0xFF1
  7425                           intcon3	equ	0xFF0
  7426                           postinc0	equ	0xFEE
  7427                           fsr0h	equ	0xFEA
  7428                           fsr0l	equ	0xFE9
  7429                           wreg	equ	0xFE8
  7430                           fsr1h	equ	0xFE2
  7431                           fsr1l	equ	0xFE1
  7432                           bsr	equ	0xFE0
  7433                           indf2	equ	0xFDF
  7434                           postinc2	equ	0xFDE
  7435                           postdec2	equ	0xFDD
  7436                           fsr2h	equ	0xFDA
  7437                           fsr2l	equ	0xFD9
  7438                           status	equ	0xFD8
  7439                           
  7440 ;; *************** function i2___ftge *****************
  7441 ;; Defined at:
  7442 ;;		line 4 in file "C:\Program Files (x86)\Microchip\xc8\v1.34\sources\common\ftge.c"
  7443 ;; Parameters:    Size  Location     Type
  7444 ;;  ff1             3    0[BANK0 ] float 
  7445 ;;  ff2             3    3[BANK0 ] float 
  7446 ;; Auto vars:     Size  Location     Type
  7447 ;;		None
  7448 ;; Return value:  Size  Location     Type
  7449 ;;		None               void
  7450 ;; Registers used:
  7451 ;;		wreg, status,2, status,0
  7452 ;; Tracked objects:
  7453 ;;		On entry : 0/0
  7454 ;;		On exit  : 0/0
  7455 ;;		Unchanged: 0/0
  7456 ;; Data sizes:     COMRAM   BANK0   BANK1   BANK2
  7457 ;;      Params:         0       6       0       0
  7458 ;;      Locals:         0       0       0       0
  7459 ;;      Temps:          0       3       0       0
  7460 ;;      Totals:         0       9       0       0
  7461 ;;Total ram usage:        9 bytes
  7462 ;; Hardware stack levels used:    1
  7463 ;; This function calls:
  7464 ;;		Nothing
  7465 ;; This function is called by:
  7466 ;;		i2_envoit_pwm
  7467 ;;		i2_ecretage_consignes
  7468 ;;		i2_saturation_erreur_integralle_vitesse
  7469 ;; This function uses a non-reentrant model
  7470 ;;
  7471                           
  7472                           	psect	text49
  7473  001086                     __ptext49:
  7474                           	opt stack 0
  7475  001086                     i2___ftge:
  7476                           	opt stack 14
  7477                           
  7478                           ; BSR set to: 0
  7479                           ;incstack = 0
  7480  001086  0100               	movlb	0	; () banked
  7481  001088  AF62               	btfss	(i2___ftge@ff1+2)& (0+255),7,b
  7482  00108A  D01E               	goto	i2l2153
  7483                           
  7484                           ; BSR set to: 0
  7485  00108C  C060  F066         	movff	i2___ftge@ff1,??i2___ftge
  7486  001090  C061  F067         	movff	i2___ftge@ff1+1,??i2___ftge+1
  7487  001094  C062  F068         	movff	i2___ftge@ff1+2,??i2___ftge+2
  7488  001098  0100               	movlb	0	; () banked
  7489  00109A  1F66               	comf	??i2___ftge& (0+255),f,b
  7490  00109C  1F67               	comf	(??i2___ftge+1)& (0+255),f,b
  7491  00109E  1F68               	comf	(??i2___ftge+2)& (0+255),f,b
  7492  0010A0  2B66               	incf	??i2___ftge& (0+255),f,b
  7493  0010A2  0E00               	movlw	0
  7494  0010A4  2367               	addwfc	(??i2___ftge+1)& (0+255),f,b
  7495  0010A6  2368               	addwfc	(??i2___ftge+2)& (0+255),f,b
  7496  0010A8  0E00               	movlw	0
  7497  0010AA  0100               	movlb	0	; () banked
  7498  0010AC  2566               	addwf	??i2___ftge& (0+255),w,b
  7499  0010AE  0100               	movlb	0	; () banked
  7500  0010B0  6F60               	movwf	i2___ftge@ff1& (0+255),b
  7501  0010B2  0E00               	movlw	0
  7502  0010B4  0100               	movlb	0	; () banked
  7503  0010B6  2167               	addwfc	(??i2___ftge+1)& (0+255),w,b
  7504  0010B8  0100               	movlb	0	; () banked
  7505  0010BA  6F61               	movwf	(i2___ftge@ff1+1)& (0+255),b
  7506  0010BC  0E80               	movlw	128
  7507  0010BE  0100               	movlb	0	; () banked
  7508  0010C0  2168               	addwfc	(??i2___ftge+2)& (0+255),w,b
  7509  0010C2  0100               	movlb	0	; () banked
  7510  0010C4  6F62               	movwf	(i2___ftge@ff1+2)& (0+255),b
  7511  0010C6  D000               	goto	i2l2153
  7512  0010C8                     i2l2153:
  7513                           
  7514                           ; BSR set to: 0
  7515  0010C8  0100               	movlb	0	; () banked
  7516  0010CA  AF65               	btfss	(i2___ftge@ff2+2)& (0+255),7,b
  7517  0010CC  D01E               	goto	i2l2157
  7518                           
  7519                           ; BSR set to: 0
  7520  0010CE  C063  F066         	movff	i2___ftge@ff2,??i2___ftge
  7521  0010D2  C064  F067         	movff	i2___ftge@ff2+1,??i2___ftge+1
  7522  0010D6  C065  F068         	movff	i2___ftge@ff2+2,??i2___ftge+2
  7523  0010DA  0100               	movlb	0	; () banked
  7524  0010DC  1F66               	comf	??i2___ftge& (0+255),f,b
  7525  0010DE  1F67               	comf	(??i2___ftge+1)& (0+255),f,b
  7526  0010E0  1F68               	comf	(??i2___ftge+2)& (0+255),f,b
  7527  0010E2  2B66               	incf	??i2___ftge& (0+255),f,b
  7528  0010E4  0E00               	movlw	0
  7529  0010E6  2367               	addwfc	(??i2___ftge+1)& (0+255),f,b
  7530  0010E8  2368               	addwfc	(??i2___ftge+2)& (0+255),f,b
  7531  0010EA  0E00               	movlw	0
  7532  0010EC  0100               	movlb	0	; () banked
  7533  0010EE  2566               	addwf	??i2___ftge& (0+255),w,b
  7534  0010F0  0100               	movlb	0	; () banked
  7535  0010F2  6F63               	movwf	i2___ftge@ff2& (0+255),b
  7536  0010F4  0E00               	movlw	0
  7537  0010F6  0100               	movlb	0	; () banked
  7538  0010F8  2167               	addwfc	(??i2___ftge+1)& (0+255),w,b
  7539  0010FA  0100               	movlb	0	; () banked
  7540  0010FC  6F64               	movwf	(i2___ftge@ff2+1)& (0+255),b
  7541  0010FE  0E80               	movlw	128
  7542  001100  0100               	movlb	0	; () banked
  7543  001102  2168               	addwfc	(??i2___ftge+2)& (0+255),w,b
  7544  001104  0100               	movlb	0	; () banked
  7545  001106  6F65               	movwf	(i2___ftge@ff2+2)& (0+255),b
  7546  001108  D000               	goto	i2l2157
  7547  00110A                     i2l2157:
  7548                           
  7549                           ; BSR set to: 0
  7550  00110A  0E00               	movlw	0
  7551  00110C  0100               	movlb	0	; () banked
  7552  00110E  1B60               	xorwf	i2___ftge@ff1& (0+255),f,b
  7553  001110  0E00               	movlw	0
  7554  001112  0100               	movlb	0	; () banked
  7555  001114  1B61               	xorwf	(i2___ftge@ff1+1)& (0+255),f,b
  7556  001116  0E80               	movlw	128
  7557  001118  0100               	movlb	0	; () banked
  7558  00111A  1B62               	xorwf	(i2___ftge@ff1+2)& (0+255),f,b
  7559                           
  7560                           ; BSR set to: 0
  7561  00111C  0E00               	movlw	0
  7562  00111E  0100               	movlb	0	; () banked
  7563  001120  1B63               	xorwf	i2___ftge@ff2& (0+255),f,b
  7564  001122  0E00               	movlw	0
  7565  001124  0100               	movlb	0	; () banked
  7566  001126  1B64               	xorwf	(i2___ftge@ff2+1)& (0+255),f,b
  7567  001128  0E80               	movlw	128
  7568  00112A  0100               	movlb	0	; () banked
  7569  00112C  1B65               	xorwf	(i2___ftge@ff2+2)& (0+255),f,b
  7570  00112E  0100               	movlb	0	; () banked
  7571  001130  5163               	movf	i2___ftge@ff2& (0+255),w,b
  7572  001132  0100               	movlb	0	; () banked
  7573  001134  5D60               	subwf	i2___ftge@ff1& (0+255),w,b
  7574  001136  0100               	movlb	0	; () banked
  7575  001138  5164               	movf	(i2___ftge@ff2+1)& (0+255),w,b
  7576  00113A  0100               	movlb	0	; () banked
  7577  00113C  5961               	subwfb	(i2___ftge@ff1+1)& (0+255),w,b
  7578  00113E  0100               	movlb	0	; () banked
  7579  001140  5165               	movf	(i2___ftge@ff2+2)& (0+255),w,b
  7580  001142  0100               	movlb	0	; () banked
  7581  001144  5962               	subwfb	(i2___ftge@ff1+2)& (0+255),w,b
  7582  001146  B0D8               	btfsc	status,0,c
  7583  001148  D002               	goto	i2l2163
  7584                           
  7585                           ; BSR set to: 0
  7586  00114A  90D8               	bcf	status,0,c
  7587  00114C  D002               	goto	i2l869
  7588  00114E                     i2l2163:
  7589                           
  7590                           ; BSR set to: 0
  7591  00114E  80D8               	bsf	status,0,c
  7592                           
  7593                           ; BSR set to: 0
  7594  001150  D000               	goto	i2l869
  7595  001152                     i2l869:
  7596                           
  7597                           ; BSR set to: 0
  7598  001152  0012               	return		;funcret
  7599  001154                     __end_ofi2___ftge:
  7600                           	opt stack 0
  7601                           pclatu	equ	0xFFB
  7602                           pclath	equ	0xFFA
  7603                           tblptru	equ	0xFF8
  7604                           tblptrh	equ	0xFF7
  7605                           tblptrl	equ	0xFF6
  7606                           tablat	equ	0xFF5
  7607                           prodh	equ	0xFF4
  7608                           prodl	equ	0xFF3
  7609                           intcon	equ	0xFF2
  7610                           intcon2	equ	0xFF1
  7611                           intcon3	equ	0xFF0
  7612                           postinc0	equ	0xFEE
  7613                           fsr0h	equ	0xFEA
  7614                           fsr0l	equ	0xFE9
  7615                           wreg	equ	0xFE8
  7616                           fsr1h	equ	0xFE2
  7617                           fsr1l	equ	0xFE1
  7618                           bsr	equ	0xFE0
  7619                           indf2	equ	0xFDF
  7620                           postinc2	equ	0xFDE
  7621                           postdec2	equ	0xFDD
  7622                           fsr2h	equ	0xFDA
  7623                           fsr2l	equ	0xFD9
  7624                           status	equ	0xFD8
  7625                           
  7626 ;; *************** function i2_interruption_QEI *****************
  7627 ;; Defined at:
  7628 ;;		line 158 in file "interruptions.c"
  7629 ;; Parameters:    Size  Location     Type
  7630 ;;		None
  7631 ;; Auto vars:     Size  Location     Type
  7632 ;;		None
  7633 ;; Return value:  Size  Location     Type
  7634 ;;		None               void
  7635 ;; Registers used:
  7636 ;;		status,2, status,0
  7637 ;; Tracked objects:
  7638 ;;		On entry : 0/0
  7639 ;;		On exit  : 0/0
  7640 ;;		Unchanged: 0/0
  7641 ;; Data sizes:     COMRAM   BANK0   BANK1   BANK2
  7642 ;;      Params:         0       0       0       0
  7643 ;;      Locals:         0       0       0       0
  7644 ;;      Temps:          0       0       0       0
  7645 ;;      Totals:         0       0       0       0
  7646 ;;Total ram usage:        0 bytes
  7647 ;; Hardware stack levels used:    1
  7648 ;; This function calls:
  7649 ;;		Nothing
  7650 ;; This function is called by:
  7651 ;;		i2_subroutine_interruptions
  7652 ;; This function uses a non-reentrant model
  7653 ;;
  7654                           
  7655                           	psect	text50
  7656  001B76                     __ptext50:
  7657                           	opt stack 0
  7658  001B76                     i2_interruption_QEI:
  7659                           	opt stack 18
  7660                           
  7661                           ;interruptions.c: 160: PIR3bits.IC2QEIF = 0;
  7662                           
  7663                           ; BSR set to: 0
  7664                           ;incstack = 0
  7665  001B76  94A4               	bcf	4004,2,c	;volatile
  7666                           
  7667                           ;interruptions.c: 161: QEICONbits.QERR = 0;
  7668  001B78  9CB6               	bcf	4022,6,c	;volatile
  7669                           
  7670                           ;interruptions.c: 163: if (QEICONbits.UPDOWN == 1)
  7671  001B7A  AAB6               	btfss	4022,5,c	;volatile
  7672  001B7C  D002               	goto	i2l2731
  7673                           
  7674                           ;interruptions.c: 164: {
  7675                           ;interruptions.c: 165: OVERFLOW_CODEUR++;
  7676  001B7E  2A4E               	incf	_OVERFLOW_CODEUR,f,c
  7677                           
  7678                           ;interruptions.c: 166: }
  7679  001B80  D002               	goto	i2l343
  7680  001B82                     i2l2731:
  7681                           
  7682                           ;interruptions.c: 167: else
  7683                           ;interruptions.c: 168: {
  7684                           ;interruptions.c: 169: OVERFLOW_CODEUR--;
  7685  001B82  064E               	decf	_OVERFLOW_CODEUR,f,c
  7686  001B84  D000               	goto	i2l343
  7687  001B86                     i2l343:
  7688  001B86  0012               	return		;funcret
  7689  001B88                     __end_ofi2_interruption_QEI:
  7690                           	opt stack 0
  7691                           pclatu	equ	0xFFB
  7692                           pclath	equ	0xFFA
  7693                           tblptru	equ	0xFF8
  7694                           tblptrh	equ	0xFF7
  7695                           tblptrl	equ	0xFF6
  7696                           tablat	equ	0xFF5
  7697                           prodh	equ	0xFF4
  7698                           prodl	equ	0xFF3
  7699                           intcon	equ	0xFF2
  7700                           intcon2	equ	0xFF1
  7701                           intcon3	equ	0xFF0
  7702                           postinc0	equ	0xFEE
  7703                           fsr0h	equ	0xFEA
  7704                           fsr0l	equ	0xFE9
  7705                           wreg	equ	0xFE8
  7706                           fsr1h	equ	0xFE2
  7707                           fsr1l	equ	0xFE1
  7708                           bsr	equ	0xFE0
  7709                           indf2	equ	0xFDF
  7710                           postinc2	equ	0xFDE
  7711                           postdec2	equ	0xFDD
  7712                           fsr2h	equ	0xFDA
  7713                           fsr2l	equ	0xFD9
  7714                           status	equ	0xFD8
  7715                           
  7716 ;; *************** function i2_interruption_INT0 *****************
  7717 ;; Defined at:
  7718 ;;		line 141 in file "interruptions.c"
  7719 ;; Parameters:    Size  Location     Type
  7720 ;;		None
  7721 ;; Auto vars:     Size  Location     Type
  7722 ;;		None
  7723 ;; Return value:  Size  Location     Type
  7724 ;;		None               void
  7725 ;; Registers used:
  7726 ;;		None
  7727 ;; Tracked objects:
  7728 ;;		On entry : 0/0
  7729 ;;		On exit  : 0/0
  7730 ;;		Unchanged: 0/0
  7731 ;; Data sizes:     COMRAM   BANK0   BANK1   BANK2
  7732 ;;      Params:         0       0       0       0
  7733 ;;      Locals:         0       0       0       0
  7734 ;;      Temps:          0       0       0       0
  7735 ;;      Totals:         0       0       0       0
  7736 ;;Total ram usage:        0 bytes
  7737 ;; Hardware stack levels used:    1
  7738 ;; This function calls:
  7739 ;;		Nothing
  7740 ;; This function is called by:
  7741 ;;		i2_subroutine_interruptions
  7742 ;; This function uses a non-reentrant model
  7743 ;;
  7744                           
  7745                           	psect	text51
  7746  001BC6                     __ptext51:
  7747                           	opt stack 0
  7748  001BC6                     i2_interruption_INT0:
  7749                           	opt stack 18
  7750                           
  7751                           ;interruptions.c: 143: INTCONbits.INT0IF = 0;
  7752                           
  7753                           ;incstack = 0
  7754  001BC6  92F2               	bcf	intcon,1,c	;volatile
  7755  001BC8  0012               	return		;funcret
  7756  001BCA                     __end_ofi2_interruption_INT0:
  7757                           	opt stack 0
  7758                           pclatu	equ	0xFFB
  7759                           pclath	equ	0xFFA
  7760                           tblptru	equ	0xFF8
  7761                           tblptrh	equ	0xFF7
  7762                           tblptrl	equ	0xFF6
  7763                           tablat	equ	0xFF5
  7764                           prodh	equ	0xFF4
  7765                           prodl	equ	0xFF3
  7766                           intcon	equ	0xFF2
  7767                           intcon2	equ	0xFF1
  7768                           intcon3	equ	0xFF0
  7769                           postinc0	equ	0xFEE
  7770                           fsr0h	equ	0xFEA
  7771                           fsr0l	equ	0xFE9
  7772                           wreg	equ	0xFE8
  7773                           fsr1h	equ	0xFE2
  7774                           fsr1l	equ	0xFE1
  7775                           bsr	equ	0xFE0
  7776                           indf2	equ	0xFDF
  7777                           postinc2	equ	0xFDE
  7778                           postdec2	equ	0xFDD
  7779                           fsr2h	equ	0xFDA
  7780                           fsr2l	equ	0xFD9
  7781                           status	equ	0xFD8
  7782                           
  7783 ;; *************** function i2_interrupt_TX *****************
  7784 ;; Defined at:
  7785 ;;		line 207 in file "interruptions.c"
  7786 ;; Parameters:    Size  Location     Type
  7787 ;;		None
  7788 ;; Auto vars:     Size  Location     Type
  7789 ;;		None
  7790 ;; Return value:  Size  Location     Type
  7791 ;;		None               void
  7792 ;; Registers used:
  7793 ;;		None
  7794 ;; Tracked objects:
  7795 ;;		On entry : 0/0
  7796 ;;		On exit  : 0/0
  7797 ;;		Unchanged: 0/0
  7798 ;; Data sizes:     COMRAM   BANK0   BANK1   BANK2
  7799 ;;      Params:         0       0       0       0
  7800 ;;      Locals:         0       0       0       0
  7801 ;;      Temps:          0       0       0       0
  7802 ;;      Totals:         0       0       0       0
  7803 ;;Total ram usage:        0 bytes
  7804 ;; Hardware stack levels used:    1
  7805 ;; This function calls:
  7806 ;;		Nothing
  7807 ;; This function is called by:
  7808 ;;		i2_subroutine_interruptions
  7809 ;; This function uses a non-reentrant model
  7810 ;;
  7811                           
  7812                           	psect	text52
  7813  001BCA                     __ptext52:
  7814                           	opt stack 0
  7815  001BCA                     i2_interrupt_TX:
  7816                           	opt stack 18
  7817                           
  7818                           ;interruptions.c: 209: PIR1bits.TXIF = 0;
  7819                           
  7820                           ;incstack = 0
  7821  001BCA  989E               	bcf	3998,4,c	;volatile
  7822  001BCC  0012               	return		;funcret
  7823  001BCE                     __end_ofi2_interrupt_TX:
  7824                           	opt stack 0
  7825                           pclatu	equ	0xFFB
  7826                           pclath	equ	0xFFA
  7827                           tblptru	equ	0xFF8
  7828                           tblptrh	equ	0xFF7
  7829                           tblptrl	equ	0xFF6
  7830                           tablat	equ	0xFF5
  7831                           prodh	equ	0xFF4
  7832                           prodl	equ	0xFF3
  7833                           intcon	equ	0xFF2
  7834                           intcon2	equ	0xFF1
  7835                           intcon3	equ	0xFF0
  7836                           postinc0	equ	0xFEE
  7837                           fsr0h	equ	0xFEA
  7838                           fsr0l	equ	0xFE9
  7839                           wreg	equ	0xFE8
  7840                           fsr1h	equ	0xFE2
  7841                           fsr1l	equ	0xFE1
  7842                           bsr	equ	0xFE0
  7843                           indf2	equ	0xFDF
  7844                           postinc2	equ	0xFDE
  7845                           postdec2	equ	0xFDD
  7846                           fsr2h	equ	0xFDA
  7847                           fsr2l	equ	0xFD9
  7848                           status	equ	0xFD8
  7849                           
  7850 ;; *************** function i2_interrupt_RX *****************
  7851 ;; Defined at:
  7852 ;;		line 188 in file "interruptions.c"
  7853 ;; Parameters:    Size  Location     Type
  7854 ;;		None
  7855 ;; Auto vars:     Size  Location     Type
  7856 ;;  interrupt_RX    1    0[BANK0 ] unsigned char 
  7857 ;; Return value:  Size  Location     Type
  7858 ;;		None               void
  7859 ;; Registers used:
  7860 ;;		wreg, fsr2l, fsr2h, status,2, status,0, prodl, prodh
  7861 ;; Tracked objects:
  7862 ;;		On entry : 0/0
  7863 ;;		On exit  : 0/0
  7864 ;;		Unchanged: 0/0
  7865 ;; Data sizes:     COMRAM   BANK0   BANK1   BANK2
  7866 ;;      Params:         0       0       0       0
  7867 ;;      Locals:         0       1       0       0
  7868 ;;      Temps:          0       0       0       0
  7869 ;;      Totals:         0       1       0       0
  7870 ;;Total ram usage:        1 bytes
  7871 ;; Hardware stack levels used:    1
  7872 ;; This function calls:
  7873 ;;		Nothing
  7874 ;; This function is called by:
  7875 ;;		i2_subroutine_interruptions
  7876 ;; This function uses a non-reentrant model
  7877 ;;
  7878                           
  7879                           	psect	text53
  7880  001996                     __ptext53:
  7881                           	opt stack 0
  7882  001996                     i2_interrupt_RX:
  7883                           	opt stack 18
  7884                           
  7885                           ;interruptions.c: 190: PIR1bits.RCIF = 0;
  7886                           
  7887                           ;incstack = 0
  7888  001996  9A9E               	bcf	3998,5,c	;volatile
  7889                           
  7890                           ;interruptions.c: 191: PORTBbits.RB0 = 1;
  7891  001998  8081               	bsf	3969,0,c	;volatile
  7892                           
  7893                           ;interruptions.c: 193: if (uart_reception.indice < 100)
  7894  00199A  0E64               	movlw	100
  7895  00199C  0101               	movlb	1	; () banked
  7896  00199E  6164               	cpfslt	(_uart_reception+100)& (0+255),b
  7897  0019A0  D011               	goto	i2l2745
  7898                           
  7899                           ; BSR set to: 1
  7900                           ;interruptions.c: 194: {
  7901                           ;interruptions.c: 195: uart_reception.buffer_reeption[uart_reception.indice] = RCREG;
  7902  0019A2  0101               	movlb	1	; () banked
  7903  0019A4  5164               	movf	(_uart_reception+100)& (0+255),w,b
  7904  0019A6  0D01               	mullw	1
  7905  0019A8  0E00               	movlw	low _uart_reception
  7906  0019AA  24F3               	addwf	prodl,w,c
  7907  0019AC  6ED9               	movwf	fsr2l,c
  7908  0019AE  0E01               	movlw	high _uart_reception
  7909  0019B0  20F4               	addwfc	prodh,w,c
  7910  0019B2  6EDA               	movwf	fsr2h,c
  7911  0019B4  CFAE FFDF          	movff	4014,indf2	;volatile
  7912                           
  7913                           ; BSR set to: 1
  7914                           ;interruptions.c: 196: uart_reception.buffer_vide = 0;
  7915  0019B8  0E00               	movlw	0
  7916  0019BA  0101               	movlb	1	; () banked
  7917  0019BC  6F66               	movwf	(_uart_reception+102)& (0+255),b
  7918                           
  7919                           ; BSR set to: 1
  7920                           ;interruptions.c: 197: uart_reception.indice++;
  7921  0019BE  0101               	movlb	1	; () banked
  7922  0019C0  2B64               	incf	(_uart_reception+100)& (0+255),f,b
  7923                           
  7924                           ;interruptions.c: 198: }
  7925  0019C2  D006               	goto	i2l354
  7926  0019C4                     i2l2745:
  7927                           
  7928                           ; BSR set to: 1
  7929                           ;interruptions.c: 199: else
  7930                           ;interruptions.c: 200: {
  7931                           ;interruptions.c: 201: uart_reception.buffer_plein = 1;
  7932  0019C4  0E01               	movlw	1
  7933  0019C6  0101               	movlb	1	; () banked
  7934  0019C8  6F65               	movwf	(_uart_reception+101)& (0+255),b
  7935                           
  7936                           ; BSR set to: 1
  7937                           ;interruptions.c: 202: uint8_t temp = RCREG;
  7938  0019CA  CFAE F060          	movff	4014,i2interrupt_RX@temp	;volatile
  7939  0019CE  D000               	goto	i2l354
  7940  0019D0                     i2l354:
  7941                           
  7942                           ; BSR set to: 1
  7943  0019D0  0012               	return		;funcret
  7944  0019D2                     __end_ofi2_interrupt_RX:
  7945                           	opt stack 0
  7946                           pclatu	equ	0xFFB
  7947                           pclath	equ	0xFFA
  7948                           tblptru	equ	0xFF8
  7949                           tblptrh	equ	0xFF7
  7950                           tblptrl	equ	0xFF6
  7951                           tablat	equ	0xFF5
  7952                           prodh	equ	0xFF4
  7953                           prodl	equ	0xFF3
  7954                           intcon	equ	0xFF2
  7955                           intcon2	equ	0xFF1
  7956                           intcon3	equ	0xFF0
  7957                           postinc0	equ	0xFEE
  7958                           fsr0h	equ	0xFEA
  7959                           fsr0l	equ	0xFE9
  7960                           wreg	equ	0xFE8
  7961                           fsr1h	equ	0xFE2
  7962                           fsr1l	equ	0xFE1
  7963                           bsr	equ	0xFE0
  7964                           indf2	equ	0xFDF
  7965                           postinc2	equ	0xFDE
  7966                           postdec2	equ	0xFDD
  7967                           fsr2h	equ	0xFDA
  7968                           fsr2l	equ	0xFD9
  7969                           status	equ	0xFD8
  7970                           pclatu	equ	0xFFB
  7971                           pclath	equ	0xFFA
  7972                           tblptru	equ	0xFF8
  7973                           tblptrh	equ	0xFF7
  7974                           tblptrl	equ	0xFF6
  7975                           tablat	equ	0xFF5
  7976                           prodh	equ	0xFF4
  7977                           prodl	equ	0xFF3
  7978                           intcon	equ	0xFF2
  7979                           intcon2	equ	0xFF1
  7980                           intcon3	equ	0xFF0
  7981                           postinc0	equ	0xFEE
  7982                           fsr0h	equ	0xFEA
  7983                           fsr0l	equ	0xFE9
  7984                           wreg	equ	0xFE8
  7985                           fsr1h	equ	0xFE2
  7986                           fsr1l	equ	0xFE1
  7987                           bsr	equ	0xFE0
  7988                           indf2	equ	0xFDF
  7989                           postinc2	equ	0xFDE
  7990                           postdec2	equ	0xFDD
  7991                           fsr2h	equ	0xFDA
  7992                           fsr2l	equ	0xFD9
  7993                           status	equ	0xFD8
  7994                           
  7995                           	psect	param0
  7996  0000                     pclatu	equ	0xFFB
  7997                           pclath	equ	0xFFA
  7998                           tblptru	equ	0xFF8
  7999                           tblptrh	equ	0xFF7
  8000                           tblptrl	equ	0xFF6
  8001                           tablat	equ	0xFF5
  8002                           prodh	equ	0xFF4
  8003                           prodl	equ	0xFF3
  8004                           intcon	equ	0xFF2
  8005                           intcon2	equ	0xFF1
  8006                           intcon3	equ	0xFF0
  8007                           postinc0	equ	0xFEE
  8008                           fsr0h	equ	0xFEA
  8009                           fsr0l	equ	0xFE9
  8010                           wreg	equ	0xFE8
  8011                           fsr1h	equ	0xFE2
  8012                           fsr1l	equ	0xFE1
  8013                           bsr	equ	0xFE0
  8014                           indf2	equ	0xFDF
  8015                           postinc2	equ	0xFDE
  8016                           postdec2	equ	0xFDD
  8017                           fsr2h	equ	0xFDA
  8018                           fsr2l	equ	0xFD9
  8019                           status	equ	0xFD8


Data Sizes:
    Strings     28
    Constant    0
    Data        0
    BSS         170
    Persistent  0
    Stack       0

Auto Spaces:
    Space          Size  Autos    Used
    COMRAM           95     62      94
    BANK0           160     66     101
    BANK1           256      0     103
    BANK2           256      0       0

Pointer List with Targets:

    ecretage_consignes@commande	PTR  size(2) Largest target is 3
		 -> asserv@commande(COMRAM[3]), 

    sp__IntToC	PTR unsigned char  size(2) Largest target is 8
		 -> IntToC@out(BANK0[8]), 


Critical Paths under _main in COMRAM

    None.

Critical Paths under _high_isr in COMRAM

    None.

Critical Paths under _low_isr in COMRAM

    _low_isr->_subroutine_interruptions
    _asserv->_fonction_PID
    _fonction_PID->___ftadd
    _saturation_erreur_integralle_vitesse->___ftge
    ___ftadd->___ftmul
    _envoit_pwm->___ftmul
    ___ftmul->___ftpack
    _ecretage_consignes->___ftge

Critical Paths under _main in BANK0

    None.

Critical Paths under _high_isr in BANK0

    _high_isr->i2_subroutine_interruptions
    i2_asserv->i2_fonction_PID
    i2_fonction_PID->i2___ftadd
    i2_saturation_erreur_integralle_vitesse->i2___ftge
    i2___ftadd->i2___ftmul
    i2_envoit_pwm->i2___ftmul
    i2___ftmul->i2___ftpack
    i2_ecretage_consignes->i2___ftge

Critical Paths under _low_isr in BANK0

    None.

Critical Paths under _main in BANK1

    None.

Critical Paths under _high_isr in BANK1

    None.

Critical Paths under _low_isr in BANK1

    None.

Critical Paths under _main in BANK2

    None.

Critical Paths under _high_isr in BANK2

    None.

Critical Paths under _low_isr in BANK2

    None.

Call Graph Tables:

 ---------------------------------------------------------------------------------
 (Depth) Function   	        Calls       Base Space   Used Autos Params    Refs
 ---------------------------------------------------------------------------------
 (0) _main                                                 7     2      5       1
                                             59 BANK0      7     2      5
                        _init_system
 ---------------------------------------------------------------------------------
 (1) _init_system                                          0     0      0       0
                    _ConfigInterrupt
                        _ConfigPorts
                         _config_QEI
                         _config_pwm
                        _config_uart
                       _init_timer_0
                 _init_uart_logiciel
                _init_uart_reception
                        _reglage_PID
 ---------------------------------------------------------------------------------
 (2) _reglage_PID                                          0     0      0       0
 ---------------------------------------------------------------------------------
 (2) _init_uart_reception                                  0     0      0       0
 ---------------------------------------------------------------------------------
 (2) _init_uart_logiciel                                   0     0      0       0
                       _init_timer_1
 ---------------------------------------------------------------------------------
 (3) _init_timer_1                                         0     0      0       0
 ---------------------------------------------------------------------------------
 (2) _init_timer_0                                         0     0      0       0
 ---------------------------------------------------------------------------------
 (2) _config_uart                                          0     0      0       0
 ---------------------------------------------------------------------------------
 (2) _config_pwm                                           0     0      0       0
 ---------------------------------------------------------------------------------
 (2) _config_QEI                                           0     0      0       0
 ---------------------------------------------------------------------------------
 (2) _ConfigPorts                                          0     0      0       0
 ---------------------------------------------------------------------------------
 (2) _ConfigInterrupt                                      0     0      0       0
 ---------------------------------------------------------------------------------
 Estimated maximum stack depth 3
 ---------------------------------------------------------------------------------
 (Depth) Function   	        Calls       Base Space   Used Autos Params    Refs
 ---------------------------------------------------------------------------------
 (4) _low_isr                                             17    17      0   13880
                                             45 COMRAM    17    17      0
           _subroutine_interruptions
 ---------------------------------------------------------------------------------
 (5) _subroutine_interruptions                             1     1      0   13880
                                             44 COMRAM     1     1      0
                       _interrupt_RX
                       _interrupt_TX
                  _interruption_INT0
                   _interruption_QEI
                _interruption_timer0
                _interruption_timer1
                _interruption_timer2
               _interuption_QEI_sens
 ---------------------------------------------------------------------------------
 (6) _interuption_QEI_sens                                 0     0      0       0
 ---------------------------------------------------------------------------------
 (6) _interruption_timer2                                  0     0      0       0
 ---------------------------------------------------------------------------------
 (6) _interruption_timer1                                  1     1      0       0
                                              0 COMRAM     1     1      0
 ---------------------------------------------------------------------------------
 (6) _interruption_timer0                                  0     0      0   13703
                             _asserv
 ---------------------------------------------------------------------------------
 (7) _asserv                                               0     0      0   13703
                 _ecretage_consignes
                         _envoit_pwm
                       _fonction_PID
 ---------------------------------------------------------------------------------
 (8) _fonction_PID                                         9     6      3    7941
                                             35 COMRAM     9     6      3
                            ___ftadd
                            ___ftmul
                            ___ftneg
_saturation_erreur_integralle_vitess
 ---------------------------------------------------------------------------------
 (9) _saturation_erreur_integralle_vitesse                 0     0      0     776
                             ___ftge
 ---------------------------------------------------------------------------------
 (9) ___ftadd                                             12     6      6    3685
                                             23 COMRAM    12     6      6
                            ___ftmul (ARG)
                            ___ftneg (ARG)
                           ___ftpack
 ---------------------------------------------------------------------------------
 (8) _envoit_pwm                                           6     3      3    4834
                                             23 COMRAM     6     3      3
                             ___ftge
                            ___ftmul
                            ___ftneg
                            ___fttol
 ---------------------------------------------------------------------------------
 (9) ___fttol                                             15    11      4     380
                                              0 COMRAM    15    11      4
 ---------------------------------------------------------------------------------
 (9) ___ftneg                                              3     0      3     237
                                              0 COMRAM     3     0      3
 ---------------------------------------------------------------------------------
 (9) ___ftmul                                             15     9      6    3197
                                              8 COMRAM    15     9      6
                            ___ftneg (ARG)
                           ___ftpack
 ---------------------------------------------------------------------------------
 (10) ___ftpack                                            8     3      5    2001
                                              0 COMRAM     8     3      5
 ---------------------------------------------------------------------------------
 (8) _ecretage_consignes                                   2     0      2     928
                                              9 COMRAM     2     0      2
                             ___ftge
 ---------------------------------------------------------------------------------
 (10) ___ftge                                              9     3      6     776
                                              0 COMRAM     9     3      6
 ---------------------------------------------------------------------------------
 (6) _interruption_QEI                                     0     0      0       0
 ---------------------------------------------------------------------------------
 (6) _interruption_INT0                                    0     0      0       0
 ---------------------------------------------------------------------------------
 (6) _interrupt_TX                                         0     0      0       0
 ---------------------------------------------------------------------------------
 (6) _interrupt_RX                                         1     1      0       1
                                              0 COMRAM     1     1      0
 ---------------------------------------------------------------------------------
 Estimated maximum stack depth 10
 ---------------------------------------------------------------------------------
 (Depth) Function   	        Calls       Base Space   Used Autos Params    Refs
 ---------------------------------------------------------------------------------
 (11) _high_isr                                           14    14      0    5610
                                             45 BANK0     14    14      0
         i2_subroutine_interruptions
 ---------------------------------------------------------------------------------
 (12) i2_subroutine_interruptions                          1     1      0    5610
                                             44 BANK0      1     1      0
                     i2_interrupt_RX
                     i2_interrupt_TX
                i2_interruption_INT0
                 i2_interruption_QEI
              i2_interruption_timer0
              i2_interruption_timer1
              i2_interruption_timer2
             i2_interuption_QEI_sens
 ---------------------------------------------------------------------------------
 (13) i2_interuption_QEI_sens                              0     0      0       0
 ---------------------------------------------------------------------------------
 (13) i2_interruption_timer2                               0     0      0       0
 ---------------------------------------------------------------------------------
 (13) i2_interruption_timer1                               1     1      0       0
                                              0 BANK0      1     1      0
 ---------------------------------------------------------------------------------
 (13) i2_interruption_timer0                               0     0      0    5433
                           i2_asserv
 ---------------------------------------------------------------------------------
 (14) i2_asserv                                            0     0      0    5433
               i2_ecretage_consignes
                       i2_envoit_pwm
                     i2_fonction_PID
 ---------------------------------------------------------------------------------
 (15) i2_fonction_PID                                      9     6      3    2973
                                             35 BANK0      9     6      3
                          i2___ftadd
                          i2___ftmul
                          i2___ftneg
i2_saturation_erreur_integralle_vite
 ---------------------------------------------------------------------------------
 (16) i2_saturation_erreur_integralle_vitesse              0     0      0     396
                           i2___ftge
 ---------------------------------------------------------------------------------
 (16) i2___ftadd                                          12     6      6    1487
                                             23 BANK0     12     6      6
                          i2___ftmul (ARG)
                          i2___ftneg (ARG)
                         i2___ftpack
 ---------------------------------------------------------------------------------
 (15) i2_envoit_pwm                                        6     3      3    1950
                                             23 BANK0      6     3      3
                           i2___ftge
                          i2___ftmul
                          i2___ftneg
                          i2___fttol
 ---------------------------------------------------------------------------------
 (16) i2___fttol                                          15    11      4     304
                                              0 BANK0     15    11      4
 ---------------------------------------------------------------------------------
 (16) i2___ftneg                                           3     0      3     123
                                              0 BANK0      3     0      3
 ---------------------------------------------------------------------------------
 (16) i2___ftmul                                          15     9      6     921
                                              8 BANK0     15     9      6
                          i2___ftneg (ARG)
                         i2___ftpack
 ---------------------------------------------------------------------------------
 (17) i2___ftpack                                          8     3      5     387
                                              0 BANK0      8     3      5
 ---------------------------------------------------------------------------------
 (15) i2_ecretage_consignes                                2     0      2     510
                                              9 BANK0      2     0      2
                           i2___ftge
 ---------------------------------------------------------------------------------
 (17) i2___ftge                                            9     3      6     396
                                              0 BANK0      9     3      6
 ---------------------------------------------------------------------------------
 (13) i2_interruption_QEI                                  0     0      0       0
 ---------------------------------------------------------------------------------
 (13) i2_interruption_INT0                                 0     0      0       0
 ---------------------------------------------------------------------------------
 (13) i2_interrupt_TX                                      0     0      0       0
 ---------------------------------------------------------------------------------
 (13) i2_interrupt_RX                                      1     1      0       1
                                              0 BANK0      1     1      0
 ---------------------------------------------------------------------------------
 Estimated maximum stack depth 17
 ---------------------------------------------------------------------------------

 Call Graph Graphs:

 _main (ROOT)
   _init_system
     _ConfigInterrupt
     _ConfigPorts
     _config_QEI
     _config_pwm
     _config_uart
     _init_timer_0
     _init_uart_logiciel
       _init_timer_1
     _init_uart_reception
     _reglage_PID

 _low_isr (ROOT)
   _subroutine_interruptions
     _interrupt_RX
     _interrupt_TX
     _interruption_INT0
     _interruption_QEI
     _interruption_timer0
       _asserv
         _ecretage_consignes
           ___ftge
         _envoit_pwm
           ___ftge
           ___ftmul
             ___ftneg (ARG)
             ___ftpack (ARG)
           ___ftneg
           ___fttol
         _fonction_PID
           ___ftadd
             ___ftmul (ARG)
               ___ftneg (ARG)
               ___ftpack (ARG)
             ___ftneg (ARG)
             ___ftpack (ARG)
           ___ftmul
             ___ftneg (ARG)
             ___ftpack (ARG)
           ___ftneg
           _saturation_erreur_integralle_vitesse
             ___ftge
     _interruption_timer1
     _interruption_timer2
     _interuption_QEI_sens

 _high_isr (ROOT)
   i2_subroutine_interruptions
     i2_interrupt_RX
     i2_interrupt_TX
     i2_interruption_INT0
     i2_interruption_QEI
     i2_interruption_timer0
       i2_asserv
         i2_ecretage_consignes
           i2___ftge
         i2_envoit_pwm
           i2___ftge
           i2___ftmul
             i2___ftneg (ARG)
             i2___ftpack (ARG)
           i2___ftneg
           i2___fttol
         i2_fonction_PID
           i2___ftadd
             i2___ftmul (ARG)
               i2___ftneg (ARG)
               i2___ftpack (ARG)
             i2___ftneg (ARG)
             i2___ftpack (ARG)
           i2___ftmul
             i2___ftneg (ARG)
             i2___ftpack (ARG)
           i2___ftneg
           i2_saturation_erreur_integralle_vitesse
             i2___ftge
     i2_interruption_timer1
     i2_interruption_timer2
     i2_interuption_QEI_sens

 Address spaces:
Name               Size   Autos  Total    Cost      Usage
BIGRAM             2FF      0       0      10        0.0%
EEDATA             100      0       0       0        0.0%
BITBANK2           100      0       0       8        0.0%
BANK2              100      0       0       9        0.0%
BITBANK1           100      0       0       6        0.0%
BANK1              100      0      67       7       40.2%
BITBANK0            A0      0       0       4        0.0%
BANK0               A0     42      65       5       63.1%
BITCOMRAM           5F      0       0       0        0.0%
COMRAM              5F     3E      5E       1       98.9%
BITSFR               0      0       0      40        0.0%
SFR                  0      0       0      40        0.0%
STACK                0      0       0       2        0.0%
NULL                 0      0       0       0        0.0%
ABS                  0      0     12A       3        0.0%
DATA                 0      0     12A      11        0.0%
CODE                 0      0       0       0        0.0%


Microchip Technology PIC18 Macro Assembler V1.34 build -361300703 
Symbol Table                                                                                   Mon Apr 13 23:54:02 2015

                         __end_ofi2_interrupt_RX 19D2                           __end_ofi2_interrupt_TX 1BCE  
                                 _ERREUR_VITESSE 003F                                               l10 1B1A  
                                             l13 1B1C                                               bsr 000FE0  
                           ?_init_uart_reception 0001                                       i2___ftpack 0CA6  
                                   __CFG_CP0$OFF 000000                                     __CFG_CP1$OFF 000000  
                                   __CFG_CP2$OFF 000000                                     __CFG_CP3$OFF 000000  
                                   ___ftadd@exp1 0023                                     ___ftadd@exp2 0022  
                                   ___ftadd@sign 0021                                     __CFG_CPB$OFF 000000  
                                            _PID 00AD                                     __CFG_CPD$OFF 000000  
                                            prod 000FF3                                              wreg 000FE8  
            __size_ofi2_subroutine_interruptions 009C                                     __CFG_LVP$OFF 000000  
                             _ecretage_consignes 1634                                             STR_1 0315  
                                           STR_2 0301                                             _TMR1 000FCE  
                                           _main 1B08                                     ___ftpack@arg 0001  
                                   ___ftpack@exp 0004                                             fsr0h 000FEA  
                                           fsr1h 000FE2                                             fsr0l 000FE9  
                                           fsr2h 000FDA                                             fsr1l 000FE1  
                                           indf2 000FDF                                             fsr2l 000FD9  
                                   i2___ftadd@f1 0077                                     i2___ftadd@f2 007A  
                                           pclat 000FFA                                     i2___ftge@ff1 0060  
                                   i2___ftge@ff2 0063                              ?_ecretage_consignes 000A  
                                           prodh 000FF4                                             prodl 000FF3  
                                           start 00A8                                    __CFG_IESO$OFF 000000  
                                   i2___ftneg@f1 0060                                    __CFG_MCLRE$ON 000000  
                                   ___ftmul@cntr 0016                                     i2___ftmul@f1 0068  
                                   i2___ftmul@f2 006B                                     ___param_bank 000000  
                                   ___ftmul@sign 0017                              __end_of_ConfigPorts 149C  
                                   i2___fttol@f1 0060                          ??i2_interruption_timer0 008C  
                        ??i2_interruption_timer1 0060                          ??i2_interruption_timer2 0060  
                                ?i2_interrupt_RX 0001                                  ?i2_interrupt_TX 0001  
                                   ___fttol@exp1 000F                                     ___fttol@lval 000B  
                          ??_init_uart_reception 009B                          __end_of_ConfigInterrupt 15B0  
                                          ?_main 009B                                  __end_of___ftadd 0760  
                                __end_of___ftneg 1AEC                                  __end_of___ftmul 0EBE  
                                __end_of___fttol 0FA4                                            _LATA0 007C48  
                                          _LATA1 007C49                                            _LATB0 007C50  
                                          _LATA2 007C4A                                            _LATB1 007C51  
                                          _LATA3 007C4B                                            _LATC0 007C58  
                                          _LATB2 007C52                                            _LATA4 007C4C  
                                          _LATC1 007C59                                            _LATB3 007C53  
                                          _LATA5 007C4D                                            _LATD0 007C60  
                                          _LATC2 007C5A                                            _LATB4 007C54  
                                          _LATA6 007C4E                                            _LATD1 007C61  
                                          _LATC3 007C5B                                            _LATB5 007C55  
                                          _LATA7 007C4F                                            _LATE0 007C68  
                                          _LATD2 007C62                                            _LATC4 007C5C  
                                          _LATB6 007C56                                            _LATE1 007C69  
                                          _LATD3 007C63                                            _LATC5 007C5D  
                                          _LATB7 007C57                                            _LATE2 007C6A  
                                          _LATD4 007C64                                            _LATC6 007C5E  
                                          _PDC0H 000F78                                            _LATD5 007C65  
                                          _LATC7 007C5F                                            _LATD6 007C66  
                                          _PDC1H 000F76                                            _LATD7 007C67  
                                          _PDC2H 000F74                                            _PDC0L 000F79  
                                          _PDC3H 000F72                                            _PDC1L 000F77  
                                          _PDC2L 000F75                                            _PDC3L 000F73  
                                          i1l301 15D2                                            i1l311 1622  
                                          i1l303 15E2                                            i1l320 1916  
                                          i1l305 15F2                                            i1l314 1632  
                                          i1l323 191A                                            i1l307 1602  
                                          i1l413 123C                                            i1l309 1612  
                                          i1l343 1B74                             ??_ecretage_consignes 000C  
                                          i1l416 12A8                                            i1l354 1994  
                                          i2l301 1304                                            i1l461 1840  
                                          i2l311 1362                                            i2l303 1316  
                                          i1l455 16AE                                            i2l320 1888  
                                          i2l305 1328                                            i2l314 1376  
                                          i2l323 188C                                            i2l307 133C  
                                          i1l299 15C2                                            i2l413 0FC8  
                                          i2l309 1350                                            i1l469 08BA  
                                          i2l343 1B86                                            i2l416 104A  
                                          i1l832 060A                                            i2l354 19D0  
                                          i1l843 06CC                                            i1l852 06E8  
                                          i1l828 05E0                                            i2l461 1786  
                                          i1l829 075E                                            i2l455 1526  
                                          i2l299 12F2                                            i1l875 0EBC  
                                          i1l788 1218                                            i2l469 0A16  
                                          i1l869 140C                                            i1l885 1ADE  
                                          i1l799 11F0                                            i2l832 03C0  
                                          i1l896 0FA2                                            i2l834 03EA  
                                          i2l843 04CE                                            i2l852 04F8  
                                          i2l828 0386                                            i2l829 059A  
                                          i2l875 0B72                                            i2l788 0DC4  
                                          i2l869 1152                                            i2l885 1A66  
                                          i2l799 0D8C                                            i2l896 0CA4  
                                          _RCREG 000FAE                         __end_of_interruption_QEI 1B76  
                                          _TMR0L 000FD6                                            _SPBRG 000FAF  
                                          _TXREG 000FAD                                    __CFG_WRT0$OFF 000000  
                                  __CFG_WRT1$OFF 000000                                    __CFG_WRT2$OFF 000000  
                                  __CFG_WRT3$OFF 000000                                   __CFG_EBTR0$OFF 000000  
                                 __CFG_FCMEN$OFF 000000                                   __CFG_EBTR1$OFF 000000  
                                 __CFG_EBTR2$OFF 000000                                   __CFG_EBTR3$OFF 000000  
                                  __CFG_WRTB$OFF 000000                                    __CFG_WRTC$OFF 000000  
                                  __CFG_WRTD$OFF 000000                                     ?_init_system 0001  
                                 __CFG_EBTRB$OFF 000000                       ??_subroutine_interruptions 002D  
                                  ___ftpack@sign 0005                                            main@i 00A0  
                       ??i2_interuption_QEI_sens 0060                                  __end_of_low_isr 00A8  
                                 __CFG_BOREN$OFF 000000                                    ?_fonction_PID 0024  
                                          tablat 000FF5                                 __end_ofi2___ftge 1154  
                                          status 000FD8                                 __end_ofi2_asserv 195A  
                             __size_ofi2___ftadd 027E                               __size_ofi2___ftneg 0030  
                             __size_ofi2___ftmul 015C                               __size_ofi2___fttol 0132  
                                __initialization 1A74                                   __CFG_HPOL$HIGH 000000  
                                   ?_reglage_PID 0001                                     __end_of_main 1B22  
                                  i2___ftmul@exp 0071                                   __CFG_OSC$HSPLL 000000  
                                    ?i2___ftpack 0060                                   __CFG_LPOL$HIGH 000000  
                                         ??_main 00A0                                    ___fttol@sign1 000A  
                                  __activetblptr 000002                               i2interrupt_RX@temp 0060  
                          __size_ofi2_envoit_pwm 00E2                                 ??i2_fonction_PID 0086  
                                         _ANSEL0 000FB8                                 __end_of___ftpack 121A  
                                 ??_fonction_PID 0027                                           i1l2103 13DC  
                                         i1l2211 0670                                           i1l2109 1408  
                                         i1l2213 067C                                           i1l2205 064C  
                                         i1l2071 11A0                                           i1l2063 1164  
                                         i1l2303 0EDC                                           i1l2231 0706  
                                         i1l2223 06B4                                           i1l2215 0688  
                                         i1l2321 0F36                                           i1l2241 0738  
                                         i1l2225 06C0                                           i1l2217 0690  
                                         i1l2091 120A                                           i1l2075 11B8  
                                         i1l2067 1174                                           i1l2251 0DE4  
                                         i1l2331 0F60                                           i1l2171 1812  
                   __size_ofi2_interruption_INT0 0004                                           i1l2085 11F8  
                                         i1l2077 11D8                                           i1l2069 1180  
                                         i1l2253 0DFE                                           i1l2333 0F6E  
                                         i1l2325 0F46                                           i1l2079 11E4  
                                         i1l2271 0E40                                           i1l2327 0F4C  
                                         i1l2335 0F78                                           i1l2183 05EE  
                                         i1l2281 0E6E                                           i1l2257 0E0C  
                                         u201_21 0DF4                                           i1l2099 13AA  
                                         i1l2275 0E52                                           i1l2339 0F90  
                                         i1l2531 12AC                                           i1l2523 124A  
                                         i1l2195 0624                                           i1l2285 0E80  
                                         i1l2189 0618                                           i1l1735 1B70  
                                         i1l2279 0E68                                           i1l2527 12A0  
                                         i1l2537 1670                                           i1l2289 0E96  
                                         i2l2121 0CD6                                           i2l2131 0D6C  
                                         i2l2123 0CE6                                           i2l2133 0D7C  
                                         i2l2125 0D18                                           i2l2117 0CC0  
                                         i2l2153 10C8                                           i2l2145 0DB6  
                                         i2l2129 0D3A                                           i2l2401 04BE  
                                         i2l2163 114E                                           i2l2139 0D98  
                                         i1l2699 1988                                           i2l2157 110A  
                                         i2l2501 0C36                                           i2l2503 0C3E  
                                         i2l2511 0C74                                           i2l2407 0524  
                                         i2l2433 0A7C                                           i2l2417 0574  
                                         i2l2451 0AEC                                           i2l2427 0A42  
                                         i2l2515 0C92                                           i2l2507 0C54  
                                         i2l2371 03E0                                           i2l2347 1750  
                                         i2l2461 0B30                                           i2l2429 0A68  
                                         i2l2509 0C66                                           i2l2381 0422  
                                         i2l2365 03CE                                   __CFG_WDTEN$OFF 000000  
                                         i2l2455 0B08                                           i2l2447 0ACC  
                                         i2l2391 0472                                           i2l2359 0394  
                                         i2l2465 0B4C                                           i2l2457 0B10  
                                         i2l2561 104E                                           i2l2553 0FD6  
                                         i2l2393 047E                                           u206_21 0ECE  
                                         i2l2731 1B82                                           i2l2387 0452  
                                         i2l2557 1040                                           i2l2389 0462  
                                         i2l2567 14E0                                           i2l2479 0B9E  
                                         i2l2399 04AE                                           i2l2745 19C4  
                                         i2l2497 0C22                                           u216_41 0334  
                                         u217_41 0352                                           u244_41 0B8A  
                                         u237_41 0A2E                                           u239_41 0A58  
                                         u178_21 05AC                                           u179_21 05C0  
                                         u199_21 0DD6                                   __CFG_WINEN$OFF 000000  
                                         _TMR0ON 007EAF                                           _TMR1ON 007E68  
                                         _PTPERH 000F7A                                           _PTPERL 000F7B  
                                    _ConfigPorts 140E                                    ?_init_timer_0 0001  
                                  ?_init_timer_1 0001                       __end_of_init_uart_logiciel 1B96  
                                 __CFG_SSPMX$RC7 000000                                 __end_of_high_isr 171C  
                                         ___ftge 1378                                        ??___ftadd 001E  
                             i2_interruption_QEI 1B76                                        ??___ftneg 0004  
                           __size_of_config_uart 001C                                        ??___ftmul 000F  
                                      ??___fttol 0005                                           _asserv 19D2  
                                   i2_envoit_pwm 0FA4                                           clear_0 1A7A  
                                         clear_1 1A86                                           clear_2 1A92  
                               ?_ConfigInterrupt 0001                            ___ftmul@f3_as_product 0013  
                            ?i2_interruption_QEI 0001                                __end_ofi2___ftadd 059C  
                                 i2___ftadd@exp1 0082                                   i2___ftadd@exp2 0081  
                              __end_ofi2___ftneg 1A74                                __end_ofi2___ftmul 0B74  
                              __end_ofi2___fttol 0CA6                                   i2___ftadd@sign 0080  
                                   __mediumconst 0000                                        ??_low_isr 002E  
                                         tblptrh 000FF7                                           tblptrl 000FF6  
                                         tblptru 000FF8                  __size_ofi2_interuption_QEI_sens 0004  
                                     __accesstop 0060                          __end_of__initialization 1A98  
                                     ___ftadd@f1 0018                                       ___ftadd@f2 001B  
                                __CFG_FLTAMX$RC1 000000                              __size_ofi2___ftpack 0120  
                                     ___ftge@ff1 0001                             ??i2_interruption_QEI 0060  
                                     ___ftge@ff2 0004                                   ??_init_timer_0 009B  
                                 ??_init_timer_1 009B                                    ___rparam_used 000000  
                                     ___ftneg@f1 0001                                   i2___ftpack@arg 0060  
                                 i2___ftpack@exp 0063                                       ___ftmul@f1 0009  
                                     ___ftmul@f2 000C                                       ___fttol@f1 0001  
                                 __pcstackCOMRAM 0001                     __end_ofi2_ecretage_consignes 1528  
                                  ?_interrupt_RX 0001                                    ?_interrupt_TX 0001  
                                 i2___ftmul@cntr 0075                                   i2___ftmul@sign 0076  
                  __size_of_interuption_QEI_sens 0004                                   i2___fttol@exp1 006E  
                                 i2___fttol@lval 006A                                        ?i2___ftge 0060  
                                      ?i2_asserv 0001                              i2_fonction_PID$2888 0086  
                            i2_fonction_PID$2889 0089                 __end_of_subroutine_interruptions 1634  
                    __end_of_interruption_timer0 1BA2                      __end_of_interruption_timer1 191C  
                    __end_of_interruption_timer2 1BB6                                       __pbssBANK0 00A2  
                                     __pbssBANK1 0100                             __size_of_init_system 0026  
                               ??i2_interrupt_RX 0060                                 ??i2_interrupt_TX 0060  
                                 ??_interrupt_RX 0001                                   ??_interrupt_TX 0001  
                                        ?___ftge 0001                                  __CFG_WDPS$32768 000000  
                                        ?_asserv 0001                           i2_interuption_QEI_sens 1BBE  
                 __size_ofi2_interruption_timer0 000C                   __size_ofi2_interruption_timer1 004C  
                 __size_ofi2_interruption_timer2 0004                             __end_of_fonction_PID 08BC  
                  __end_ofi2_interruption_timer0 1BAE                    __end_ofi2_interruption_timer1 188E  
                  __end_ofi2_interruption_timer2 1BC6                             __size_of_reglage_PID 0038  
                                      ?___ftpack 0001                                       ??i2___ftge 0066  
                                __CFG_PWM4MX$RB5 000000                                          _MAXCNTH 000F65  
                                        _MAXCNTL 000F64                                ?_interruption_QEI 0001  
                                     ??i2_asserv 008C                                       _config_QEI 1788  
                                     _config_pwm 188E                                          _POSCNTH 000F67  
                                        _POSCNTL 000F66                               ??_interruption_QEI 0001  
                                        _VITESSE 0048                                        ?_high_isr 0001  
                                __CFG_PWMPIN$OFF 000000                                  __CFG_PWRTEN$OFF 000000  
                   ??i2_subroutine_interruptions 008C                                          __Hparam 0000  
                    __end_of_init_uart_reception 1B64                                          __Lparam 0000  
                                __size_of___ftge 0096                                          ___ftadd 059C  
                                        ___ftneg 1AC8                                          ___ftmul 0DC6  
                                        ___fttol 0EBE                                       _envoit_pwm 121A  
                                   __psmallconst 0300                              i2_interruption_INT0 1BC6  
                                __CFG_STVREN$OFF 000000                                  __size_of_asserv 003A  
                                        __pcinit 1A74                                     ??i2___ftpack 0065  
                                     ??___ftpack 0006                          i2___ftmul@f3_as_product 0072  
                                        __ramtop 0300                                          __ptext0 1B08  
                                        __ptext1 1AA2                                          __ptext2 1A0C  
                                        __ptext3 1B50                                          __ptext4 1B88  
                                        __ptext5 1B22                                          __ptext6 1B3A  
                                        __ptext7 1AEC                                          __ptext8 188E  
                                        __ptext9 1788                                        _T0CONbits 000FD5  
                                      _T1CONbits 000FCD                      __size_of_ecretage_consignes 007C  
                           __end_of_init_timer_0 1B50                             __end_of_init_timer_1 1B3A  
                                        _low_isr 0018                             fonction_PID@commande 00BA  
                                     ??_high_isr 008D                             i2_ecretage_consignes 149C  
                                 __pintcode_body 16B0                             end_of_initialization 1A98  
                           ?i2_interruption_INT0 0001                                    __Lmediumconst 0000  
                                        int_func 16B0                                     ?_ConfigPorts 0001  
                             __end_ofi2___ftpack 0DC6                __size_of_subroutine_interruptions 0084  
                                      _RCSTAbits 000FAB                        ?_subroutine_interruptions 0001  
                                        postdec2 000FDD                                          postinc0 000FEE  
                                        postinc2 000FDE                                  _OVERFLOW_CODEUR 004E  
                                      _PORTBbits 000F81                                        _PORTCbits 000F82  
                                      _PORTDbits 000F83                               _init_uart_logiciel 1B88  
                                    ?_config_QEI 0001                                        _TRISAbits 000F92  
                                      _TRISBbits 000F93                                        _TRISCbits 000F94  
                                    ?_config_pwm 0001                                        _TRISDbits 000F95  
                                      _TRISEbits 000F96                                      _CAP1CONbits 000F63  
                           __end_of_interrupt_RX 1996                             __end_of_interrupt_TX 1BBE  
                            ?_init_uart_logiciel 0001                            ?i2_ecretage_consignes 0069  
                               envoit_pwm@valeur 0018                                        i2___ftadd 031E  
                                      i2___ftneg 1A44                                        i2___ftmul 0A18  
                          ??i2_interruption_INT0 0060                                        i2___fttol 0B74  
                                      IntToC@out 00BD                                        _TXSTAbits 000FAC  
                               __CFG_T1OSCMX$OFF 000000                                  i2___ftpack@sign 0064  
                                  ??_config_uart 009B                            __size_of_fonction_PID 015C  
                                    ___ftmul@exp 0012                             ??_init_uart_logiciel 009B  
                                    ?_envoit_pwm 0018                                   __end_of___ftge 140E  
                         i2envoit_pwm@abs_valeur 007A                                 __CFG_EXCLKMX$RC3 000000  
                                    _BAUDCONbits 000FAA                                   __end_of_asserv 1A0C  
                            start_initialization 1A74                                __size_ofi2___ftge 00CE  
 __end_ofi2_saturation_erreur_integralle_vitesse 1788  __size_ofi2_saturation_erreur_integralle_vitesse 006C  
   __end_of_saturation_erreur_integralle_vitesse 1842    __size_of_saturation_erreur_integralle_vitesse 005C  
         ??_saturation_erreur_integralle_vitesse 000A          ?i2_saturation_erreur_integralle_vitesse 0001  
          ?_saturation_erreur_integralle_vitesse 0001         ??i2_saturation_erreur_integralle_vitesse 0069  
           _saturation_erreur_integralle_vitesse 17E6           i2_saturation_erreur_integralle_vitesse 171C  
                              __size_ofi2_asserv 003E                         __size_of_ConfigInterrupt 0088  
                                i2___fttol@sign1 0069                                       ?i2___ftadd 0077  
                                     ?i2___ftneg 0060                                       ?i2___ftmul 0068  
                                     ?i2___fttol 0060                     __end_of_interuption_QEI_sens 1BB2  
                                   _fonction_PID 0760               __end_ofi2_subroutine_interruptions 1378  
                     i2_subroutine_interruptions 12DC                      __size_ofi2_interruption_QEI 0012  
                        __size_ofi2_fonction_PID 015C                                _fonction_PID$2778 0027  
                              _fonction_PID$2779 002A                              __size_of_config_QEI 005E  
                        ?i2_interuption_QEI_sens 0001                                         ??___ftge 0007  
                            __size_of_config_pwm 0048                                         ??_asserv 002D  
                          __size_of_init_timer_0 0016                            __size_of_init_timer_1 0018  
                            __end_of_config_uart 1B08                                      _DFLTCONbits 000F60  
                              __size_of___ftpack 00C6                                      __pbssCOMRAM 003F  
                                  __pcstackBANK0 0060                           ??i2_ecretage_consignes 006B  
                                  ??_init_system 009B                              __size_of_envoit_pwm 00C2  
                              __size_of_high_isr 1714                 subroutine_interruptions@priorite 002D  
             i2subroutine_interruptions@priorite 008C                     __size_of_interruption_timer0 000C  
                   __size_of_interruption_timer1 0046                     __size_of_interruption_timer2 0004  
                      __size_of_interruption_QEI 0012                   __end_ofi2_interuption_QEI_sens 1BC2  
                           __size_of_ConfigPorts 008E                                     _init_timer_0 1B3A  
                                   _init_timer_1 1B22                                    ??_reglage_PID 009B  
                                      __pintcode 0008                                         ?___ftadd 0018  
                                       ?___ftneg 0001                                         ?___ftmul 0009  
                                       ?___fttol 0001                                      __pintcodelo 0018  
                                 _uart_reception 0100                            i2_interruption_timer0 1BA2  
                          i2_interruption_timer1 1842                            i2_interruption_timer2 1BC2  
                          __size_of_interrupt_RX 003C                            __size_of_interrupt_TX 0004  
                                 asserv@commande 005C                                      __smallconst 0300  
                                       ?_low_isr 0001                             get_valeur_codeur@res 00B6  
                                    ??i2___ftadd 007D                                      ??i2___ftneg 0063  
                                    ??i2___ftmul 006E                                      ??i2___fttol 0064  
                              _interruption_INT0 1BB6                              __end_of_init_system 1AC8  
                             ?_interruption_INT0 0001                                ??_ConfigInterrupt 009B  
                                       _IPR1bits 000F9F                                         _IPR2bits 000FA2  
                                       _PIE1bits 000F9D                                         _IPR3bits 000FA5  
                                       _PIE2bits 000FA0                                         _PIE3bits 000FA3  
                                       i1u208_20 0EFA                                         i1u208_25 0EF2  
                                       i2u246_40 0BC4                                         i2u246_45 0BBA  
                                       _PIR1bits 000F9E                                         _PIR2bits 000FA1  
                                       _PIR3bits 000FA4                                      _config_uart 1AEC  
                                       _RCONbits 000FD0                              ??_interruption_INT0 0001  
                                   _interrupt_RX 195A                                     _interrupt_TX 1BBA  
                                  ?i2_envoit_pwm 0077                             _interuption_QEI_sens 1BAE  
                   __size_of_init_uart_reception 0014                       __end_of_ecretage_consignes 16B0  
                        __size_ofi2_interrupt_RX 003C                          __size_ofi2_interrupt_TX 0004  
                                       i2___ftge 1086                              __end_of_reglage_PID 1A44  
                                   ??_config_QEI 009B                                         i2_asserv 191C  
                                   ??_config_pwm 009B                        __end_of_interruption_INT0 1BBA  
                                    _INTCON2bits 000FF1                                      _INTCON3bits 000FF0  
                                 i2_fonction_PID 08BC                                         __Hparam0 0000  
                                       __Lparam0 0000                               __end_of_config_QEI 17E6  
                                 ??i2_envoit_pwm 007A                     i2ecretage_consignes@commande 0069  
                             __end_of_config_pwm 18D6                                     ??_envoit_pwm 001B  
                               interrupt_RX@temp 0001                                 __size_of___ftadd 01C4  
                          ?_interuption_QEI_sens 0001                                 __size_of___ftneg 0024  
                               __size_of___ftmul 00F8                                 __size_of___fttol 00E6  
                                       ___ftpack 1154                           ?i2_interruption_timer0 0001  
                         ?i2_interruption_timer1 0001                           ?i2_interruption_timer2 0001  
                    __end_ofi2_interruption_INT0 1BCA                                 __size_of_low_isr 0090  
                                       __ptext10 140E                                         __ptext11 1528  
                                       __ptext20 17E6                                         __ptext21 059C  
                                       __ptext13 15B0                                         __ptext30 1BB6  
                                       __ptext22 121A                                         __ptext14 1BAE  
                                       __ptext31 1BBA                                         __ptext23 0EBE  
                                       __ptext15 1BB2                                         __ptext40 08BC  
                                       __ptext32 195A                                         __ptext24 1AC8  
                                       __ptext16 18D6                                         __ptext41 171C  
                                       __ptext25 0DC6                                         __ptext17 1B96  
                                       __ptext50 1B76                                         __ptext42 031E  
                                       __ptext34 12DC                                         __ptext26 1154  
                                       __ptext18 19D2                                         __ptext51 1BC6  
                                       __ptext43 0FA4                                         __ptext35 1BBE  
                                       __ptext27 1634                                         __ptext19 0760  
                                       __ptext52 1BCA                                         __ptext44 0B74  
                                       __ptext36 1BC2                                         __ptext28 1378  
                                       __ptext53 1996                                         __ptext45 1A44  
                                       __ptext37 1842                                         __ptext29 1B64  
                                       __ptext46 0A18                                         __ptext38 1BA2  
                                       __ptext47 0CA6                                         __ptext39 191C  
                                       __ptext48 149C                                         __ptext49 1086  
                                    _init_system 1AA2                                    _uart_logiciel 004F  
                                       _high_isr 0008                           __end_ofi2_fonction_PID 0A18  
                             __end_of_envoit_pwm 12DC                                    __size_of_main 001A  
                             i2envoit_pwm@valeur 0077                                 _interruption_QEI 1B64  
                    ?i2_subroutine_interruptions 0001                         _subroutine_interruptions 15B0  
                                    _reglage_PID 1A0C                      __size_of_init_uart_logiciel 000E  
                                       _position 00A2                                         main@argc 009B  
                                       main@argv 009D                       ecretage_consignes@commande 000A  
                            _interruption_timer0 1B96                              _interruption_timer1 18D6  
                            _interruption_timer2 1BB2                                       _INTCONbits 000FF2  
                                     _QEICONbits 000FB6                       __size_of_interruption_INT0 0004  
                                       intlevel1 0000                                         intlevel2 0000  
                     __end_ofi2_interruption_QEI 1B88                                  ?i2_fonction_PID 0083  
                           ?_interruption_timer0 0001                             ?_interruption_timer1 0001  
                           ?_interruption_timer2 0001                                      _PWMCON0bits 000F6F  
                                    _PWMCON1bits 000F6E                           ??_interuption_QEI_sens 0001  
                           envoit_pwm@abs_valeur 001B                                       _PTCON0bits 000F7F  
                                     _PTCON1bits 000F7E                                   i2_interrupt_RX 1996  
                                 i2_interrupt_TX 1BCA                                  _ConfigInterrupt 1528  
                  __size_ofi2_ecretage_consignes 008C                             __end_ofi2_envoit_pwm 1086  
                            _init_uart_reception 1B50                                    ??_ConfigPorts 009B  
                          ??_interruption_timer0 002D                            ??_interruption_timer1 0001  
                          ??_interruption_timer2 0001                                     ?_config_uart 0001  
