

Microchip Technology PIC18 LITE Macro Assembler V1.21 build 54009 
                                                                                               Thu Apr 09 09:51:57 2015

Microchip Technology Omniscient Code Generator (Lite mode) build 54009
     1                           	processor	18F4431
     2                           	fnconf	rparam,??,?,0
     3                           	opt	pw 120
     4                           	opt	lm
     5                           	psect	text0,global,reloc=2,class=CODE,delta=1
     6                           	psect	cinit,global,reloc=2,class=CODE,delta=1
     7                           	psect	bssCOMRAM,global,class=COMRAM,space=1,delta=1
     8                           	psect	bssBANK0,global,class=BANK0,space=1,delta=1
     9                           	psect	cstackBANK1,global,class=BANK1,space=1,delta=1
    10                           	psect	cstackBANK0,global,class=BANK0,space=1,delta=1
    11                           	psect	cstackCOMRAM,global,class=COMRAM,space=1,delta=1
    12                           	psect	text1,global,reloc=2,class=CODE,delta=1
    13                           	psect	text2,global,reloc=2,class=CODE,delta=1
    14                           	psect	text3,global,reloc=2,class=CODE,delta=1
    15                           	psect	text4,global,reloc=2,class=CODE,delta=1
    16                           	psect	text5,global,reloc=2,class=CODE,delta=1
    17                           	psect	text6,global,reloc=2,class=CODE,delta=1
    18                           	psect	text7,global,reloc=2,class=CODE,delta=1
    19                           	psect	text8,global,reloc=2,class=CODE,delta=1
    20                           	psect	text9,global,reloc=2,class=CODE,delta=1
    21                           	psect	text10,global,reloc=2,class=CODE,delta=1
    22                           	psect	text11,global,reloc=2,class=CODE,delta=1
    23                           	psect	text12,global,reloc=2,class=CODE,delta=1
    24                           	psect	text13,global,reloc=2,class=CODE,delta=1
    25                           	psect	text14,global,reloc=2,class=CODE,delta=1
    26                           	psect	text15,global,reloc=2,class=CODE,delta=1
    27                           	psect	text16,global,reloc=2,class=CODE,delta=1
    28                           	psect	intcodelo,global,reloc=2,class=CODE,delta=1
    29                           	psect	text18,global,reloc=2,class=CODE,delta=1
    30                           	psect	text19,global,reloc=2,class=CODE,delta=1
    31                           	psect	text20,global,reloc=2,class=CODE,delta=1
    32                           	psect	text21,global,reloc=2,class=CODE,delta=1
    33                           	psect	text22,global,reloc=2,class=CODE,delta=1
    34                           	psect	text23,global,reloc=2,class=CODE,delta=1
    35                           	psect	text24,global,reloc=2,class=CODE,delta=1
    36                           	psect	text25,global,reloc=2,class=CODE,delta=1
    37                           	psect	text26,global,reloc=2,class=CODE,delta=1
    38                           	psect	intcode,global,reloc=2,class=CODE,delta=1
    39                           	psect	intcode_body,global,reloc=2,class=CODE,delta=1
    40                           	psect	text28,global,reloc=2,class=CODE,delta=1
    41                           	psect	text29,global,reloc=2,class=CODE,delta=1
    42                           	psect	text30,global,reloc=2,class=CODE,delta=1
    43                           	psect	text31,global,reloc=2,class=CODE,delta=1
    44                           	psect	text32,global,reloc=2,class=CODE,delta=1
    45                           	psect	text33,global,reloc=2,class=CODE,delta=1
    46                           	psect	text34,global,reloc=2,class=CODE,delta=1
    47                           	psect	text35,global,reloc=2,class=CODE,delta=1
    48                           	psect	text36,global,reloc=2,class=CODE,delta=1
    49                           	psect	intsave_regs,global,class=BIGRAM,space=1,delta=1
    50                           	psect	rparam,global,class=COMRAM,space=1,delta=1
    51  0000                     _TMR1	set	4046
    52  0000                     _BAUDCONbits	set	4010
    53  0000                     _DFLTCONbits	set	3936
    54  0000                     _INTCON2bits	set	4081
    55  0000                     _INTCON3bits	set	4080
    56  0000                     _INTCONbits	set	4082
    57  0000                     _IPR1bits	set	3999
    58  0000                     _IPR2bits	set	4002
    59  0000                     _IPR3bits	set	4005
    60  0000                     _OSCCONbits	set	4051
    61  0000                     _PDC0H	set	3960
    62  0000                     _PDC0L	set	3961
    63  0000                     _PDC1H	set	3958
    64  0000                     _PDC1L	set	3959
    65  0000                     _PDC2H	set	3956
    66  0000                     _PDC2L	set	3957
    67  0000                     _PDC3H	set	3954
    68  0000                     _PDC3L	set	3955
    69  0000                     _PIE1bits	set	3997
    70  0000                     _PIE2bits	set	4000
    71  0000                     _PIE3bits	set	4003
    72  0000                     _PIR1bits	set	3998
    73  0000                     _PIR2bits	set	4001
    74  0000                     _PIR3bits	set	4004
    75  0000                     _PORTCbits	set	3970
    76  0000                     _PORTDbits	set	3971
    77  0000                     _PTCON0bits	set	3967
    78  0000                     _PTCON1bits	set	3966
    79  0000                     _PTPERH	set	3962
    80  0000                     _PTPERL	set	3963
    81  0000                     _PWMCON0bits	set	3951
    82  0000                     _PWMCON1bits	set	3950
    83  0000                     _QEICONbits	set	4022
    84  0000                     _RCONbits	set	4048
    85  0000                     _RCREG	set	4014
    86  0000                     _RCSTAbits	set	4011
    87  0000                     _SPBRG	set	4015
    88  0000                     _T0CONbits	set	4053
    89  0000                     _T1CONbits	set	4045
    90  0000                     _TMR0L	set	4054
    91  0000                     _TRISAbits	set	3986
    92  0000                     _TRISBbits	set	3987
    93  0000                     _TRISCbits	set	3988
    94  0000                     _TRISDbits	set	3989
    95  0000                     _TRISEbits	set	3990
    96  0000                     _TXREG	set	4013
    97  0000                     _TXSTAbits	set	4012
    98  0000                     _LATA0	set	31816
    99  0000                     _LATA1	set	31817
   100  0000                     _LATA2	set	31818
   101  0000                     _LATA3	set	31819
   102  0000                     _LATA4	set	31820
   103  0000                     _LATA5	set	31821
   104  0000                     _LATA6	set	31822
   105  0000                     _LATA7	set	31823
   106  0000                     _LATB0	set	31824
   107  0000                     _LATB1	set	31825
   108  0000                     _LATB2	set	31826
   109  0000                     _LATB3	set	31827
   110  0000                     _LATB4	set	31828
   111  0000                     _LATB5	set	31829
   112  0000                     _LATB6	set	31830
   113  0000                     _LATB7	set	31831
   114  0000                     _LATC0	set	31832
   115  0000                     _LATC1	set	31833
   116  0000                     _LATC2	set	31834
   117  0000                     _LATC3	set	31835
   118  0000                     _LATC4	set	31836
   119  0000                     _LATC5	set	31837
   120  0000                     _LATC6	set	31838
   121  0000                     _LATC7	set	31839
   122  0000                     _LATD0	set	31840
   123  0000                     _LATD1	set	31841
   124  0000                     _LATD2	set	31842
   125  0000                     _LATD3	set	31843
   126  0000                     _LATD4	set	31844
   127  0000                     _LATD5	set	31845
   128  0000                     _LATD6	set	31846
   129  0000                     _LATD7	set	31847
   130  0000                     _LATE0	set	31848
   131  0000                     _LATE1	set	31849
   132  0000                     _LATE2	set	31850
   133  0000                     _TMR0ON	set	32431
   134  0000                     _TMR1ON	set	32360
   135                           
   136 ;;
   137 ;;Main: autosize = 0, tempsize = 0, incstack = 0, save=0
   138 ;;
   139 ;; *************** function _main *****************
   140 ;; Defined at:
   141 ;;		line 83 in file "main.c"
   142 ;; Parameters:    Size  Location     Type
   143 ;;  argc            2    3[BANK1 ] int 
   144 ;;  argv            3    5[BANK1 ] PTR PTR unsigned char 
   145 ;; Auto vars:     Size  Location     Type
   146 ;;  i               2   33[COMRAM] int 
   147 ;; Return value:  Size  Location     Type
   148 ;;                  2    3[BANK1 ] int 
   149 ;; Registers used:
   150 ;;		wreg, fsr0l, fsr0h, fsr1l, fsr1h, fsr1l, fsr1h, fsr2l, fsr2h, status,2, status,0, pclat, btemp, btemp+1, btemp+2, bt
      +emp+3, btemp+4, btemp+5, btemp+6, btemp+7, tosl, structret, tblptrl, tblptrh, tblptru, prodl, prodh, bsr, cstack
   151 ;; Tracked objects:
   152 ;;		On entry : 0/0
   153 ;;		On exit  : 0/0
   154 ;;		Unchanged: 0/0
   155 ;; Data sizes:     COMRAM   BANK0   BANK1   BANK2
   156 ;;      Params:         0       0       5       0
   157 ;;      Locals:         2       0       0       0
   158 ;;      Temps:          0       0       0       0
   159 ;;      Totals:         2       0       5       0
   160 ;;Total ram usage:        7 bytes
   161 ;; Hardware stack levels required when called:   10
   162 ;; This function calls:
   163 ;;		_init_system
   164 ;;		_config_uart
   165 ;;		_config_pwm
   166 ;;		_envoit_pwm
   167 ;; This function is called by:
   168 ;;		Startup code after reset
   169 ;; This function uses a non-reentrant model
   170 ;;
   171                           
   172                           	psect	text0
   173  000A1C                     __ptext0:
   174                           	opt stack 0
   175                           
   176                           ; #config settings
   177  000A1C                     _main:
   178                           	opt stack 20
   179                           
   180                           ;main.c: 85: init_system ();
   181                           
   182                           ;incstack = 0
   183                           ;incstack = 0
   184  000A1C  EC7C  F005         	call	_init_system	;wreg free
   185                           
   186                           ;main.c: 86: int i = 0;
   187  000A20  0E00               	movlw	0
   188  000A22  6E47               	movwf	main@i+1,c
   189  000A24  0E00               	movlw	0
   190  000A26  6E46               	movwf	main@i,c
   191                           
   192                           ;main.c: 88: config_uart (115200);
   193  000A28  0EC2               	movlw	194
   194  000A2A  6E3E               	movwf	?_config_uart+1,c
   195  000A2C  0E00               	movlw	0
   196  000A2E  6E3D               	movwf	?_config_uart,c
   197  000A30  EC62  F005         	call	_config_uart	;wreg free
   198                           
   199                           ;main.c: 89: config_pwm();
   200  000A34  EC87  F004         	call	_config_pwm	;wreg free
   201                           
   202                           ;main.c: 119: envoit_pwm(50);
   203  000A38  0E00               	movlw	0
   204  000A3A  0100               	movlb	0	; () banked
   205  000A3C  0100               	movlb	0	; () banked
   206  000A3E  6FEC               	movwf	?_envoit_pwm& (0+255),b
   207  000A40  0E48               	movlw	72
   208  000A42  0100               	movlb	0	; () banked
   209  000A44  0100               	movlb	0	; () banked
   210  000A46  6FED               	movwf	(?_envoit_pwm+1)& (0+255),b
   211  000A48  0E42               	movlw	66
   212  000A4A  0100               	movlb	0	; () banked
   213  000A4C  0100               	movlb	0	; () banked
   214  000A4E  6FEE               	movwf	(?_envoit_pwm+2)& (0+255),b
   215  000A50  ECEC  F001         	call	_envoit_pwm	;wreg free
   216  000A54                     l11:
   217  000A54  D7FF               	goto	l11
   218  000A56                     __end_of_main:
   219                           	opt stack 0
   220                           
   221                           	psect	cinit
   222  000AA2                     __pcinit:
   223                           	opt stack 0
   224  000AA2                     start_initialization:
   225                           	opt stack 0
   226  000AA2                     __initialization:
   227                           	opt stack 0
   228                           
   229                           ; Clear objects allocated to BANK0 (103 bytes)
   230  000AA2  EE00  F060         	lfsr	0,__pbssBANK0
   231  000AA6  0E67               	movlw	103
   232  000AA8                     clear_0:
   233  000AA8  6AEE               	clrf	postinc0,c
   234  000AAA  06E8               	decf	wreg,f,c
   235  000AAC  E1FD               	bnz	clear_0
   236                           
   237                           ; Clear objects allocated to COMRAM (36 bytes)
   238  000AAE  EE00  F001         	lfsr	0,__pbssCOMRAM
   239  000AB2  0E24               	movlw	36
   240  000AB4                     clear_1:
   241  000AB4  6AEE               	clrf	postinc0,c
   242  000AB6  06E8               	decf	wreg,f,c
   243  000AB8  E1FD               	bnz	clear_1
   244  000ABA                     end_of_initialization:
   245                           	opt stack 0
   246  000ABA                     __end_of__initialization:
   247                           	opt stack 0
   248  000ABA  0E00               	movlw	low (__Lmediumconst shr (0+16))
   249  000ABC  6EF8               	movwf	tblptru,c
   250  000ABE  0100               	movlb	0
   251  000AC0  EF0E  F005         	goto	_main	;jump to C main() function
   252                           tblptru	equ	0xFF8
   253                           postinc0	equ	0xFEE
   254                           wreg	equ	0xFE8
   255                           
   256                           	psect	bssCOMRAM
   257  000001                     __pbssCOMRAM:
   258                           	opt stack 0
   259  000001                     LongToC@out:
   260                           	opt stack 0
   261  000001                     	ds	15
   262  000010                     _uart_logiciel:
   263                           	opt stack 0
   264  000010                     	ds	13
   265  00001D                     IntToC@out:
   266                           	opt stack 0
   267  00001D                     	ds	8
   268                           tblptru	equ	0xFF8
   269                           postinc0	equ	0xFEE
   270                           wreg	equ	0xFE8
   271                           
   272                           	psect	bssBANK0
   273  000060                     __pbssBANK0:
   274                           	opt stack 0
   275  000060                     _uart_reception:
   276                           	opt stack 0
   277  000060                     	ds	103
   278                           tblptru	equ	0xFF8
   279                           postinc0	equ	0xFEE
   280                           wreg	equ	0xFE8
   281                           
   282                           	psect	cstackBANK1
   283  000100                     __pcstackBANK1:
   284                           	opt stack 0
   285  000100                     envoit_pwm@abs_valeur:
   286                           	opt stack 0
   287                           
   288                           ; 3 bytes @ 0x0
   289  000100                     	ds	3
   290  000103                     
   291                           ; 2 bytes @ 0x3
   292  000103                     	ds	2
   293  000105                     
   294                           ; 3 bytes @ 0x5
   295  000105                     	ds	3
   296                           tblptru	equ	0xFF8
   297                           postinc0	equ	0xFEE
   298                           wreg	equ	0xFE8
   299                           
   300                           	psect	cstackBANK0
   301  0000C7                     __pcstackBANK0:
   302                           	opt stack 0
   303  0000C7                     ??_high_isr:
   304                           
   305                           ; 0 bytes @ 0x0
   306  0000C7                     	ds	15
   307  0000D6                     ?___ftmul:
   308                           	opt stack 0
   309  0000D6                     ___fttol@sign1:
   310                           	opt stack 0
   311  0000D6                     ___ftmul@f1:
   312                           	opt stack 0
   313                           
   314                           ; 3 bytes @ 0xF
   315  0000D6                     	ds	1
   316  0000D7                     ___fttol@lval:
   317                           	opt stack 0
   318                           
   319                           ; 4 bytes @ 0x10
   320  0000D7                     	ds	2
   321  0000D9                     ___ftmul@f2:
   322                           	opt stack 0
   323                           
   324                           ; 3 bytes @ 0x12
   325  0000D9                     	ds	2
   326  0000DB                     ___fttol@exp1:
   327                           	opt stack 0
   328                           
   329                           ; 1 bytes @ 0x14
   330  0000DB                     	ds	1
   331  0000DC                     ??___ftmul:
   332                           
   333                           ; 0 bytes @ 0x15
   334  0000DC                     	ds	5
   335  0000E1                     ___ftmul@exp:
   336                           	opt stack 0
   337                           
   338                           ; 1 bytes @ 0x1A
   339  0000E1                     	ds	1
   340  0000E2                     ___ftmul@f3_as_product:
   341                           	opt stack 0
   342                           
   343                           ; 3 bytes @ 0x1B
   344  0000E2                     	ds	3
   345  0000E5                     ___ftmul@cntr:
   346                           	opt stack 0
   347                           
   348                           ; 1 bytes @ 0x1E
   349  0000E5                     	ds	1
   350  0000E6                     ___ftmul@sign:
   351                           	opt stack 0
   352                           
   353                           ; 1 bytes @ 0x1F
   354  0000E6                     	ds	1
   355  0000E7                     ?___asftmul:
   356                           	opt stack 0
   357  0000E7                     ___asftmul@f1p:
   358                           	opt stack 0
   359                           
   360                           ; 2 bytes @ 0x20
   361  0000E7                     	ds	2
   362  0000E9                     ___asftmul@f2:
   363                           	opt stack 0
   364                           
   365                           ; 3 bytes @ 0x22
   366  0000E9                     	ds	3
   367  0000EC                     ?_envoit_pwm:
   368                           	opt stack 0
   369  0000EC                     envoit_pwm@valeur:
   370                           	opt stack 0
   371                           
   372                           ; 3 bytes @ 0x25
   373  0000EC                     	ds	3
   374                           tblptru	equ	0xFF8
   375                           postinc0	equ	0xFEE
   376                           wreg	equ	0xFE8
   377                           
   378                           	psect	cstackCOMRAM
   379  000025                     __pcstackCOMRAM:
   380                           	opt stack 0
   381  000025                     ??_interruption_timer1:
   382  000025                     ??_interrupt_RX:
   383  000025                     
   384                           ; 0 bytes @ 0x0
   385  000025                     	ds	1
   386  000026                     interrupt_RX@temp:
   387                           	opt stack 0
   388                           
   389                           ; 1 bytes @ 0x1
   390  000026                     	ds	1
   391  000027                     ?_subroutine_interruptions:
   392                           	opt stack 0
   393  000027                     subroutine_interruptions@priorite:
   394                           	opt stack 0
   395                           
   396                           ; 1 bytes @ 0x2
   397  000027                     	ds	1
   398  000028                     ??_low_isr:
   399                           
   400                           ; 0 bytes @ 0x3
   401  000028                     	ds	18
   402  00003A                     ??i2_interruption_timer1:
   403  00003A                     ??i2_interrupt_RX:
   404  00003A                     
   405                           ; 0 bytes @ 0x15
   406  00003A                     	ds	1
   407  00003B                     i2interrupt_RX@temp:
   408                           	opt stack 0
   409                           
   410                           ; 1 bytes @ 0x16
   411  00003B                     	ds	1
   412  00003C                     ?i2_subroutine_interruptions:
   413                           	opt stack 0
   414  00003C                     i2subroutine_interruptions@priorite:
   415                           	opt stack 0
   416                           
   417                           ; 1 bytes @ 0x17
   418  00003C                     	ds	1
   419  00003D                     ?_config_uart:
   420                           	opt stack 0
   421  00003D                     ??_init_uart_logiciel:
   422  00003D                     ??_init_uart_reception:
   423  00003D                     ?___ftge:
   424                           	opt stack 0
   425  00003D                     ?___ftpack:
   426                           	opt stack 0
   427  00003D                     ?___ftneg:
   428                           	opt stack 0
   429  00003D                     ?___fttol:
   430                           	opt stack 0
   431  00003D                     ___ftpack@arg:
   432                           	opt stack 0
   433  00003D                     ___ftge@ff1:
   434                           	opt stack 0
   435  00003D                     ___ftneg@f1:
   436                           	opt stack 0
   437  00003D                     ___fttol@f1:
   438                           	opt stack 0
   439                           
   440                           ; 3 bytes @ 0x18
   441  00003D                     	ds	1
   442  00003E                     
   443                           ; 0 bytes @ 0x19
   444  00003E                     	ds	1
   445  00003F                     
   446                           ; 0 bytes @ 0x1A
   447  00003F                     	ds	1
   448  000040                     ___ftpack@exp:
   449                           	opt stack 0
   450  000040                     ___ftge@ff2:
   451                           	opt stack 0
   452                           
   453                           ; 3 bytes @ 0x1B
   454  000040                     	ds	1
   455  000041                     ??___fttol:
   456  000041                     ___ftpack@sign:
   457                           	opt stack 0
   458                           
   459                           ; 1 bytes @ 0x1C
   460  000041                     	ds	1
   461  000042                     ??___ftpack:
   462                           
   463                           ; 0 bytes @ 0x1D
   464  000042                     	ds	1
   465  000043                     ??___ftge:
   466                           
   467                           ; 0 bytes @ 0x1E
   468  000043                     	ds	2
   469  000045                     
   470                           ; 0 bytes @ 0x20
   471  000045                     	ds	1
   472  000046                     main@i:
   473                           	opt stack 0
   474                           
   475                           ; 2 bytes @ 0x21
   476  000046                     	ds	2
   477                           tblptru	equ	0xFF8
   478                           postinc0	equ	0xFEE
   479                           wreg	equ	0xFE8
   480                           
   481 ;; *************** function _envoit_pwm *****************
   482 ;; Defined at:
   483 ;;		line 51 in file "moteur.c"
   484 ;; Parameters:    Size  Location     Type
   485 ;;  valeur          3   37[BANK0 ] int 
   486 ;; Auto vars:     Size  Location     Type
   487 ;;  abs_valeur      3    0[BANK1 ] int 
   488 ;; Return value:  Size  Location     Type
   489 ;;		None               void
   490 ;; Registers used:
   491 ;;		wreg, fsr2l, fsr2h, status,2, status,0, cstack
   492 ;; Tracked objects:
   493 ;;		On entry : 0/0
   494 ;;		On exit  : 0/0
   495 ;;		Unchanged: 0/0
   496 ;; Data sizes:     COMRAM   BANK0   BANK1   BANK2
   497 ;;      Params:         0       3       0       0
   498 ;;      Locals:         0       0       3       0
   499 ;;      Temps:          0       0       0       0
   500 ;;      Totals:         0       3       3       0
   501 ;;Total ram usage:        6 bytes
   502 ;; Hardware stack levels used:    1
   503 ;; Hardware stack levels required when called:    9
   504 ;; This function calls:
   505 ;;		___asftmul
   506 ;;		___ftge
   507 ;;		___ftneg
   508 ;;		___fttol
   509 ;; This function is called by:
   510 ;;		_main
   511 ;; This function uses a non-reentrant model
   512 ;;
   513                           
   514                           	psect	text1
   515  0003D8                     __ptext1:
   516                           	opt stack 0
   517  0003D8                     _envoit_pwm:
   518                           	opt stack 20
   519                           
   520                           ;moteur.c: 52: double abs_valeur;
   521                           ;moteur.c: 54: if (valeur < 0)
   522                           
   523                           ;incstack = 0
   524                           ;incstack = 0
   525  0003D8  0100               	movlb	0	; () banked
   526  0003DA  0100               	movlb	0	; () banked
   527  0003DC  51EE               	movf	(envoit_pwm@valeur+2)& (0+255),w,b
   528  0003DE  0A80               	xorlw	128
   529  0003E0  0F80               	addlw	128
   530  0003E2  E107               	bnz	u1185
   531  0003E4  0E00               	movlw	0
   532  0003E6  0100               	movlb	0	; () banked
   533  0003E8  5DED               	subwf	(envoit_pwm@valeur+1)& (0+255),w,b
   534  0003EA  E103               	bnz	u1185
   535  0003EC  0E00               	movlw	0
   536  0003EE  0100               	movlb	0	; () banked
   537  0003F0  5DEC               	subwf	envoit_pwm@valeur& (0+255),w,b
   538  0003F2                     u1185:
   539  0003F2  B0D8               	btfsc	status,0,c
   540  0003F4  D00F               	goto	l393
   541                           
   542                           ; BSR set to: 0
   543                           ;moteur.c: 55: abs_valeur = (double) (-valeur);
   544  0003F6  C0EC  F03D         	movff	envoit_pwm@valeur,?___ftneg
   545  0003FA  C0ED  F03E         	movff	envoit_pwm@valeur+1,?___ftneg+1
   546  0003FE  C0EE  F03F         	movff	envoit_pwm@valeur+2,?___ftneg+2
   547  000402  EC2B  F005         	call	___ftneg	;wreg free
   548  000406  C03F  F102         	movff	?___ftneg+2,envoit_pwm@abs_valeur+2
   549  00040A  C03E  F101         	movff	?___ftneg+1,envoit_pwm@abs_valeur+1
   550  00040E  C03D  F100         	movff	?___ftneg,envoit_pwm@abs_valeur
   551  000412  D006               	goto	l3410
   552  000414                     l393:
   553                           
   554                           ; BSR set to: 0
   555                           ;moteur.c: 56: else
   556                           ;moteur.c: 57: abs_valeur = (double) valeur;
   557  000414  C0EC  F100         	movff	envoit_pwm@valeur,envoit_pwm@abs_valeur
   558  000418  C0ED  F101         	movff	envoit_pwm@valeur+1,envoit_pwm@abs_valeur+1
   559  00041C  C0EE  F102         	movff	envoit_pwm@valeur+2,envoit_pwm@abs_valeur+2
   560  000420                     l3410:
   561                           
   562                           ;moteur.c: 59: abs_valeur *= (double) 669 / 100;
   563  000420  0101               	movlb	1	; () banked
   564  000422  0E01               	movlw	high envoit_pwm@abs_valeur
   565  000424  0100               	movlb	0	; () banked
   566  000426  0100               	movlb	0	; () banked
   567  000428  6FE8               	movwf	(?___asftmul+1)& (0+255),b
   568  00042A  0101               	movlb	1	; () banked
   569  00042C  0E00               	movlw	low envoit_pwm@abs_valeur
   570  00042E  0100               	movlb	0	; () banked
   571  000430  6FE7               	movwf	?___asftmul& (0+255),b
   572  000432  0E14               	movlw	20
   573  000434  0100               	movlb	0	; () banked
   574  000436  0100               	movlb	0	; () banked
   575  000438  6FE9               	movwf	(?___asftmul+2)& (0+255),b
   576  00043A  0ED6               	movlw	214
   577  00043C  0100               	movlb	0	; () banked
   578  00043E  0100               	movlb	0	; () banked
   579  000440  6FEA               	movwf	(?___asftmul+3)& (0+255),b
   580  000442  0E40               	movlw	64
   581  000444  0100               	movlb	0	; () banked
   582  000446  0100               	movlb	0	; () banked
   583  000448  6FEB               	movwf	(?___asftmul+4)& (0+255),b
   584  00044A  ECAB  F004         	call	___asftmul	;wreg free
   585                           
   586                           ;moteur.c: 61: if (abs_valeur > 669)
   587  00044E  0E40               	movlw	64
   588  000450  6E3D               	movwf	?___ftge,c
   589  000452  0E27               	movlw	39
   590  000454  6E3E               	movwf	?___ftge+1,c
   591  000456  0E44               	movlw	68
   592  000458  6E3F               	movwf	?___ftge+2,c
   593  00045A  C100  F040         	movff	envoit_pwm@abs_valeur,?___ftge+3
   594  00045E  C101  F041         	movff	envoit_pwm@abs_valeur+1,?___ftge+4
   595  000462  C102  F042         	movff	envoit_pwm@abs_valeur+2,?___ftge+5
   596  000466  ECC9  F002         	call	___ftge	;wreg free
   597  00046A  B0D8               	btfsc	status,0,c
   598  00046C  D00C               	goto	l3416
   599                           
   600                           ;moteur.c: 62: abs_valeur = 669;
   601  00046E  0E40               	movlw	64
   602  000470  0101               	movlb	1	; () banked
   603  000472  0101               	movlb	1	; () banked
   604  000474  6F00               	movwf	envoit_pwm@abs_valeur& (0+255),b
   605  000476  0E27               	movlw	39
   606  000478  0101               	movlb	1	; () banked
   607  00047A  0101               	movlb	1	; () banked
   608  00047C  6F01               	movwf	(envoit_pwm@abs_valeur+1)& (0+255),b
   609  00047E  0E44               	movlw	68
   610  000480  0101               	movlb	1	; () banked
   611  000482  0101               	movlb	1	; () banked
   612  000484  6F02               	movwf	(envoit_pwm@abs_valeur+2)& (0+255),b
   613  000486                     l3416:
   614                           
   615                           ;moteur.c: 64: if (valeur < (double) 0.)
   616  000486  0100               	movlb	0	; () banked
   617  000488  0100               	movlb	0	; () banked
   618  00048A  51EE               	movf	(envoit_pwm@valeur+2)& (0+255),w,b
   619  00048C  0A80               	xorlw	128
   620  00048E  0F80               	addlw	128
   621  000490  E107               	bnz	u1205
   622  000492  0E00               	movlw	0
   623  000494  0100               	movlb	0	; () banked
   624  000496  5DED               	subwf	(envoit_pwm@valeur+1)& (0+255),w,b
   625  000498  E103               	bnz	u1205
   626  00049A  0E00               	movlw	0
   627  00049C  0100               	movlb	0	; () banked
   628  00049E  5DEC               	subwf	envoit_pwm@valeur& (0+255),w,b
   629  0004A0                     u1205:
   630  0004A0  B0D8               	btfsc	status,0,c
   631  0004A2  D002               	goto	l396
   632                           
   633                           ; BSR set to: 0
   634                           ;moteur.c: 65: {
   635                           ;moteur.c: 66: PORTDbits.RD4 = 1;
   636  0004A4  8883               	bsf	3971,4,c	;volatile
   637                           
   638                           ;moteur.c: 67: }
   639  0004A6  D001               	goto	l3420
   640  0004A8                     l396:
   641                           
   642                           ; BSR set to: 0
   643                           ;moteur.c: 68: else
   644                           ;moteur.c: 69: {
   645                           ;moteur.c: 70: PORTDbits.RD4 = 0;
   646  0004A8  9883               	bcf	3971,4,c	;volatile
   647  0004AA                     l3420:
   648                           
   649                           ; BSR set to: 0
   650                           ;moteur.c: 71: }
   651                           ;moteur.c: 73: PDC0L = (uint8_t) ((uint16_t) abs_valeur % 256);
   652  0004AA  C100  F03D         	movff	envoit_pwm@abs_valeur,?___fttol
   653  0004AE  C101  F03E         	movff	envoit_pwm@abs_valeur+1,?___fttol+1
   654  0004B2  C102  F03F         	movff	envoit_pwm@abs_valeur+2,?___fttol+2
   655  0004B6  EC50  F001         	call	___fttol	;wreg free
   656  0004BA  503D               	movf	?___fttol,w,c
   657  0004BC  6E79               	movwf	3961,c	;volatile
   658                           
   659                           ;moteur.c: 74: PDC0H = (uint8_t) ((uint16_t) abs_valeur / 256);
   660  0004BE  C100  F03D         	movff	envoit_pwm@abs_valeur,?___fttol
   661  0004C2  C101  F03E         	movff	envoit_pwm@abs_valeur+1,?___fttol+1
   662  0004C6  C102  F03F         	movff	envoit_pwm@abs_valeur+2,?___fttol+2
   663  0004CA  EC50  F001         	call	___fttol	;wreg free
   664  0004CE  C03E  F03D         	movff	?___fttol+1,?___fttol
   665  0004D2  6A3E               	clrf	?___fttol+1,c
   666  0004D4  503D               	movf	?___fttol,w,c
   667  0004D6  6E78               	movwf	3960,c	;volatile
   668  0004D8  0012               	return	
   669  0004DA                     __end_of_envoit_pwm:
   670                           	opt stack 0
   671                           tblptru	equ	0xFF8
   672                           postinc0	equ	0xFEE
   673                           wreg	equ	0xFE8
   674                           status	equ	0xFD8
   675                           
   676 ;; *************** function ___fttol *****************
   677 ;; Defined at:
   678 ;;		line 45 in file "C:\Program Files (x86)\Microchip\xc8\v1.21\sources\common\fttol.c"
   679 ;; Parameters:    Size  Location     Type
   680 ;;  f1              3   24[COMRAM] float 
   681 ;; Auto vars:     Size  Location     Type
   682 ;;  lval            4   16[BANK0 ] unsigned long 
   683 ;;  exp1            1   20[BANK0 ] unsigned char 
   684 ;;  sign1           1   15[BANK0 ] unsigned char 
   685 ;; Return value:  Size  Location     Type
   686 ;;                  4   24[COMRAM] long 
   687 ;; Registers used:
   688 ;;		wreg, status,2, status,0
   689 ;; Tracked objects:
   690 ;;		On entry : 0/0
   691 ;;		On exit  : 0/0
   692 ;;		Unchanged: 0/0
   693 ;; Data sizes:     COMRAM   BANK0   BANK1   BANK2
   694 ;;      Params:         4       0       0       0
   695 ;;      Locals:         0       6       0       0
   696 ;;      Temps:          5       0       0       0
   697 ;;      Totals:         9       6       0       0
   698 ;;Total ram usage:       15 bytes
   699 ;; Hardware stack levels used:    1
   700 ;; Hardware stack levels required when called:    6
   701 ;; This function calls:
   702 ;;		Nothing
   703 ;; This function is called by:
   704 ;;		_envoit_pwm
   705 ;; This function uses a non-reentrant model
   706 ;;
   707                           
   708                           	psect	text2
   709  0002A0                     __ptext2:
   710                           	opt stack 0
   711  0002A0                     ___fttol:
   712                           	opt stack 22
   713                           
   714                           ;incstack = 0
   715                           ;incstack = 0
   716  0002A0  0E0F               	movlw	15
   717  0002A2  6E41               	movwf	??___fttol& (0+255),c
   718  0002A4  C03D  F042         	movff	___fttol@f1,??___fttol+1
   719  0002A8  C03E  F043         	movff	___fttol@f1+1,??___fttol+2
   720  0002AC  C03F  F044         	movff	___fttol@f1+2,??___fttol+3
   721  0002B0  2841               	incf	??___fttol,w,c
   722  0002B2  6E45               	movwf	(??___fttol+4)& (0+255),c
   723  0002B4  D004               	goto	u1380
   724  0002B6                     u1385:
   725  0002B6  90D8               	bcf	status,0,c
   726  0002B8  3244               	rrcf	??___fttol+3,f,c
   727  0002BA  3243               	rrcf	??___fttol+2,f,c
   728  0002BC  3242               	rrcf	??___fttol+1,f,c
   729  0002BE                     u1380:
   730  0002BE  2E45               	decfsz	(??___fttol+4)& (0+255),f,c
   731  0002C0  D7FA               	goto	u1385
   732  0002C2  5042               	movf	??___fttol+1,w,c
   733  0002C4  0100               	movlb	0	; () banked
   734  0002C6  0100               	movlb	0	; () banked
   735  0002C8  6FDB               	movwf	___fttol@exp1& (0+255),b
   736  0002CA  0100               	movlb	0	; () banked
   737  0002CC  67DB               	tstfsz	___fttol@exp1& (0+255),b
   738  0002CE  D001               	goto	l3538
   739  0002D0  D04B               	goto	u1430
   740  0002D2                     l3538:
   741                           
   742                           ; BSR set to: 0
   743  0002D2  0E17               	movlw	23
   744  0002D4  6E41               	movwf	??___fttol& (0+255),c
   745  0002D6  C03D  F042         	movff	___fttol@f1,??___fttol+1
   746  0002DA  C03E  F043         	movff	___fttol@f1+1,??___fttol+2
   747  0002DE  C03F  F044         	movff	___fttol@f1+2,??___fttol+3
   748  0002E2  2841               	incf	??___fttol,w,c
   749  0002E4  6E45               	movwf	(??___fttol+4)& (0+255),c
   750  0002E6  D004               	goto	u1400
   751  0002E8                     u1405:
   752  0002E8  90D8               	bcf	status,0,c
   753  0002EA  3244               	rrcf	??___fttol+3,f,c
   754  0002EC  3243               	rrcf	??___fttol+2,f,c
   755  0002EE  3242               	rrcf	??___fttol+1,f,c
   756  0002F0                     u1400:
   757  0002F0  2E45               	decfsz	(??___fttol+4)& (0+255),f,c
   758  0002F2  D7FA               	goto	u1405
   759  0002F4  5042               	movf	??___fttol+1,w,c
   760  0002F6  0100               	movlb	0	; () banked
   761  0002F8  0100               	movlb	0	; () banked
   762  0002FA  6FD6               	movwf	___fttol@sign1& (0+255),b
   763                           
   764                           ; BSR set to: 0
   765  0002FC  8E3E               	bsf	___fttol@f1+1,7,c
   766                           
   767                           ; BSR set to: 0
   768  0002FE  0EFF               	movlw	255
   769  000300  163D               	andwf	___fttol@f1,f,c
   770  000302  0EFF               	movlw	255
   771  000304  163E               	andwf	___fttol@f1+1,f,c
   772  000306  0E00               	movlw	0
   773  000308  163F               	andwf	___fttol@f1+2,f,c
   774                           
   775                           ; BSR set to: 0
   776  00030A  503D               	movf	___fttol@f1,w,c
   777  00030C  0100               	movlb	0	; () banked
   778  00030E  0100               	movlb	0	; () banked
   779  000310  6FD7               	movwf	___fttol@lval& (0+255),b
   780  000312  503E               	movf	___fttol@f1+1,w,c
   781  000314  0100               	movlb	0	; () banked
   782  000316  6FD8               	movwf	(___fttol@lval+1)& (0+255),b
   783  000318  503F               	movf	___fttol@f1+2,w,c
   784  00031A  0100               	movlb	0	; () banked
   785  00031C  6FD9               	movwf	(___fttol@lval+2)& (0+255),b
   786  00031E  0100               	movlb	0	; () banked
   787  000320  6BDA               	clrf	(___fttol@lval+3)& (0+255),b
   788                           
   789                           ; BSR set to: 0
   790  000322  0E8E               	movlw	142
   791  000324  0100               	movlb	0	; () banked
   792  000326  0100               	movlb	0	; () banked
   793  000328  5FDB               	subwf	___fttol@exp1& (0+255),f,b
   794                           
   795                           ; BSR set to: 0
   796  00032A  0100               	movlb	0	; () banked
   797  00032C  0100               	movlb	0	; () banked
   798  00032E  AFDB               	btfss	___fttol@exp1& (0+255),7,b
   799  000330  D016               	goto	l3560
   800                           
   801                           ; BSR set to: 0
   802  000332  0100               	movlb	0	; () banked
   803  000334  0100               	movlb	0	; () banked
   804  000336  51DB               	movf	___fttol@exp1& (0+255),w,b
   805  000338  0A80               	xorlw	128
   806  00033A  0F8F               	addlw	143
   807  00033C  A0D8               	btfss	status,0,c
   808  00033E  D014               	goto	u1430
   809  000340                     l3556:
   810                           
   811                           ; BSR set to: 0
   812  000340  0100               	movlb	0	; () banked
   813  000342  90D8               	bcf	status,0,c
   814  000344  0100               	movlb	0	; () banked
   815  000346  33DA               	rrcf	(___fttol@lval+3)& (0+255),f,b
   816  000348  0100               	movlb	0	; () banked
   817  00034A  33D9               	rrcf	(___fttol@lval+2)& (0+255),f,b
   818  00034C  0100               	movlb	0	; () banked
   819  00034E  33D8               	rrcf	(___fttol@lval+1)& (0+255),f,b
   820  000350  0100               	movlb	0	; () banked
   821  000352  33D7               	rrcf	___fttol@lval& (0+255),f,b
   822                           
   823                           ; BSR set to: 0
   824  000354  0100               	movlb	0	; () banked
   825  000356  0100               	movlb	0	; () banked
   826  000358  3FDB               	incfsz	___fttol@exp1& (0+255),f,b
   827  00035A  D7F2               	goto	l3556
   828  00035C  D01F               	goto	l3570
   829  00035E                     l3560:
   830                           
   831                           ; BSR set to: 0
   832  00035E  0E17               	movlw	23
   833  000360  0100               	movlb	0	; () banked
   834  000362  0100               	movlb	0	; () banked
   835  000364  65DB               	cpfsgt	___fttol@exp1& (0+255),b
   836  000366  D016               	goto	l3568
   837  000368                     u1430:
   838                           
   839                           ; BSR set to: 0
   840  000368  0E00               	movlw	0
   841  00036A  6E3D               	movwf	?___fttol,c
   842  00036C  0E00               	movlw	0
   843  00036E  6E3E               	movwf	?___fttol+1,c
   844  000370  0E00               	movlw	0
   845  000372  6E3F               	movwf	?___fttol+2,c
   846  000374  0E00               	movlw	0
   847  000376  6E40               	movwf	?___fttol+3,c
   848  000378  D02E               	goto	l802
   849  00037A                     l3566:
   850                           
   851                           ; BSR set to: 0
   852  00037A  0100               	movlb	0	; () banked
   853  00037C  90D8               	bcf	status,0,c
   854  00037E  0100               	movlb	0	; () banked
   855  000380  37D7               	rlcf	___fttol@lval& (0+255),f,b
   856  000382  0100               	movlb	0	; () banked
   857  000384  37D8               	rlcf	(___fttol@lval+1)& (0+255),f,b
   858  000386  0100               	movlb	0	; () banked
   859  000388  37D9               	rlcf	(___fttol@lval+2)& (0+255),f,b
   860  00038A  0100               	movlb	0	; () banked
   861  00038C  37DA               	rlcf	(___fttol@lval+3)& (0+255),f,b
   862  00038E  0100               	movlb	0	; () banked
   863  000390  0100               	movlb	0	; () banked
   864  000392  07DB               	decf	___fttol@exp1& (0+255),f,b
   865  000394                     l3568:
   866                           
   867                           ; BSR set to: 0
   868  000394  0100               	movlb	0	; () banked
   869  000396  0100               	movlb	0	; () banked
   870  000398  67DB               	tstfsz	___fttol@exp1& (0+255),b
   871  00039A  D7EF               	goto	l3566
   872  00039C                     l3570:
   873                           
   874                           ; BSR set to: 0
   875  00039C  0100               	movlb	0	; () banked
   876  00039E  0100               	movlb	0	; () banked
   877  0003A0  51D6               	movf	___fttol@sign1& (0+255),w,b
   878  0003A2  B4D8               	btfsc	status,2,c
   879  0003A4  D010               	goto	l3574
   880                           
   881                           ; BSR set to: 0
   882  0003A6  0100               	movlb	0	; () banked
   883  0003A8  0100               	movlb	0	; () banked
   884  0003AA  1FDA               	comf	(___fttol@lval+3)& (0+255),f,b
   885  0003AC  0100               	movlb	0	; () banked
   886  0003AE  1FD9               	comf	(___fttol@lval+2)& (0+255),f,b
   887  0003B0  0100               	movlb	0	; () banked
   888  0003B2  1FD8               	comf	(___fttol@lval+1)& (0+255),f,b
   889  0003B4  0100               	movlb	0	; () banked
   890  0003B6  6DD7               	negf	___fttol@lval& (0+255),b
   891  0003B8  0E00               	movlw	0
   892  0003BA  0100               	movlb	0	; () banked
   893  0003BC  23D8               	addwfc	(___fttol@lval+1)& (0+255),f,b
   894  0003BE  0100               	movlb	0	; () banked
   895  0003C0  23D9               	addwfc	(___fttol@lval+2)& (0+255),f,b
   896  0003C2  0100               	movlb	0	; () banked
   897  0003C4  23DA               	addwfc	(___fttol@lval+3)& (0+255),f,b
   898  0003C6                     l3574:
   899                           
   900                           ; BSR set to: 0
   901  0003C6  C0D7  F03D         	movff	___fttol@lval,?___fttol
   902  0003CA  C0D8  F03E         	movff	___fttol@lval+1,?___fttol+1
   903  0003CE  C0D9  F03F         	movff	___fttol@lval+2,?___fttol+2
   904  0003D2  C0DA  F040         	movff	___fttol@lval+3,?___fttol+3
   905  0003D6                     l802:
   906                           
   907                           ; BSR set to: 0
   908  0003D6  0012               	return	
   909  0003D8                     __end_of___fttol:
   910                           	opt stack 0
   911                           tblptru	equ	0xFF8
   912                           postinc0	equ	0xFEE
   913                           wreg	equ	0xFE8
   914                           status	equ	0xFD8
   915                           
   916 ;; *************** function ___ftneg *****************
   917 ;; Defined at:
   918 ;;		line 16 in file "C:\Program Files (x86)\Microchip\xc8\v1.21\sources\common\ftneg.c"
   919 ;; Parameters:    Size  Location     Type
   920 ;;  f1              3   24[COMRAM] float 
   921 ;; Auto vars:     Size  Location     Type
   922 ;;		None
   923 ;; Return value:  Size  Location     Type
   924 ;;                  3   24[COMRAM] float 
   925 ;; Registers used:
   926 ;;		wreg, status,2, status,0
   927 ;; Tracked objects:
   928 ;;		On entry : 0/0
   929 ;;		On exit  : 0/0
   930 ;;		Unchanged: 0/0
   931 ;; Data sizes:     COMRAM   BANK0   BANK1   BANK2
   932 ;;      Params:         3       0       0       0
   933 ;;      Locals:         0       0       0       0
   934 ;;      Temps:          0       0       0       0
   935 ;;      Totals:         3       0       0       0
   936 ;;Total ram usage:        3 bytes
   937 ;; Hardware stack levels used:    1
   938 ;; Hardware stack levels required when called:    6
   939 ;; This function calls:
   940 ;;		Nothing
   941 ;; This function is called by:
   942 ;;		_envoit_pwm
   943 ;; This function uses a non-reentrant model
   944 ;;
   945                           
   946                           	psect	text3
   947  000A56                     __ptext3:
   948                           	opt stack 0
   949  000A56                     ___ftneg:
   950                           	opt stack 22
   951                           
   952                           ; BSR set to: 0
   953                           ;incstack = 0
   954                           ;incstack = 0
   955  000A56  0E7F               	movlw	127
   956  000A58  143F               	andwf	___ftneg@f1+2,w,c
   957  000A5A  103E               	iorwf	___ftneg@f1+1,w,c
   958  000A5C  103D               	iorwf	___ftneg@f1,w,c
   959  000A5E  B4D8               	btfsc	status,2,c
   960  000A60  D006               	goto	l792
   961  000A62  0E00               	movlw	0
   962  000A64  1A3D               	xorwf	___ftneg@f1,f,c
   963  000A66  0E00               	movlw	0
   964  000A68  1A3E               	xorwf	___ftneg@f1+1,f,c
   965  000A6A  0E80               	movlw	128
   966  000A6C  1A3F               	xorwf	___ftneg@f1+2,f,c
   967  000A6E                     l792:
   968  000A6E  C03D  F03D         	movff	___ftneg@f1,?___ftneg
   969  000A72  C03E  F03E         	movff	___ftneg@f1+1,?___ftneg+1
   970  000A76  C03F  F03F         	movff	___ftneg@f1+2,?___ftneg+2
   971  000A7A  0012               	return	
   972  000A7C                     __end_of___ftneg:
   973                           	opt stack 0
   974                           tblptru	equ	0xFF8
   975                           postinc0	equ	0xFEE
   976                           wreg	equ	0xFE8
   977                           status	equ	0xFD8
   978                           
   979 ;; *************** function ___ftge *****************
   980 ;; Defined at:
   981 ;;		line 5 in file "C:\Program Files (x86)\Microchip\xc8\v1.21\sources\common\ftge.c"
   982 ;; Parameters:    Size  Location     Type
   983 ;;  ff1             3   24[COMRAM] float 
   984 ;;  ff2             3   27[COMRAM] float 
   985 ;; Auto vars:     Size  Location     Type
   986 ;;		None
   987 ;; Return value:  Size  Location     Type
   988 ;;		None               void
   989 ;; Registers used:
   990 ;;		wreg, status,2, status,0
   991 ;; Tracked objects:
   992 ;;		On entry : 0/0
   993 ;;		On exit  : 0/0
   994 ;;		Unchanged: 0/0
   995 ;; Data sizes:     COMRAM   BANK0   BANK1   BANK2
   996 ;;      Params:         6       0       0       0
   997 ;;      Locals:         0       0       0       0
   998 ;;      Temps:          3       0       0       0
   999 ;;      Totals:         9       0       0       0
  1000 ;;Total ram usage:        9 bytes
  1001 ;; Hardware stack levels used:    1
  1002 ;; Hardware stack levels required when called:    6
  1003 ;; This function calls:
  1004 ;;		Nothing
  1005 ;; This function is called by:
  1006 ;;		_envoit_pwm
  1007 ;; This function uses a non-reentrant model
  1008 ;;
  1009                           
  1010                           	psect	text4
  1011  000592                     __ptext4:
  1012                           	opt stack 0
  1013  000592                     ___ftge:
  1014                           	opt stack 22
  1015                           
  1016                           ;incstack = 0
  1017                           ;incstack = 0
  1018  000592  AE3F               	btfss	___ftge@ff1+2,7,c
  1019  000594  D016               	goto	l3514
  1020  000596  C03D  F043         	movff	___ftge@ff1,??___ftge
  1021  00059A  C03E  F044         	movff	___ftge@ff1+1,??___ftge+1
  1022  00059E  C03F  F045         	movff	___ftge@ff1+2,??___ftge+2
  1023  0005A2  1E43               	comf	??___ftge,f,c
  1024  0005A4  1E44               	comf	??___ftge+1,f,c
  1025  0005A6  1E45               	comf	??___ftge+2,f,c
  1026  0005A8  2A43               	incf	??___ftge,f,c
  1027  0005AA  0E00               	movlw	0
  1028  0005AC  2244               	addwfc	??___ftge+1,f,c
  1029  0005AE  2245               	addwfc	??___ftge+2,f,c
  1030  0005B0  0E00               	movlw	0
  1031  0005B2  2443               	addwf	??___ftge,w,c
  1032  0005B4  6E3D               	movwf	___ftge@ff1,c
  1033  0005B6  0E00               	movlw	0
  1034  0005B8  2044               	addwfc	??___ftge+1,w,c
  1035  0005BA  6E3E               	movwf	___ftge@ff1+1,c
  1036  0005BC  0E80               	movlw	128
  1037  0005BE  2045               	addwfc	??___ftge+2,w,c
  1038  0005C0  6E3F               	movwf	___ftge@ff1+2,c
  1039  0005C2                     l3514:
  1040  0005C2  AE42               	btfss	___ftge@ff2+2,7,c
  1041  0005C4  D016               	goto	l3518
  1042  0005C6  C040  F043         	movff	___ftge@ff2,??___ftge
  1043  0005CA  C041  F044         	movff	___ftge@ff2+1,??___ftge+1
  1044  0005CE  C042  F045         	movff	___ftge@ff2+2,??___ftge+2
  1045  0005D2  1E43               	comf	??___ftge,f,c
  1046  0005D4  1E44               	comf	??___ftge+1,f,c
  1047  0005D6  1E45               	comf	??___ftge+2,f,c
  1048  0005D8  2A43               	incf	??___ftge,f,c
  1049  0005DA  0E00               	movlw	0
  1050  0005DC  2244               	addwfc	??___ftge+1,f,c
  1051  0005DE  2245               	addwfc	??___ftge+2,f,c
  1052  0005E0  0E00               	movlw	0
  1053  0005E2  2443               	addwf	??___ftge,w,c
  1054  0005E4  6E40               	movwf	___ftge@ff2,c
  1055  0005E6  0E00               	movlw	0
  1056  0005E8  2044               	addwfc	??___ftge+1,w,c
  1057  0005EA  6E41               	movwf	___ftge@ff2+1,c
  1058  0005EC  0E80               	movlw	128
  1059  0005EE  2045               	addwfc	??___ftge+2,w,c
  1060  0005F0  6E42               	movwf	___ftge@ff2+2,c
  1061  0005F2                     l3518:
  1062  0005F2  0E00               	movlw	0
  1063  0005F4  1A3D               	xorwf	___ftge@ff1,f,c
  1064  0005F6  0E00               	movlw	0
  1065  0005F8  1A3E               	xorwf	___ftge@ff1+1,f,c
  1066  0005FA  0E80               	movlw	128
  1067  0005FC  1A3F               	xorwf	___ftge@ff1+2,f,c
  1068  0005FE  0E00               	movlw	0
  1069  000600  1A40               	xorwf	___ftge@ff2,f,c
  1070  000602  0E00               	movlw	0
  1071  000604  1A41               	xorwf	___ftge@ff2+1,f,c
  1072  000606  0E80               	movlw	128
  1073  000608  1A42               	xorwf	___ftge@ff2+2,f,c
  1074  00060A  5040               	movf	___ftge@ff2,w,c
  1075  00060C  5C3D               	subwf	___ftge@ff1,w,c
  1076  00060E  5041               	movf	___ftge@ff2+1,w,c
  1077  000610  583E               	subwfb	___ftge@ff1+1,w,c
  1078  000612  5042               	movf	___ftge@ff2+2,w,c
  1079  000614  583F               	subwfb	___ftge@ff1+2,w,c
  1080  000616  B0D8               	btfsc	status,0,c
  1081  000618  D002               	goto	l3524
  1082  00061A  90D8               	bcf	status,0,c
  1083  00061C  D001               	goto	l776
  1084  00061E                     l3524:
  1085  00061E  80D8               	bsf	status,0,c
  1086  000620                     l776:
  1087  000620  0012               	return	
  1088  000622                     __end_of___ftge:
  1089                           	opt stack 0
  1090                           tblptru	equ	0xFF8
  1091                           postinc0	equ	0xFEE
  1092                           wreg	equ	0xFE8
  1093                           status	equ	0xFD8
  1094                           
  1095 ;; *************** function ___asftmul *****************
  1096 ;; Defined at:
  1097 ;;		line 5 in file "C:\Program Files (x86)\Microchip\xc8\v1.21\sources\pic18\asftmul.c"
  1098 ;; Parameters:    Size  Location     Type
  1099 ;;  f1p             2   32[BANK0 ] PTR float 
  1100 ;;		 -> envoit_pwm@abs_valeur(3), 
  1101 ;;  f2              3   34[BANK0 ] float 
  1102 ;; Auto vars:     Size  Location     Type
  1103 ;;		None
  1104 ;; Return value:  Size  Location     Type
  1105 ;;                  3   32[BANK0 ] float 
  1106 ;; Registers used:
  1107 ;;		wreg, fsr2l, fsr2h, status,2, status,0, cstack
  1108 ;; Tracked objects:
  1109 ;;		On entry : 0/0
  1110 ;;		On exit  : 0/0
  1111 ;;		Unchanged: 0/0
  1112 ;; Data sizes:     COMRAM   BANK0   BANK1   BANK2
  1113 ;;      Params:         0       5       0       0
  1114 ;;      Locals:         0       0       0       0
  1115 ;;      Temps:          0       0       0       0
  1116 ;;      Totals:         0       5       0       0
  1117 ;;Total ram usage:        5 bytes
  1118 ;; Hardware stack levels used:    1
  1119 ;; Hardware stack levels required when called:    8
  1120 ;; This function calls:
  1121 ;;		___ftmul
  1122 ;; This function is called by:
  1123 ;;		_envoit_pwm
  1124 ;; This function uses a non-reentrant model
  1125 ;;
  1126                           
  1127                           	psect	text5
  1128  000956                     __ptext5:
  1129                           	opt stack 0
  1130  000956                     ___asftmul:
  1131                           	opt stack 20
  1132                           
  1133                           ;	Return value of ___asftmul is never used
  1134                           
  1135                           ;incstack = 0
  1136                           ;incstack = 0
  1137  000956  C0E7  FFD9         	movff	___asftmul@f1p,fsr2l
  1138  00095A  C0E8  FFDA         	movff	___asftmul@f1p+1,fsr2h
  1139  00095E  0100               	movlb	0	; () banked
  1140  000960  CFDE F0D6          	movff	postinc2,?___ftmul
  1141  000964  0100               	movlb	0	; () banked
  1142  000966  CFDE F0D7          	movff	postinc2,?___ftmul+1
  1143  00096A  0100               	movlb	0	; () banked
  1144  00096C  CFDD F0D8          	movff	postdec2,?___ftmul+2
  1145  000970  C0E9  F0D9         	movff	___asftmul@f2,?___ftmul+3
  1146  000974  C0EA  F0DA         	movff	___asftmul@f2+1,?___ftmul+4
  1147  000978  C0EB  F0DB         	movff	___asftmul@f2+2,?___ftmul+5
  1148  00097C  EC59  F000         	call	___ftmul	;wreg free
  1149  000980  C0E7  FFD9         	movff	___asftmul@f1p,fsr2l
  1150  000984  C0E8  FFDA         	movff	___asftmul@f1p+1,fsr2h
  1151  000988  C0D6  FFDE         	movff	?___ftmul,postinc2
  1152  00098C  C0D7  FFDE         	movff	?___ftmul+1,postinc2
  1153  000990  C0D8  FFDD         	movff	?___ftmul+2,postdec2
  1154  000994  52DD               	movf	postdec2,f,c
  1155  000996  0012               	return	
  1156  000998                     __end_of___asftmul:
  1157                           	opt stack 0
  1158                           tblptru	equ	0xFF8
  1159                           postinc0	equ	0xFEE
  1160                           wreg	equ	0xFE8
  1161                           postinc2	equ	0xFDE
  1162                           postdec2	equ	0xFDD
  1163                           fsr2h	equ	0xFDA
  1164                           fsr2l	equ	0xFD9
  1165                           status	equ	0xFD8
  1166                           
  1167 ;; *************** function ___ftmul *****************
  1168 ;; Defined at:
  1169 ;;		line 52 in file "C:\Program Files (x86)\Microchip\xc8\v1.21\sources\common\ftmul.c"
  1170 ;; Parameters:    Size  Location     Type
  1171 ;;  f1              3   15[BANK0 ] float 
  1172 ;;  f2              3   18[BANK0 ] float 
  1173 ;; Auto vars:     Size  Location     Type
  1174 ;;  f3_as_produc    3   27[BANK0 ] unsigned um
  1175 ;;  sign            1   31[BANK0 ] unsigned char 
  1176 ;;  cntr            1   30[BANK0 ] unsigned char 
  1177 ;;  exp             1   26[BANK0 ] unsigned char 
  1178 ;; Return value:  Size  Location     Type
  1179 ;;                  3   15[BANK0 ] float 
  1180 ;; Registers used:
  1181 ;;		wreg, status,2, status,0, cstack
  1182 ;; Tracked objects:
  1183 ;;		On entry : 0/0
  1184 ;;		On exit  : 0/0
  1185 ;;		Unchanged: 0/0
  1186 ;; Data sizes:     COMRAM   BANK0   BANK1   BANK2
  1187 ;;      Params:         0       6       0       0
  1188 ;;      Locals:         0       6       0       0
  1189 ;;      Temps:          0       5       0       0
  1190 ;;      Totals:         0      17       0       0
  1191 ;;Total ram usage:       17 bytes
  1192 ;; Hardware stack levels used:    1
  1193 ;; Hardware stack levels required when called:    7
  1194 ;; This function calls:
  1195 ;;		___ftpack
  1196 ;; This function is called by:
  1197 ;;		___asftmul
  1198 ;; This function uses a non-reentrant model
  1199 ;;
  1200                           
  1201                           	psect	text6
  1202  0000B2                     __ptext6:
  1203                           	opt stack 0
  1204  0000B2                     ___ftmul:
  1205                           	opt stack 20
  1206                           
  1207                           ;incstack = 0
  1208                           ;incstack = 0
  1209  0000B2  0E0F               	movlw	15
  1210  0000B4  0100               	movlb	0	; () banked
  1211  0000B6  6FDC               	movwf	??___ftmul& (0+255),b
  1212  0000B8  0100               	movlb	0	; () banked
  1213  0000BA  C0D6  F0DD         	movff	___ftmul@f1,??___ftmul+1
  1214  0000BE  0100               	movlb	0	; () banked
  1215  0000C0  C0D7  F0DE         	movff	___ftmul@f1+1,??___ftmul+2
  1216  0000C4  0100               	movlb	0	; () banked
  1217  0000C6  C0D8  F0DF         	movff	___ftmul@f1+2,??___ftmul+3
  1218  0000CA  0100               	movlb	0	; () banked
  1219  0000CC  29DC               	incf	??___ftmul& (0+255),w,b
  1220  0000CE  0100               	movlb	0	; () banked
  1221  0000D0  6FE0               	movwf	(??___ftmul+4)& (0+255),b
  1222  0000D2  D005               	goto	u1280
  1223  0000D4                     u1285:
  1224  0000D4  0100               	movlb	0	; () banked
  1225  0000D6  90D8               	bcf	status,0,c
  1226  0000D8  33DF               	rrcf	(??___ftmul+3)& (0+255),f,b
  1227  0000DA  33DE               	rrcf	(??___ftmul+2)& (0+255),f,b
  1228  0000DC  33DD               	rrcf	(??___ftmul+1)& (0+255),f,b
  1229  0000DE                     u1280:
  1230  0000DE  0100               	movlb	0	; () banked
  1231  0000E0  2FE0               	decfsz	(??___ftmul+4)& (0+255),f,b
  1232  0000E2  D7F8               	goto	u1285
  1233  0000E4  0100               	movlb	0	; () banked
  1234  0000E6  51DD               	movf	(??___ftmul+1)& (0+255),w,b
  1235  0000E8  0100               	movlb	0	; () banked
  1236  0000EA  0100               	movlb	0	; () banked
  1237  0000EC  6FE1               	movwf	___ftmul@exp& (0+255),b
  1238  0000EE  0100               	movlb	0	; () banked
  1239  0000F0  67E1               	tstfsz	___ftmul@exp& (0+255),b
  1240  0000F2  D001               	goto	l3468
  1241  0000F4  D021               	goto	u1310
  1242  0000F6                     l3468:
  1243                           
  1244                           ; BSR set to: 0
  1245  0000F6  0E0F               	movlw	15
  1246  0000F8  0100               	movlb	0	; () banked
  1247  0000FA  6FDC               	movwf	??___ftmul& (0+255),b
  1248  0000FC  0100               	movlb	0	; () banked
  1249  0000FE  C0D9  F0DD         	movff	___ftmul@f2,??___ftmul+1
  1250  000102  0100               	movlb	0	; () banked
  1251  000104  C0DA  F0DE         	movff	___ftmul@f2+1,??___ftmul+2
  1252  000108  0100               	movlb	0	; () banked
  1253  00010A  C0DB  F0DF         	movff	___ftmul@f2+2,??___ftmul+3
  1254  00010E  0100               	movlb	0	; () banked
  1255  000110  29DC               	incf	??___ftmul& (0+255),w,b
  1256  000112  0100               	movlb	0	; () banked
  1257  000114  6FE0               	movwf	(??___ftmul+4)& (0+255),b
  1258  000116  D005               	goto	u1300
  1259  000118                     u1305:
  1260  000118  0100               	movlb	0	; () banked
  1261  00011A  90D8               	bcf	status,0,c
  1262  00011C  33DF               	rrcf	(??___ftmul+3)& (0+255),f,b
  1263  00011E  33DE               	rrcf	(??___ftmul+2)& (0+255),f,b
  1264  000120  33DD               	rrcf	(??___ftmul+1)& (0+255),f,b
  1265  000122                     u1300:
  1266  000122  0100               	movlb	0	; () banked
  1267  000124  2FE0               	decfsz	(??___ftmul+4)& (0+255),f,b
  1268  000126  D7F8               	goto	u1305
  1269  000128  0100               	movlb	0	; () banked
  1270  00012A  51DD               	movf	(??___ftmul+1)& (0+255),w,b
  1271  00012C  0100               	movlb	0	; () banked
  1272  00012E  0100               	movlb	0	; () banked
  1273  000130  6FE6               	movwf	___ftmul@sign& (0+255),b
  1274  000132  0100               	movlb	0	; () banked
  1275  000134  67E6               	tstfsz	___ftmul@sign& (0+255),b
  1276  000136  D00D               	goto	l3474
  1277  000138                     u1310:
  1278                           
  1279                           ; BSR set to: 0
  1280  000138  0E00               	movlw	0
  1281  00013A  0100               	movlb	0	; () banked
  1282  00013C  0100               	movlb	0	; () banked
  1283  00013E  6FD6               	movwf	?___ftmul& (0+255),b
  1284  000140  0E00               	movlw	0
  1285  000142  0100               	movlb	0	; () banked
  1286  000144  0100               	movlb	0	; () banked
  1287  000146  6FD7               	movwf	(?___ftmul+1)& (0+255),b
  1288  000148  0E00               	movlw	0
  1289  00014A  0100               	movlb	0	; () banked
  1290  00014C  0100               	movlb	0	; () banked
  1291  00014E  6FD8               	movwf	(?___ftmul+2)& (0+255),b
  1292  000150  D0A6               	goto	l782
  1293  000152                     l3474:
  1294                           
  1295                           ; BSR set to: 0
  1296  000152  0100               	movlb	0	; () banked
  1297  000154  0100               	movlb	0	; () banked
  1298  000156  51E6               	movf	___ftmul@sign& (0+255),w,b
  1299  000158  0F7B               	addlw	123
  1300  00015A  0100               	movlb	0	; () banked
  1301  00015C  0100               	movlb	0	; () banked
  1302  00015E  27E1               	addwf	___ftmul@exp& (0+255),f,b
  1303                           
  1304                           ; BSR set to: 0
  1305  000160  C0D8  F0E6         	movff	___ftmul@f1+2,___ftmul@sign
  1306  000164  0100               	movlb	0	; () banked
  1307  000166  51DB               	movf	(___ftmul@f2+2)& (0+255),w,b
  1308  000168  0100               	movlb	0	; () banked
  1309  00016A  0100               	movlb	0	; () banked
  1310  00016C  1BE6               	xorwf	___ftmul@sign& (0+255),f,b
  1311  00016E  0E80               	movlw	128
  1312  000170  0100               	movlb	0	; () banked
  1313  000172  0100               	movlb	0	; () banked
  1314  000174  17E6               	andwf	___ftmul@sign& (0+255),f,b
  1315                           
  1316                           ; BSR set to: 0
  1317  000176  0100               	movlb	0	; () banked
  1318  000178  0100               	movlb	0	; () banked
  1319  00017A  8FD7               	bsf	(___ftmul@f1+1)& (0+255),7,b
  1320                           
  1321                           ; BSR set to: 0
  1322  00017C  0100               	movlb	0	; () banked
  1323  00017E  0100               	movlb	0	; () banked
  1324  000180  8FDA               	bsf	(___ftmul@f2+1)& (0+255),7,b
  1325                           
  1326                           ; BSR set to: 0
  1327  000182  0EFF               	movlw	255
  1328  000184  0100               	movlb	0	; () banked
  1329  000186  0100               	movlb	0	; () banked
  1330  000188  17D9               	andwf	___ftmul@f2& (0+255),f,b
  1331  00018A  0EFF               	movlw	255
  1332  00018C  0100               	movlb	0	; () banked
  1333  00018E  0100               	movlb	0	; () banked
  1334  000190  17DA               	andwf	(___ftmul@f2+1)& (0+255),f,b
  1335  000192  0E00               	movlw	0
  1336  000194  0100               	movlb	0	; () banked
  1337  000196  0100               	movlb	0	; () banked
  1338  000198  17DB               	andwf	(___ftmul@f2+2)& (0+255),f,b
  1339                           
  1340                           ; BSR set to: 0
  1341  00019A  0E00               	movlw	0
  1342  00019C  0100               	movlb	0	; () banked
  1343  00019E  0100               	movlb	0	; () banked
  1344  0001A0  6FE2               	movwf	___ftmul@f3_as_product& (0+255),b
  1345  0001A2  0E00               	movlw	0
  1346  0001A4  0100               	movlb	0	; () banked
  1347  0001A6  0100               	movlb	0	; () banked
  1348  0001A8  6FE3               	movwf	(___ftmul@f3_as_product+1)& (0+255),b
  1349  0001AA  0E00               	movlw	0
  1350  0001AC  0100               	movlb	0	; () banked
  1351  0001AE  0100               	movlb	0	; () banked
  1352  0001B0  6FE4               	movwf	(___ftmul@f3_as_product+2)& (0+255),b
  1353                           
  1354                           ; BSR set to: 0
  1355  0001B2  0100               	movlb	0	; () banked
  1356  0001B4  6FDC               	movwf	??___ftmul& (0+255),b
  1357  0001B6  0E07               	movlw	7
  1358  0001B8  0100               	movlb	0	; () banked
  1359  0001BA  0100               	movlb	0	; () banked
  1360  0001BC  6FE5               	movwf	___ftmul@cntr& (0+255),b
  1361  0001BE  0100               	movlb	0	; () banked
  1362  0001C0  51DC               	movf	??___ftmul& (0+255),w,b
  1363  0001C2                     l3488:
  1364                           
  1365                           ; BSR set to: 0
  1366  0001C2  0100               	movlb	0	; () banked
  1367  0001C4  0100               	movlb	0	; () banked
  1368  0001C6  A1D6               	btfss	___ftmul@f1& (0+255),0,b
  1369  0001C8  D012               	goto	l3492
  1370                           
  1371                           ; BSR set to: 0
  1372  0001CA  0100               	movlb	0	; () banked
  1373  0001CC  0100               	movlb	0	; () banked
  1374  0001CE  51D9               	movf	___ftmul@f2& (0+255),w,b
  1375  0001D0  0100               	movlb	0	; () banked
  1376  0001D2  0100               	movlb	0	; () banked
  1377  0001D4  27E2               	addwf	___ftmul@f3_as_product& (0+255),f,b
  1378  0001D6  0100               	movlb	0	; () banked
  1379  0001D8  0100               	movlb	0	; () banked
  1380  0001DA  51DA               	movf	(___ftmul@f2+1)& (0+255),w,b
  1381  0001DC  0100               	movlb	0	; () banked
  1382  0001DE  0100               	movlb	0	; () banked
  1383  0001E0  23E3               	addwfc	(___ftmul@f3_as_product+1)& (0+255),f,b
  1384  0001E2  0100               	movlb	0	; () banked
  1385  0001E4  0100               	movlb	0	; () banked
  1386  0001E6  51DB               	movf	(___ftmul@f2+2)& (0+255),w,b
  1387  0001E8  0100               	movlb	0	; () banked
  1388  0001EA  0100               	movlb	0	; () banked
  1389  0001EC  23E4               	addwfc	(___ftmul@f3_as_product+2)& (0+255),f,b
  1390  0001EE                     l3492:
  1391                           
  1392                           ; BSR set to: 0
  1393  0001EE  0100               	movlb	0	; () banked
  1394  0001F0  90D8               	bcf	status,0,c
  1395  0001F2  0100               	movlb	0	; () banked
  1396  0001F4  33D8               	rrcf	(___ftmul@f1+2)& (0+255),f,b
  1397  0001F6  0100               	movlb	0	; () banked
  1398  0001F8  33D7               	rrcf	(___ftmul@f1+1)& (0+255),f,b
  1399  0001FA  0100               	movlb	0	; () banked
  1400  0001FC  33D6               	rrcf	___ftmul@f1& (0+255),f,b
  1401  0001FE  0100               	movlb	0	; () banked
  1402  000200  90D8               	bcf	status,0,c
  1403  000202  0100               	movlb	0	; () banked
  1404  000204  37D9               	rlcf	___ftmul@f2& (0+255),f,b
  1405  000206  0100               	movlb	0	; () banked
  1406  000208  37DA               	rlcf	(___ftmul@f2+1)& (0+255),f,b
  1407  00020A  0100               	movlb	0	; () banked
  1408  00020C  37DB               	rlcf	(___ftmul@f2+2)& (0+255),f,b
  1409                           
  1410                           ; BSR set to: 0
  1411  00020E  0100               	movlb	0	; () banked
  1412  000210  0100               	movlb	0	; () banked
  1413  000212  2FE5               	decfsz	___ftmul@cntr& (0+255),f,b
  1414  000214  D7D6               	goto	l3488
  1415                           
  1416                           ; BSR set to: 0
  1417                           
  1418                           ; BSR set to: 0
  1419  000216  0100               	movlb	0	; () banked
  1420  000218  6FDC               	movwf	??___ftmul& (0+255),b
  1421  00021A  0E09               	movlw	9
  1422  00021C  0100               	movlb	0	; () banked
  1423  00021E  0100               	movlb	0	; () banked
  1424  000220  6FE5               	movwf	___ftmul@cntr& (0+255),b
  1425  000222  0100               	movlb	0	; () banked
  1426  000224  51DC               	movf	??___ftmul& (0+255),w,b
  1427  000226                     l3498:
  1428                           
  1429                           ; BSR set to: 0
  1430  000226  0100               	movlb	0	; () banked
  1431  000228  0100               	movlb	0	; () banked
  1432  00022A  A1D6               	btfss	___ftmul@f1& (0+255),0,b
  1433  00022C  D012               	goto	l3502
  1434                           
  1435                           ; BSR set to: 0
  1436  00022E  0100               	movlb	0	; () banked
  1437  000230  0100               	movlb	0	; () banked
  1438  000232  51D9               	movf	___ftmul@f2& (0+255),w,b
  1439  000234  0100               	movlb	0	; () banked
  1440  000236  0100               	movlb	0	; () banked
  1441  000238  27E2               	addwf	___ftmul@f3_as_product& (0+255),f,b
  1442  00023A  0100               	movlb	0	; () banked
  1443  00023C  0100               	movlb	0	; () banked
  1444  00023E  51DA               	movf	(___ftmul@f2+1)& (0+255),w,b
  1445  000240  0100               	movlb	0	; () banked
  1446  000242  0100               	movlb	0	; () banked
  1447  000244  23E3               	addwfc	(___ftmul@f3_as_product+1)& (0+255),f,b
  1448  000246  0100               	movlb	0	; () banked
  1449  000248  0100               	movlb	0	; () banked
  1450  00024A  51DB               	movf	(___ftmul@f2+2)& (0+255),w,b
  1451  00024C  0100               	movlb	0	; () banked
  1452  00024E  0100               	movlb	0	; () banked
  1453  000250  23E4               	addwfc	(___ftmul@f3_as_product+2)& (0+255),f,b
  1454  000252                     l3502:
  1455                           
  1456                           ; BSR set to: 0
  1457  000252  0100               	movlb	0	; () banked
  1458  000254  90D8               	bcf	status,0,c
  1459  000256  0100               	movlb	0	; () banked
  1460  000258  33D8               	rrcf	(___ftmul@f1+2)& (0+255),f,b
  1461  00025A  0100               	movlb	0	; () banked
  1462  00025C  33D7               	rrcf	(___ftmul@f1+1)& (0+255),f,b
  1463  00025E  0100               	movlb	0	; () banked
  1464  000260  33D6               	rrcf	___ftmul@f1& (0+255),f,b
  1465  000262  0100               	movlb	0	; () banked
  1466  000264  90D8               	bcf	status,0,c
  1467  000266  0100               	movlb	0	; () banked
  1468  000268  33E4               	rrcf	(___ftmul@f3_as_product+2)& (0+255),f,b
  1469  00026A  0100               	movlb	0	; () banked
  1470  00026C  33E3               	rrcf	(___ftmul@f3_as_product+1)& (0+255),f,b
  1471  00026E  0100               	movlb	0	; () banked
  1472  000270  33E2               	rrcf	___ftmul@f3_as_product& (0+255),f,b
  1473                           
  1474                           ; BSR set to: 0
  1475  000272  0100               	movlb	0	; () banked
  1476  000274  0100               	movlb	0	; () banked
  1477  000276  2FE5               	decfsz	___ftmul@cntr& (0+255),f,b
  1478  000278  D7D6               	goto	l3498
  1479                           
  1480                           ; BSR set to: 0
  1481                           
  1482                           ; BSR set to: 0
  1483  00027A  C0E2  F03D         	movff	___ftmul@f3_as_product,?___ftpack
  1484  00027E  C0E3  F03E         	movff	___ftmul@f3_as_product+1,?___ftpack+1
  1485  000282  C0E4  F03F         	movff	___ftmul@f3_as_product+2,?___ftpack+2
  1486  000286  C0E1  F040         	movff	___ftmul@exp,?___ftpack+3
  1487  00028A  C0E6  F041         	movff	___ftmul@sign,?___ftpack+4
  1488  00028E  EC6D  F002         	call	___ftpack	;wreg free
  1489  000292  C03F  F0D8         	movff	?___ftpack+2,?___ftmul+2
  1490  000296  C03E  F0D7         	movff	?___ftpack+1,?___ftmul+1
  1491  00029A  C03D  F0D6         	movff	?___ftpack,?___ftmul
  1492  00029E                     l782:
  1493  00029E  0012               	return	
  1494  0002A0                     __end_of___ftmul:
  1495                           	opt stack 0
  1496                           tblptru	equ	0xFF8
  1497                           postinc0	equ	0xFEE
  1498                           wreg	equ	0xFE8
  1499                           postinc2	equ	0xFDE
  1500                           postdec2	equ	0xFDD
  1501                           fsr2h	equ	0xFDA
  1502                           fsr2l	equ	0xFD9
  1503                           status	equ	0xFD8
  1504                           
  1505 ;; *************** function ___ftpack *****************
  1506 ;; Defined at:
  1507 ;;		line 63 in file "C:\Program Files (x86)\Microchip\xc8\v1.21\sources\common\float.c"
  1508 ;; Parameters:    Size  Location     Type
  1509 ;;  arg             3   24[COMRAM] unsigned um
  1510 ;;  exp             1   27[COMRAM] unsigned char 
  1511 ;;  sign            1   28[COMRAM] unsigned char 
  1512 ;; Auto vars:     Size  Location     Type
  1513 ;;		None
  1514 ;; Return value:  Size  Location     Type
  1515 ;;                  3   24[COMRAM] float 
  1516 ;; Registers used:
  1517 ;;		wreg, status,2, status,0
  1518 ;; Tracked objects:
  1519 ;;		On entry : 0/0
  1520 ;;		On exit  : 0/0
  1521 ;;		Unchanged: 0/0
  1522 ;; Data sizes:     COMRAM   BANK0   BANK1   BANK2
  1523 ;;      Params:         5       0       0       0
  1524 ;;      Locals:         0       0       0       0
  1525 ;;      Temps:          3       0       0       0
  1526 ;;      Totals:         8       0       0       0
  1527 ;;Total ram usage:        8 bytes
  1528 ;; Hardware stack levels used:    1
  1529 ;; Hardware stack levels required when called:    6
  1530 ;; This function calls:
  1531 ;;		Nothing
  1532 ;; This function is called by:
  1533 ;;		___ftmul
  1534 ;; This function uses a non-reentrant model
  1535 ;;
  1536                           
  1537                           	psect	text7
  1538  0004DA                     __ptext7:
  1539                           	opt stack 0
  1540  0004DA                     ___ftpack:
  1541                           	opt stack 20
  1542                           
  1543                           ;incstack = 0
  1544                           ;incstack = 0
  1545  0004DA  5040               	movf	___ftpack@exp,w,c
  1546  0004DC  B4D8               	btfsc	status,2,c
  1547  0004DE  D005               	goto	l3428
  1548  0004E0  503D               	movf	___ftpack@arg,w,c
  1549  0004E2  103E               	iorwf	___ftpack@arg+1,w,c
  1550  0004E4  103F               	iorwf	___ftpack@arg+2,w,c
  1551  0004E6  A4D8               	btfss	status,2,c
  1552  0004E8  D00C               	goto	l3434
  1553  0004EA                     l3428:
  1554  0004EA  0E00               	movlw	0
  1555  0004EC  6E3D               	movwf	?___ftpack,c
  1556  0004EE  0E00               	movlw	0
  1557  0004F0  6E3E               	movwf	?___ftpack+1,c
  1558  0004F2  0E00               	movlw	0
  1559  0004F4  6E3F               	movwf	?___ftpack+2,c
  1560  0004F6  D04C               	goto	l698
  1561  0004F8                     l3432:
  1562  0004F8  2A40               	incf	___ftpack@exp,f,c
  1563  0004FA  90D8               	bcf	status,0,c
  1564  0004FC  323F               	rrcf	___ftpack@arg+2,f,c
  1565  0004FE  323E               	rrcf	___ftpack@arg+1,f,c
  1566  000500  323D               	rrcf	___ftpack@arg,f,c
  1567  000502                     l3434:
  1568  000502  0E00               	movlw	0
  1569  000504  143D               	andwf	___ftpack@arg,w,c
  1570  000506  6E42               	movwf	??___ftpack& (0+255),c
  1571  000508  0E00               	movlw	0
  1572  00050A  143E               	andwf	___ftpack@arg+1,w,c
  1573  00050C  6E43               	movwf	(??___ftpack+1)& (0+255),c
  1574  00050E  0EFE               	movlw	254
  1575  000510  143F               	andwf	___ftpack@arg+2,w,c
  1576  000512  6E44               	movwf	(??___ftpack+2)& (0+255),c
  1577  000514  5042               	movf	??___ftpack,w,c
  1578  000516  1043               	iorwf	??___ftpack+1,w,c
  1579  000518  1044               	iorwf	??___ftpack+2,w,c
  1580  00051A  B4D8               	btfsc	status,2,c
  1581  00051C  D00C               	goto	l3440
  1582  00051E  D7EC               	goto	l3432
  1583  000520                     l3436:
  1584  000520  2A40               	incf	___ftpack@exp,f,c
  1585  000522  0E01               	movlw	1
  1586  000524  263D               	addwf	___ftpack@arg,f,c
  1587  000526  0E00               	movlw	0
  1588  000528  223E               	addwfc	___ftpack@arg+1,f,c
  1589  00052A  0E00               	movlw	0
  1590  00052C  223F               	addwfc	___ftpack@arg+2,f,c
  1591  00052E  90D8               	bcf	status,0,c
  1592  000530  323F               	rrcf	___ftpack@arg+2,f,c
  1593  000532  323E               	rrcf	___ftpack@arg+1,f,c
  1594  000534  323D               	rrcf	___ftpack@arg,f,c
  1595  000536                     l3440:
  1596  000536  0E00               	movlw	0
  1597  000538  143D               	andwf	___ftpack@arg,w,c
  1598  00053A  6E42               	movwf	??___ftpack& (0+255),c
  1599  00053C  0E00               	movlw	0
  1600  00053E  143E               	andwf	___ftpack@arg+1,w,c
  1601  000540  6E43               	movwf	(??___ftpack+1)& (0+255),c
  1602  000542  0EFF               	movlw	255
  1603  000544  143F               	andwf	___ftpack@arg+2,w,c
  1604  000546  6E44               	movwf	(??___ftpack+2)& (0+255),c
  1605  000548  5042               	movf	??___ftpack,w,c
  1606  00054A  1043               	iorwf	??___ftpack+1,w,c
  1607  00054C  1044               	iorwf	??___ftpack+2,w,c
  1608  00054E  B4D8               	btfsc	status,2,c
  1609  000550  D006               	goto	l3444
  1610  000552  D7E6               	goto	l3436
  1611  000554                     l3442:
  1612  000554  0640               	decf	___ftpack@exp,f,c
  1613  000556  90D8               	bcf	status,0,c
  1614  000558  363D               	rlcf	___ftpack@arg,f,c
  1615  00055A  363E               	rlcf	___ftpack@arg+1,f,c
  1616  00055C  363F               	rlcf	___ftpack@arg+2,f,c
  1617  00055E                     l3444:
  1618  00055E  AE3E               	btfss	___ftpack@arg+1,7,c
  1619  000560  D7F9               	goto	l3442
  1620  000562  A040               	btfss	___ftpack@exp,0,c
  1621  000564  9E3E               	bcf	___ftpack@arg+1,7,c
  1622  000566  90D8               	bcf	status,0,c
  1623  000568  3240               	rrcf	___ftpack@exp,f,c
  1624  00056A  5040               	movf	___ftpack@exp,w,c
  1625  00056C  6E44               	movwf	(??___ftpack+2)& (0+255),c
  1626  00056E  6A43               	clrf	(??___ftpack+1)& (0+255),c
  1627  000570  6A42               	clrf	??___ftpack& (0+255),c
  1628  000572  5042               	movf	??___ftpack,w,c
  1629  000574  123D               	iorwf	___ftpack@arg,f,c
  1630  000576  5043               	movf	??___ftpack+1,w,c
  1631  000578  123E               	iorwf	___ftpack@arg+1,f,c
  1632  00057A  5044               	movf	??___ftpack+2,w,c
  1633  00057C  123F               	iorwf	___ftpack@arg+2,f,c
  1634  00057E  5041               	movf	___ftpack@sign,w,c
  1635  000580  A4D8               	btfss	status,2,c
  1636  000582  8E3F               	bsf	___ftpack@arg+2,7,c
  1637  000584  C03D  F03D         	movff	___ftpack@arg,?___ftpack
  1638  000588  C03E  F03E         	movff	___ftpack@arg+1,?___ftpack+1
  1639  00058C  C03F  F03F         	movff	___ftpack@arg+2,?___ftpack+2
  1640  000590                     l698:
  1641  000590  0012               	return	
  1642  000592                     __end_of___ftpack:
  1643                           	opt stack 0
  1644                           tblptru	equ	0xFF8
  1645                           postinc0	equ	0xFEE
  1646                           wreg	equ	0xFE8
  1647                           postinc2	equ	0xFDE
  1648                           postdec2	equ	0xFDD
  1649                           fsr2h	equ	0xFDA
  1650                           fsr2l	equ	0xFD9
  1651                           status	equ	0xFD8
  1652                           
  1653 ;; *************** function _config_pwm *****************
  1654 ;; Defined at:
  1655 ;;		line 24 in file "moteur.c"
  1656 ;; Parameters:    Size  Location     Type
  1657 ;;		None
  1658 ;; Auto vars:     Size  Location     Type
  1659 ;;		None
  1660 ;; Return value:  Size  Location     Type
  1661 ;;		None               void
  1662 ;; Registers used:
  1663 ;;		wreg, status,2
  1664 ;; Tracked objects:
  1665 ;;		On entry : 0/0
  1666 ;;		On exit  : 0/0
  1667 ;;		Unchanged: 0/0
  1668 ;; Data sizes:     COMRAM   BANK0   BANK1   BANK2
  1669 ;;      Params:         0       0       0       0
  1670 ;;      Locals:         0       0       0       0
  1671 ;;      Temps:          0       0       0       0
  1672 ;;      Totals:         0       0       0       0
  1673 ;;Total ram usage:        0 bytes
  1674 ;; Hardware stack levels used:    1
  1675 ;; Hardware stack levels required when called:    6
  1676 ;; This function calls:
  1677 ;;		Nothing
  1678 ;; This function is called by:
  1679 ;;		_main
  1680 ;; This function uses a non-reentrant model
  1681 ;;
  1682                           
  1683                           	psect	text8
  1684  00090E                     __ptext8:
  1685                           	opt stack 0
  1686  00090E                     _config_pwm:
  1687                           	opt stack 23
  1688                           
  1689                           ;moteur.c: 25: PTCON0bits.PTOPS = 0;
  1690                           
  1691                           ;incstack = 0
  1692                           ;incstack = 0
  1693  00090E  987F               	bcf	3967,4,c	;volatile
  1694  000910  9A7F               	bcf	3967,5,c	;volatile
  1695  000912  9C7F               	bcf	3967,6,c	;volatile
  1696  000914  9E7F               	bcf	3967,7,c	;volatile
  1697                           
  1698                           ;moteur.c: 26: PTCON0bits.PTCKPS = 0;
  1699  000916  0EF3               	movlw	-13
  1700  000918  167F               	andwf	3967,f,c	;volatile
  1701                           
  1702                           ;moteur.c: 27: PTCON0bits.PTMOD = 0;
  1703  00091A  0EFC               	movlw	-4
  1704  00091C  167F               	andwf	3967,f,c	;volatile
  1705                           
  1706                           ;moteur.c: 29: PTCON1bits.PTEN = 1;
  1707  00091E  8E7E               	bsf	3966,7,c	;volatile
  1708                           
  1709                           ;moteur.c: 31: PWMCON0bits.PMOD0 = 1;
  1710  000920  806F               	bsf	3951,0,c	;volatile
  1711                           
  1712                           ;moteur.c: 32: PWMCON0bits.PWMEN = 0b001;
  1713  000922  506F               	movf	3951,w,c	;volatile
  1714  000924  0B8F               	andlw	-113
  1715  000926  0910               	iorlw	16
  1716  000928  6E6F               	movwf	3951,c	;volatile
  1717                           
  1718                           ;moteur.c: 34: PWMCON1bits.UDIS = 0;
  1719  00092A  926E               	bcf	3950,1,c	;volatile
  1720                           
  1721                           ;moteur.c: 36: PTPERL = 166;
  1722  00092C  0EA6               	movlw	166
  1723  00092E  6E7B               	movwf	3963,c	;volatile
  1724                           
  1725                           ;moteur.c: 37: PTPERH = 0;
  1726  000930  0E00               	movlw	0
  1727  000932  6E7A               	movwf	3962,c	;volatile
  1728                           
  1729                           ;moteur.c: 40: PDC0L = 0;
  1730  000934  0E00               	movlw	0
  1731  000936  6E79               	movwf	3961,c	;volatile
  1732                           
  1733                           ;moteur.c: 41: PDC0H = 0;
  1734  000938  0E00               	movlw	0
  1735  00093A  6E78               	movwf	3960,c	;volatile
  1736                           
  1737                           ;moteur.c: 42: PDC1L = 0;
  1738  00093C  0E00               	movlw	0
  1739  00093E  6E77               	movwf	3959,c	;volatile
  1740                           
  1741                           ;moteur.c: 43: PDC1H = 0;
  1742  000940  0E00               	movlw	0
  1743  000942  6E76               	movwf	3958,c	;volatile
  1744                           
  1745                           ;moteur.c: 44: PDC2L = 0;
  1746  000944  0E00               	movlw	0
  1747  000946  6E75               	movwf	3957,c	;volatile
  1748                           
  1749                           ;moteur.c: 45: PDC2H = 0;
  1750  000948  0E00               	movlw	0
  1751  00094A  6E74               	movwf	3956,c	;volatile
  1752                           
  1753                           ;moteur.c: 46: PDC3L = 0;
  1754  00094C  0E00               	movlw	0
  1755  00094E  6E73               	movwf	3955,c	;volatile
  1756                           
  1757                           ;moteur.c: 47: PDC3H = 0;
  1758  000950  0E00               	movlw	0
  1759  000952  6E72               	movwf	3954,c	;volatile
  1760  000954  0012               	return	
  1761  000956                     __end_of_config_pwm:
  1762                           	opt stack 0
  1763                           tblptru	equ	0xFF8
  1764                           postinc0	equ	0xFEE
  1765                           wreg	equ	0xFE8
  1766                           postinc2	equ	0xFDE
  1767                           postdec2	equ	0xFDD
  1768                           fsr2h	equ	0xFDA
  1769                           fsr2l	equ	0xFD9
  1770                           status	equ	0xFD8
  1771                           
  1772 ;; *************** function _config_uart *****************
  1773 ;; Defined at:
  1774 ;;		line 32 in file "uart.c"
  1775 ;; Parameters:    Size  Location     Type
  1776 ;;  vitesse_com     2   24[COMRAM] unsigned int 
  1777 ;; Auto vars:     Size  Location     Type
  1778 ;;		None
  1779 ;; Return value:  Size  Location     Type
  1780 ;;		None               void
  1781 ;; Registers used:
  1782 ;;		wreg, status,2
  1783 ;; Tracked objects:
  1784 ;;		On entry : 0/0
  1785 ;;		On exit  : 0/0
  1786 ;;		Unchanged: 0/0
  1787 ;; Data sizes:     COMRAM   BANK0   BANK1   BANK2
  1788 ;;      Params:         2       0       0       0
  1789 ;;      Locals:         0       0       0       0
  1790 ;;      Temps:          0       0       0       0
  1791 ;;      Totals:         2       0       0       0
  1792 ;;Total ram usage:        2 bytes
  1793 ;; Hardware stack levels used:    1
  1794 ;; Hardware stack levels required when called:    6
  1795 ;; This function calls:
  1796 ;;		Nothing
  1797 ;; This function is called by:
  1798 ;;		_main
  1799 ;; This function uses a non-reentrant model
  1800 ;;
  1801                           
  1802                           	psect	text9
  1803  000AC4                     __ptext9:
  1804                           	opt stack 0
  1805  000AC4                     _config_uart:
  1806                           	opt stack 23
  1807                           
  1808                           ;uart.c: 39: TXSTAbits.TXEN = 1;
  1809                           
  1810                           ;incstack = 0
  1811                           ;incstack = 0
  1812  000AC4  8AAC               	bsf	4012,5,c	;volatile
  1813                           
  1814                           ;uart.c: 40: TXSTAbits.TX9 = 0;
  1815  000AC6  9CAC               	bcf	4012,6,c	;volatile
  1816                           
  1817                           ;uart.c: 41: TXSTAbits.SYNC = 0;
  1818  000AC8  98AC               	bcf	4012,4,c	;volatile
  1819                           
  1820                           ;uart.c: 42: TXSTAbits.SENDB = 0;
  1821  000ACA  96AC               	bcf	4012,3,c	;volatile
  1822                           
  1823                           ;uart.c: 43: TXSTAbits.BRGH = 1;
  1824  000ACC  84AC               	bsf	4012,2,c	;volatile
  1825                           
  1826                           ;uart.c: 44: TXSTAbits.TX9 = 0;
  1827  000ACE  9CAC               	bcf	4012,6,c	;volatile
  1828                           
  1829                           ;uart.c: 47: BAUDCONbits.BRG16 = 1;
  1830  000AD0  86AA               	bsf	4010,3,c	;volatile
  1831                           
  1832                           ;uart.c: 49: BAUDCONbits.ABDEN = 0;
  1833  000AD2  90AA               	bcf	4010,0,c	;volatile
  1834                           
  1835                           ;uart.c: 55: SPBRG = 35;
  1836  000AD4  0E23               	movlw	35
  1837  000AD6  6EAF               	movwf	4015,c	;volatile
  1838                           
  1839                           ;uart.c: 59: RCSTAbits.SPEN = 1;
  1840  000AD8  8EAB               	bsf	4011,7,c	;volatile
  1841                           
  1842                           ;uart.c: 60: RCSTAbits.RX9 = 0;
  1843  000ADA  9CAB               	bcf	4011,6,c	;volatile
  1844                           
  1845                           ;uart.c: 61: RCSTAbits.CREN = 1;
  1846  000ADC  88AB               	bsf	4011,4,c	;volatile
  1847  000ADE  0012               	return	
  1848  000AE0                     __end_of_config_uart:
  1849                           	opt stack 0
  1850                           tblptru	equ	0xFF8
  1851                           postinc0	equ	0xFEE
  1852                           wreg	equ	0xFE8
  1853                           postinc2	equ	0xFDE
  1854                           postdec2	equ	0xFDD
  1855                           fsr2h	equ	0xFDA
  1856                           fsr2l	equ	0xFD9
  1857                           status	equ	0xFD8
  1858                           
  1859 ;; *************** function _init_system *****************
  1860 ;; Defined at:
  1861 ;;		line 23 in file "system.c"
  1862 ;; Parameters:    Size  Location     Type
  1863 ;;		None
  1864 ;; Auto vars:     Size  Location     Type
  1865 ;;		None
  1866 ;; Return value:  Size  Location     Type
  1867 ;;		None               void
  1868 ;; Registers used:
  1869 ;;		wreg, fsr0l, fsr0h, fsr1l, fsr1h, fsr1l, fsr1h, fsr2l, fsr2h, status,2, status,0, pclat, btemp, btemp+1, btemp+2, bt
      +emp+3, btemp+4, btemp+5, btemp+6, btemp+7, tosl, structret, tblptrl, tblptrh, tblptru, prodl, prodh, bsr, cstack
  1870 ;; Tracked objects:
  1871 ;;		On entry : 0/0
  1872 ;;		On exit  : 0/0
  1873 ;;		Unchanged: 0/0
  1874 ;; Data sizes:     COMRAM   BANK0   BANK1   BANK2
  1875 ;;      Params:         0       0       0       0
  1876 ;;      Locals:         0       0       0       0
  1877 ;;      Temps:          0       0       0       0
  1878 ;;      Totals:         0       0       0       0
  1879 ;;Total ram usage:        0 bytes
  1880 ;; Hardware stack levels used:    1
  1881 ;; Hardware stack levels required when called:    8
  1882 ;; This function calls:
  1883 ;;		_ConfigPorts
  1884 ;;		_ConfigInterrupt
  1885 ;;		_init_timer_0
  1886 ;;		_init_uart_logiciel
  1887 ;;		_init_uart_reception
  1888 ;; This function is called by:
  1889 ;;		_main
  1890 ;; This function uses a non-reentrant model
  1891 ;;
  1892                           
  1893                           	psect	text10
  1894  000AF8                     __ptext10:
  1895                           	opt stack 0
  1896  000AF8                     _init_system:
  1897                           	opt stack 21
  1898                           
  1899                           ;system.c: 25: ConfigPorts();
  1900                           
  1901                           ;incstack = 0
  1902                           ;incstack = 0
  1903  000AF8  EC11  F003         	call	_ConfigPorts	;wreg free
  1904                           
  1905                           ;system.c: 26: ConfigInterrupt();
  1906  000AFC  EC58  F003         	call	_ConfigInterrupt	;wreg free
  1907                           
  1908                           ;system.c: 27: init_timer_0();
  1909  000B00  EC92  F005         	call	_init_timer_0	;wreg free
  1910                           
  1911                           ;system.c: 28: init_uart_logiciel();
  1912  000B04  EC87  F005         	call	_init_uart_logiciel	;wreg free
  1913                           
  1914                           ;system.c: 29: init_uart_reception();
  1915  000B08  EC3E  F005         	call	_init_uart_reception	;wreg free
  1916  000B0C  0012               	return	
  1917  000B0E                     __end_of_init_system:
  1918                           	opt stack 0
  1919                           tblptru	equ	0xFF8
  1920                           postinc0	equ	0xFEE
  1921                           wreg	equ	0xFE8
  1922                           postinc2	equ	0xFDE
  1923                           postdec2	equ	0xFDD
  1924                           fsr2h	equ	0xFDA
  1925                           fsr2l	equ	0xFD9
  1926                           status	equ	0xFD8
  1927                           
  1928 ;; *************** function _init_uart_reception *****************
  1929 ;; Defined at:
  1930 ;;		line 73 in file "uart.c"
  1931 ;; Parameters:    Size  Location     Type
  1932 ;;		None
  1933 ;; Auto vars:     Size  Location     Type
  1934 ;;		None
  1935 ;; Return value:  Size  Location     Type
  1936 ;;		None               void
  1937 ;; Registers used:
  1938 ;;		status,2
  1939 ;; Tracked objects:
  1940 ;;		On entry : 0/0
  1941 ;;		On exit  : 0/0
  1942 ;;		Unchanged: 0/0
  1943 ;; Data sizes:     COMRAM   BANK0   BANK1   BANK2
  1944 ;;      Params:         0       0       0       0
  1945 ;;      Locals:         0       0       0       0
  1946 ;;      Temps:          1       0       0       0
  1947 ;;      Totals:         1       0       0       0
  1948 ;;Total ram usage:        1 bytes
  1949 ;; Hardware stack levels used:    1
  1950 ;; Hardware stack levels required when called:    6
  1951 ;; This function calls:
  1952 ;;		Nothing
  1953 ;; This function is called by:
  1954 ;;		_init_system
  1955 ;; This function uses a non-reentrant model
  1956 ;;
  1957                           
  1958                           	psect	text11
  1959  000A7C                     __ptext11:
  1960                           	opt stack 0
  1961  000A7C                     _init_uart_reception:
  1962                           	opt stack 22
  1963                           
  1964                           ;uart.c: 74: uart_reception.buffer_plein = 0;
  1965                           
  1966                           ;incstack = 0
  1967                           ;incstack = 0
  1968  000A7C  6E3D               	movwf	??_init_uart_reception& (0+255),c
  1969  000A7E  0E00               	movlw	0
  1970  000A80  0100               	movlb	0	; () banked
  1971  000A82  0100               	movlb	0	; () banked
  1972  000A84  6FC5               	movwf	(_uart_reception+101)& (0+255),b
  1973  000A86  503D               	movf	??_init_uart_reception& (0+255),w,c
  1974                           
  1975                           ;uart.c: 75: uart_reception.buffer_vide = 1;
  1976  000A88  6E3D               	movwf	??_init_uart_reception& (0+255),c
  1977  000A8A  0E01               	movlw	1
  1978  000A8C  0100               	movlb	0	; () banked
  1979  000A8E  0100               	movlb	0	; () banked
  1980  000A90  6FC6               	movwf	(_uart_reception+102)& (0+255),b
  1981  000A92  503D               	movf	??_init_uart_reception& (0+255),w,c
  1982                           
  1983                           ;uart.c: 76: uart_reception.indice = 0;
  1984  000A94  6E3D               	movwf	??_init_uart_reception& (0+255),c
  1985  000A96  0E00               	movlw	0
  1986  000A98  0100               	movlb	0	; () banked
  1987  000A9A  0100               	movlb	0	; () banked
  1988  000A9C  6FC4               	movwf	(_uart_reception+100)& (0+255),b
  1989  000A9E  503D               	movf	??_init_uart_reception& (0+255),w,c
  1990                           
  1991                           ; BSR set to: 0
  1992  000AA0  0012               	return	
  1993  000AA2                     __end_of_init_uart_reception:
  1994                           	opt stack 0
  1995                           tblptru	equ	0xFF8
  1996                           postinc0	equ	0xFEE
  1997                           wreg	equ	0xFE8
  1998                           postinc2	equ	0xFDE
  1999                           postdec2	equ	0xFDD
  2000                           fsr2h	equ	0xFDA
  2001                           fsr2l	equ	0xFD9
  2002                           status	equ	0xFD8
  2003                           
  2004 ;; *************** function _init_uart_logiciel *****************
  2005 ;; Defined at:
  2006 ;;		line 66 in file "uart.c"
  2007 ;; Parameters:    Size  Location     Type
  2008 ;;		None
  2009 ;; Auto vars:     Size  Location     Type
  2010 ;;		None
  2011 ;; Return value:  Size  Location     Type
  2012 ;;		None               void
  2013 ;; Registers used:
  2014 ;;		wreg, fsr0l, fsr0h, fsr1l, fsr1h, fsr1l, fsr1h, fsr2l, fsr2h, status,2, status,0, pclat, btemp, btemp+1, btemp+2, bt
      +emp+3, btemp+4, btemp+5, btemp+6, btemp+7, tosl, structret, tblptrl, tblptrh, tblptru, prodl, prodh, bsr, cstack
  2015 ;; Tracked objects:
  2016 ;;		On entry : 0/0
  2017 ;;		On exit  : 0/0
  2018 ;;		Unchanged: 0/0
  2019 ;; Data sizes:     COMRAM   BANK0   BANK1   BANK2
  2020 ;;      Params:         0       0       0       0
  2021 ;;      Locals:         0       0       0       0
  2022 ;;      Temps:          1       0       0       0
  2023 ;;      Totals:         1       0       0       0
  2024 ;;Total ram usage:        1 bytes
  2025 ;; Hardware stack levels used:    1
  2026 ;; Hardware stack levels required when called:    7
  2027 ;; This function calls:
  2028 ;;		_init_timer_1
  2029 ;; This function is called by:
  2030 ;;		_init_system
  2031 ;; This function uses a non-reentrant model
  2032 ;;
  2033                           
  2034                           	psect	text12
  2035  000B0E                     __ptext12:
  2036                           	opt stack 0
  2037  000B0E                     _init_uart_logiciel:
  2038                           	opt stack 21
  2039                           
  2040                           ;uart.c: 67: uart_logiciel.transmission_en_cours = 0;
  2041                           
  2042                           ; BSR set to: 0
  2043                           ;incstack = 0
  2044                           ;incstack = 0
  2045  000B0E  6E3D               	movwf	??_init_uart_logiciel& (0+255),c
  2046  000B10  0E00               	movlw	0
  2047  000B12  6E1B               	movwf	_uart_logiciel+11,c
  2048  000B14  503D               	movf	??_init_uart_logiciel& (0+255),w,c
  2049                           
  2050                           ;uart.c: 68: uart_logiciel.indice = 0;
  2051  000B16  6E3D               	movwf	??_init_uart_logiciel& (0+255),c
  2052  000B18  0E00               	movlw	0
  2053  000B1A  6E1C               	movwf	_uart_logiciel+12,c
  2054  000B1C  503D               	movf	??_init_uart_logiciel& (0+255),w,c
  2055                           
  2056                           ;uart.c: 69: init_timer_1();
  2057  000B1E  EC70  F005         	call	_init_timer_1	;wreg free
  2058  000B22  0012               	return	
  2059  000B24                     __end_of_init_uart_logiciel:
  2060                           	opt stack 0
  2061                           tblptru	equ	0xFF8
  2062                           postinc0	equ	0xFEE
  2063                           wreg	equ	0xFE8
  2064                           postinc2	equ	0xFDE
  2065                           postdec2	equ	0xFDD
  2066                           fsr2h	equ	0xFDA
  2067                           fsr2l	equ	0xFD9
  2068                           status	equ	0xFD8
  2069                           
  2070 ;; *************** function _init_timer_1 *****************
  2071 ;; Defined at:
  2072 ;;		line 52 in file "system.c"
  2073 ;; Parameters:    Size  Location     Type
  2074 ;;		None
  2075 ;; Auto vars:     Size  Location     Type
  2076 ;;		None
  2077 ;; Return value:  Size  Location     Type
  2078 ;;		None               void
  2079 ;; Registers used:
  2080 ;;		wreg, status,2
  2081 ;; Tracked objects:
  2082 ;;		On entry : 0/0
  2083 ;;		On exit  : 0/0
  2084 ;;		Unchanged: 0/0
  2085 ;; Data sizes:     COMRAM   BANK0   BANK1   BANK2
  2086 ;;      Params:         0       0       0       0
  2087 ;;      Locals:         0       0       0       0
  2088 ;;      Temps:          0       0       0       0
  2089 ;;      Totals:         0       0       0       0
  2090 ;;Total ram usage:        0 bytes
  2091 ;; Hardware stack levels used:    1
  2092 ;; Hardware stack levels required when called:    6
  2093 ;; This function calls:
  2094 ;;		Nothing
  2095 ;; This function is called by:
  2096 ;;		_init_uart_logiciel
  2097 ;; This function uses a non-reentrant model
  2098 ;;
  2099                           
  2100                           	psect	text13
  2101  000AE0                     __ptext13:
  2102                           	opt stack 0
  2103  000AE0                     _init_timer_1:
  2104                           	opt stack 21
  2105                           
  2106                           ;system.c: 53: T1CONbits.RD16 = 1;
  2107                           
  2108                           ;incstack = 0
  2109                           ;incstack = 0
  2110  000AE0  8ECD               	bsf	4045,7,c	;volatile
  2111                           
  2112                           ;system.c: 54: T1CONbits.T1RUN = 0;
  2113  000AE2  9CCD               	bcf	4045,6,c	;volatile
  2114                           
  2115                           ;system.c: 55: T1CONbits.TMR1CS = 0;
  2116  000AE4  92CD               	bcf	4045,1,c	;volatile
  2117                           
  2118                           ;system.c: 56: T1CONbits.T1OSCEN = 1;
  2119  000AE6  86CD               	bsf	4045,3,c	;volatile
  2120                           
  2121                           ;system.c: 57: T1CONbits.T1CKPS0 = 0;
  2122  000AE8  98CD               	bcf	4045,4,c	;volatile
  2123                           
  2124                           ;system.c: 58: T1CONbits.T1CKPS1 = 0;
  2125  000AEA  9ACD               	bcf	4045,5,c	;volatile
  2126                           
  2127                           ;system.c: 60: TMR1 = 65519;
  2128  000AEC  0EFF               	movlw	255
  2129  000AEE  6ECF               	movwf	4047,c	;volatile
  2130  000AF0  0EEF               	movlw	239
  2131  000AF2  6ECE               	movwf	4046,c	;volatile
  2132                           
  2133                           ;system.c: 63: TMR1ON = 1;
  2134  000AF4  80CD               	bsf	4045,0,c	;volatile
  2135  000AF6  0012               	return	
  2136  000AF8                     __end_of_init_timer_1:
  2137                           	opt stack 0
  2138                           tblptru	equ	0xFF8
  2139                           postinc0	equ	0xFEE
  2140                           wreg	equ	0xFE8
  2141                           postinc2	equ	0xFDE
  2142                           postdec2	equ	0xFDD
  2143                           fsr2h	equ	0xFDA
  2144                           fsr2l	equ	0xFD9
  2145                           status	equ	0xFD8
  2146                           
  2147 ;; *************** function _init_timer_0 *****************
  2148 ;; Defined at:
  2149 ;;		line 40 in file "system.c"
  2150 ;; Parameters:    Size  Location     Type
  2151 ;;		None
  2152 ;; Auto vars:     Size  Location     Type
  2153 ;;		None
  2154 ;; Return value:  Size  Location     Type
  2155 ;;		None               void
  2156 ;; Registers used:
  2157 ;;		wreg, status,2
  2158 ;; Tracked objects:
  2159 ;;		On entry : 0/0
  2160 ;;		On exit  : 0/0
  2161 ;;		Unchanged: 0/0
  2162 ;; Data sizes:     COMRAM   BANK0   BANK1   BANK2
  2163 ;;      Params:         0       0       0       0
  2164 ;;      Locals:         0       0       0       0
  2165 ;;      Temps:          0       0       0       0
  2166 ;;      Totals:         0       0       0       0
  2167 ;;Total ram usage:        0 bytes
  2168 ;; Hardware stack levels used:    1
  2169 ;; Hardware stack levels required when called:    6
  2170 ;; This function calls:
  2171 ;;		Nothing
  2172 ;; This function is called by:
  2173 ;;		_init_system
  2174 ;; This function uses a non-reentrant model
  2175 ;;
  2176                           
  2177                           	psect	text14
  2178  000B24                     __ptext14:
  2179                           	opt stack 0
  2180  000B24                     _init_timer_0:
  2181                           	opt stack 22
  2182                           
  2183                           ;system.c: 41: T0CONbits.T016BIT = 1;
  2184                           
  2185                           ;incstack = 0
  2186                           ;incstack = 0
  2187  000B24  8CD5               	bsf	4053,6,c	;volatile
  2188                           
  2189                           ;system.c: 42: T0CONbits.T0PS = 0b100;
  2190  000B26  50D5               	movf	4053,w,c	;volatile
  2191  000B28  0BF8               	andlw	-8
  2192  000B2A  0904               	iorlw	4
  2193  000B2C  6ED5               	movwf	4053,c	;volatile
  2194                           
  2195                           ;system.c: 43: T0CONbits.T0CS = 0;
  2196  000B2E  9AD5               	bcf	4053,5,c	;volatile
  2197                           
  2198                           ;system.c: 44: T0CONbits.PSA = 0;
  2199  000B30  96D5               	bcf	4053,3,c	;volatile
  2200                           
  2201                           ;system.c: 46: TMR0L = 131;
  2202  000B32  0E83               	movlw	131
  2203  000B34  6ED6               	movwf	4054,c	;volatile
  2204                           
  2205                           ;system.c: 48: TMR0ON = 1;
  2206  000B36  8ED5               	bsf	4053,7,c	;volatile
  2207  000B38  0012               	return	
  2208  000B3A                     __end_of_init_timer_0:
  2209                           	opt stack 0
  2210                           tblptru	equ	0xFF8
  2211                           postinc0	equ	0xFEE
  2212                           wreg	equ	0xFE8
  2213                           postinc2	equ	0xFDE
  2214                           postdec2	equ	0xFDD
  2215                           fsr2h	equ	0xFDA
  2216                           fsr2l	equ	0xFD9
  2217                           status	equ	0xFD8
  2218                           
  2219 ;; *************** function _ConfigInterrupt *****************
  2220 ;; Defined at:
  2221 ;;		line 189 in file "system.c"
  2222 ;; Parameters:    Size  Location     Type
  2223 ;;		None
  2224 ;; Auto vars:     Size  Location     Type
  2225 ;;		None
  2226 ;; Return value:  Size  Location     Type
  2227 ;;		None               void
  2228 ;; Registers used:
  2229 ;;		None
  2230 ;; Tracked objects:
  2231 ;;		On entry : 0/0
  2232 ;;		On exit  : 0/0
  2233 ;;		Unchanged: 0/0
  2234 ;; Data sizes:     COMRAM   BANK0   BANK1   BANK2
  2235 ;;      Params:         0       0       0       0
  2236 ;;      Locals:         0       0       0       0
  2237 ;;      Temps:          0       0       0       0
  2238 ;;      Totals:         0       0       0       0
  2239 ;;Total ram usage:        0 bytes
  2240 ;; Hardware stack levels used:    1
  2241 ;; Hardware stack levels required when called:    6
  2242 ;; This function calls:
  2243 ;;		Nothing
  2244 ;; This function is called by:
  2245 ;;		_init_system
  2246 ;; This function uses a non-reentrant model
  2247 ;;
  2248                           
  2249                           	psect	text15
  2250  0006B0                     __ptext15:
  2251                           	opt stack 0
  2252  0006B0                     _ConfigInterrupt:
  2253                           	opt stack 22
  2254                           
  2255                           ;system.c: 191: INTCONbits.GIEH = 1;
  2256                           
  2257                           ;incstack = 0
  2258                           ;incstack = 0
  2259  0006B0  8EF2               	bsf	intcon,7,c	;volatile
  2260                           
  2261                           ;system.c: 192: INTCONbits.GIEL = 1;
  2262  0006B2  8CF2               	bsf	intcon,6,c	;volatile
  2263                           
  2264                           ;system.c: 193: INTCONbits.TMR0IE = 0b1;
  2265  0006B4  8AF2               	bsf	intcon,5,c	;volatile
  2266                           
  2267                           ;system.c: 194: INTCONbits.INT0IE = 0b1;
  2268  0006B6  88F2               	bsf	intcon,4,c	;volatile
  2269                           
  2270                           ;system.c: 195: INTCONbits.RBIE = 0;
  2271  0006B8  96F2               	bcf	intcon,3,c	;volatile
  2272                           
  2273                           ;system.c: 196: INTCONbits.TMR0IF = 0;
  2274  0006BA  94F2               	bcf	intcon,2,c	;volatile
  2275                           
  2276                           ;system.c: 197: INTCONbits.INT0IF = 0;
  2277  0006BC  92F2               	bcf	intcon,1,c	;volatile
  2278                           
  2279                           ;system.c: 198: INTCONbits.RBIF = 0;
  2280  0006BE  90F2               	bcf	intcon,0,c	;volatile
  2281                           
  2282                           ;system.c: 202: INTCON2bits.INTEDG0 = 0;
  2283  0006C0  9CF1               	bcf	intcon2,6,c	;volatile
  2284                           
  2285                           ;system.c: 203: INTCON2bits.INTEDG1 = 0;
  2286  0006C2  9AF1               	bcf	intcon2,5,c	;volatile
  2287                           
  2288                           ;system.c: 204: INTCON2bits.INTEDG2 = 0;
  2289  0006C4  98F1               	bcf	intcon2,4,c	;volatile
  2290                           
  2291                           ;system.c: 205: INTCON2bits.TMR0IP = 0b1;
  2292  0006C6  84F1               	bsf	intcon2,2,c	;volatile
  2293                           
  2294                           ;system.c: 208: INTCON3bits.INT2IP = 0b0 ;
  2295  0006C8  9EF0               	bcf	intcon3,7,c	;volatile
  2296                           
  2297                           ;system.c: 209: INTCON3bits.INT1IP = 0b0;
  2298  0006CA  9CF0               	bcf	intcon3,6,c	;volatile
  2299                           
  2300                           ;system.c: 210: INTCON3bits.INT2IE = 0b0;
  2301  0006CC  98F0               	bcf	intcon3,4,c	;volatile
  2302                           
  2303                           ;system.c: 211: INTCON3bits.INT2IP = 0b0;
  2304  0006CE  9EF0               	bcf	intcon3,7,c	;volatile
  2305                           
  2306                           ;system.c: 212: INTCON3bits.INT2IF = 0;
  2307  0006D0  92F0               	bcf	intcon3,1,c	;volatile
  2308                           
  2309                           ;system.c: 213: INTCON3bits.INT1IF = 0;
  2310  0006D2  90F0               	bcf	intcon3,0,c	;volatile
  2311                           
  2312                           ;system.c: 220: PIR1bits.ADIF = 0;
  2313  0006D4  9C9E               	bcf	3998,6,c	;volatile
  2314                           
  2315                           ;system.c: 221: PIR1bits.RCIF = 0;
  2316  0006D6  9A9E               	bcf	3998,5,c	;volatile
  2317                           
  2318                           ;system.c: 222: PIR1bits.TXIF = 0;
  2319  0006D8  989E               	bcf	3998,4,c	;volatile
  2320                           
  2321                           ;system.c: 223: PIR1bits.SSPIF = 0;
  2322  0006DA  969E               	bcf	3998,3,c	;volatile
  2323                           
  2324                           ;system.c: 224: PIR1bits.CCP1IF = 0;
  2325  0006DC  949E               	bcf	3998,2,c	;volatile
  2326                           
  2327                           ;system.c: 225: PIR1bits.TMR2IF = 0;
  2328  0006DE  929E               	bcf	3998,1,c	;volatile
  2329                           
  2330                           ;system.c: 226: PIR1bits.TMR1IF = 0;
  2331  0006E0  909E               	bcf	3998,0,c	;volatile
  2332                           
  2333                           ;system.c: 229: PIR2bits.OSFIF = 0;
  2334  0006E2  9EA1               	bcf	4001,7,c	;volatile
  2335                           
  2336                           ;system.c: 230: PIR2bits.EEIF = 0;
  2337  0006E4  98A1               	bcf	4001,4,c	;volatile
  2338                           
  2339                           ;system.c: 231: PIR2bits.LVDIF = 0;
  2340  0006E6  94A1               	bcf	4001,2,c	;volatile
  2341                           
  2342                           ;system.c: 232: PIR2bits.CCP2IF = 0;
  2343  0006E8  90A1               	bcf	4001,0,c	;volatile
  2344                           
  2345                           ;system.c: 235: PIR3bits.PTIF = 0;
  2346  0006EA  98A4               	bcf	4004,4,c	;volatile
  2347                           
  2348                           ;system.c: 236: PIR3bits.IC3DRIF = 0;
  2349  0006EC  96A4               	bcf	4004,3,c	;volatile
  2350                           
  2351                           ;system.c: 237: PIR3bits.IC2QEIF = 0;
  2352  0006EE  94A4               	bcf	4004,2,c	;volatile
  2353                           
  2354                           ;system.c: 238: PIR3bits.IC1IF = 0;
  2355  0006F0  92A4               	bcf	4004,1,c	;volatile
  2356                           
  2357                           ;system.c: 239: PIR3bits.TMR5IF = 0;
  2358  0006F2  90A4               	bcf	4004,0,c	;volatile
  2359                           
  2360                           ;system.c: 246: RCONbits.IPEN = 1;
  2361  0006F4  8ED0               	bsf	4048,7,c	;volatile
  2362                           
  2363                           ;system.c: 249: IPR1bits.ADIP = 0b0;
  2364  0006F6  9C9F               	bcf	3999,6,c	;volatile
  2365                           
  2366                           ;system.c: 250: IPR1bits.RC1IP = 0b0;
  2367  0006F8  9A9F               	bcf	3999,5,c	;volatile
  2368                           
  2369                           ;system.c: 251: IPR1bits.TX1IP = 0b0;
  2370  0006FA  989F               	bcf	3999,4,c	;volatile
  2371                           
  2372                           ;system.c: 252: IPR1bits.SSPIP = 0;
  2373  0006FC  969F               	bcf	3999,3,c	;volatile
  2374                           
  2375                           ;system.c: 253: IPR1bits.CCP1IP = 0;
  2376  0006FE  949F               	bcf	3999,2,c	;volatile
  2377                           
  2378                           ;system.c: 254: IPR1bits.TMR2IP = 0b0;
  2379  000700  929F               	bcf	3999,1,c	;volatile
  2380                           
  2381                           ;system.c: 255: IPR1bits.TMR1IP = 0b1;
  2382  000702  809F               	bsf	3999,0,c	;volatile
  2383                           
  2384                           ;system.c: 258: IPR2bits.OSFIP = 0;
  2385  000704  9EA2               	bcf	4002,7,c	;volatile
  2386                           
  2387                           ;system.c: 259: IPR2bits.EEIP = 1;
  2388  000706  88A2               	bsf	4002,4,c	;volatile
  2389                           
  2390                           ;system.c: 260: IPR2bits.LVDIP = 0;
  2391  000708  94A2               	bcf	4002,2,c	;volatile
  2392                           
  2393                           ;system.c: 261: IPR2bits.CCP2IP = 0;
  2394  00070A  90A2               	bcf	4002,0,c	;volatile
  2395                           
  2396                           ;system.c: 264: IPR3bits.PTIP = 0;
  2397  00070C  98A5               	bcf	4005,4,c	;volatile
  2398                           
  2399                           ;system.c: 265: IPR3bits.IC3DRIP = 0b1;
  2400  00070E  86A5               	bsf	4005,3,c	;volatile
  2401                           
  2402                           ;system.c: 266: IPR3bits.IC2QEIP = 0b1;
  2403  000710  84A5               	bsf	4005,2,c	;volatile
  2404                           
  2405                           ;system.c: 267: IPR3bits.IC1IP = 0;
  2406  000712  92A5               	bcf	4005,1,c	;volatile
  2407                           
  2408                           ;system.c: 268: IPR3bits.TMR5IP = 0b0;
  2409  000714  90A5               	bcf	4005,0,c	;volatile
  2410                           
  2411                           ;system.c: 275: PIE1bits.ADIE = 0b0;
  2412  000716  9C9D               	bcf	3997,6,c	;volatile
  2413                           
  2414                           ;system.c: 276: PIE1bits.RC1IE = 0b1;
  2415  000718  8A9D               	bsf	3997,5,c	;volatile
  2416                           
  2417                           ;system.c: 277: PIE1bits.TXIE = 0b0;
  2418  00071A  989D               	bcf	3997,4,c	;volatile
  2419                           
  2420                           ;system.c: 278: PIE1bits.SSPIE = 0;
  2421  00071C  969D               	bcf	3997,3,c	;volatile
  2422                           
  2423                           ;system.c: 279: PIE1bits.CCP1IE = 0;
  2424  00071E  949D               	bcf	3997,2,c	;volatile
  2425                           
  2426                           ;system.c: 280: PIE1bits.TMR2IE = 0b0;
  2427  000720  929D               	bcf	3997,1,c	;volatile
  2428                           
  2429                           ;system.c: 281: PIE1bits.TMR1IE = 0b1;
  2430  000722  809D               	bsf	3997,0,c	;volatile
  2431                           
  2432                           ;system.c: 284: PIE2bits.OSFIE = 0;
  2433  000724  9EA0               	bcf	4000,7,c	;volatile
  2434                           
  2435                           ;system.c: 285: PIE2bits.EEIE = 1;
  2436  000726  88A0               	bsf	4000,4,c	;volatile
  2437                           
  2438                           ;system.c: 286: PIE2bits.LVDIE = 0;
  2439  000728  94A0               	bcf	4000,2,c	;volatile
  2440                           
  2441                           ;system.c: 287: PIE2bits.CCP2IE = 0;
  2442  00072A  90A0               	bcf	4000,0,c	;volatile
  2443                           
  2444                           ;system.c: 290: PIE3bits.PTIE = 0;
  2445  00072C  98A3               	bcf	4003,4,c	;volatile
  2446                           
  2447                           ;system.c: 291: PIE3bits.IC3DRIE = 0b1;
  2448  00072E  86A3               	bsf	4003,3,c	;volatile
  2449                           
  2450                           ;system.c: 292: PIE3bits.IC2QEIE = 0b1;
  2451  000730  84A3               	bsf	4003,2,c	;volatile
  2452                           
  2453                           ;system.c: 293: PIE3bits.IC1IE = 0;
  2454  000732  92A3               	bcf	4003,1,c	;volatile
  2455                           
  2456                           ;system.c: 294: PIE3bits.TMR5IE = 0b0;
  2457  000734  90A3               	bcf	4003,0,c	;volatile
  2458  000736  0012               	return	
  2459  000738                     __end_of_ConfigInterrupt:
  2460                           	opt stack 0
  2461                           tblptru	equ	0xFF8
  2462                           intcon	equ	0xFF2
  2463                           intcon2	equ	0xFF1
  2464                           intcon3	equ	0xFF0
  2465                           postinc0	equ	0xFEE
  2466                           wreg	equ	0xFE8
  2467                           postinc2	equ	0xFDE
  2468                           postdec2	equ	0xFDD
  2469                           fsr2h	equ	0xFDA
  2470                           fsr2l	equ	0xFD9
  2471                           status	equ	0xFD8
  2472                           
  2473 ;; *************** function _ConfigPorts *****************
  2474 ;; Defined at:
  2475 ;;		line 86 in file "system.c"
  2476 ;; Parameters:    Size  Location     Type
  2477 ;;		None
  2478 ;; Auto vars:     Size  Location     Type
  2479 ;;		None
  2480 ;; Return value:  Size  Location     Type
  2481 ;;		None               void
  2482 ;; Registers used:
  2483 ;;		None
  2484 ;; Tracked objects:
  2485 ;;		On entry : 0/0
  2486 ;;		On exit  : 0/0
  2487 ;;		Unchanged: 0/0
  2488 ;; Data sizes:     COMRAM   BANK0   BANK1   BANK2
  2489 ;;      Params:         0       0       0       0
  2490 ;;      Locals:         0       0       0       0
  2491 ;;      Temps:          0       0       0       0
  2492 ;;      Totals:         0       0       0       0
  2493 ;;Total ram usage:        0 bytes
  2494 ;; Hardware stack levels used:    1
  2495 ;; Hardware stack levels required when called:    6
  2496 ;; This function calls:
  2497 ;;		Nothing
  2498 ;; This function is called by:
  2499 ;;		_init_system
  2500 ;; This function uses a non-reentrant model
  2501 ;;
  2502                           
  2503                           	psect	text16
  2504  000622                     __ptext16:
  2505                           	opt stack 0
  2506  000622                     _ConfigPorts:
  2507                           	opt stack 22
  2508                           
  2509                           ;system.c: 88: TRISAbits.RA0 = 0;
  2510                           
  2511                           ;incstack = 0
  2512                           ;incstack = 0
  2513  000622  9092               	bcf	3986,0,c	;volatile
  2514                           
  2515                           ;system.c: 89: TRISAbits.RA1 = 0;
  2516  000624  9292               	bcf	3986,1,c	;volatile
  2517                           
  2518                           ;system.c: 90: TRISAbits.RA2 = 0;
  2519  000626  9492               	bcf	3986,2,c	;volatile
  2520                           
  2521                           ;system.c: 91: TRISAbits.RA3 = 1;
  2522  000628  8692               	bsf	3986,3,c	;volatile
  2523                           
  2524                           ;system.c: 92: TRISAbits.RA4 = 1;
  2525  00062A  8892               	bsf	3986,4,c	;volatile
  2526                           
  2527                           ;system.c: 93: TRISAbits.RA5 = 0;
  2528  00062C  9A92               	bcf	3986,5,c	;volatile
  2529                           
  2530                           ;system.c: 94: TRISAbits.RA6 = 1;
  2531  00062E  8C92               	bsf	3986,6,c	;volatile
  2532                           
  2533                           ;system.c: 95: TRISAbits.RA7 = 1;
  2534  000630  8E92               	bsf	3986,7,c	;volatile
  2535                           
  2536                           ;system.c: 98: TRISBbits.RB0 = 0;
  2537  000632  9093               	bcf	3987,0,c	;volatile
  2538                           
  2539                           ;system.c: 99: TRISBbits.RB1 = 0;
  2540  000634  9293               	bcf	3987,1,c	;volatile
  2541                           
  2542                           ;system.c: 100: TRISBbits.RB2 = 0;
  2543  000636  9493               	bcf	3987,2,c	;volatile
  2544                           
  2545                           ;system.c: 101: TRISBbits.RB3 = 0;
  2546  000638  9693               	bcf	3987,3,c	;volatile
  2547                           
  2548                           ;system.c: 102: TRISBbits.RB4 = 0;
  2549  00063A  9893               	bcf	3987,4,c	;volatile
  2550                           
  2551                           ;system.c: 103: TRISBbits.RB5 = 0;
  2552  00063C  9A93               	bcf	3987,5,c	;volatile
  2553                           
  2554                           ;system.c: 104: TRISBbits.RB6 = 0;
  2555  00063E  9C93               	bcf	3987,6,c	;volatile
  2556                           
  2557                           ;system.c: 105: TRISBbits.RB7 = 0;
  2558  000640  9E93               	bcf	3987,7,c	;volatile
  2559                           
  2560                           ;system.c: 108: TRISCbits.RC0 = 1;
  2561  000642  8094               	bsf	3988,0,c	;volatile
  2562                           
  2563                           ;system.c: 109: TRISCbits.RC1 = 0;
  2564  000644  9294               	bcf	3988,1,c	;volatile
  2565                           
  2566                           ;system.c: 110: TRISCbits.RC2 = 0;
  2567  000646  9494               	bcf	3988,2,c	;volatile
  2568                           
  2569                           ;system.c: 111: TRISCbits.RC3 = 1;
  2570  000648  8694               	bsf	3988,3,c	;volatile
  2571                           
  2572                           ;system.c: 112: TRISCbits.RC4 = 0;
  2573  00064A  9894               	bcf	3988,4,c	;volatile
  2574                           
  2575                           ;system.c: 113: TRISCbits.RC5 = 0;
  2576  00064C  9A94               	bcf	3988,5,c	;volatile
  2577                           
  2578                           ;system.c: 114: TRISCbits.RC6 = 1;
  2579  00064E  8C94               	bsf	3988,6,c	;volatile
  2580                           
  2581                           ;system.c: 115: TRISCbits.RC7 = 1;
  2582  000650  8E94               	bsf	3988,7,c	;volatile
  2583                           
  2584                           ;system.c: 118: TRISDbits.RD0 = 0;
  2585  000652  9095               	bcf	3989,0,c	;volatile
  2586                           
  2587                           ;system.c: 119: TRISDbits.RD1 = 0;
  2588  000654  9295               	bcf	3989,1,c	;volatile
  2589                           
  2590                           ;system.c: 120: TRISDbits.RD2 = 1;
  2591  000656  8495               	bsf	3989,2,c	;volatile
  2592                           
  2593                           ;system.c: 121: TRISDbits.RD3 = 0;
  2594  000658  9695               	bcf	3989,3,c	;volatile
  2595                           
  2596                           ;system.c: 122: TRISDbits.RD4 = 0;
  2597  00065A  9895               	bcf	3989,4,c	;volatile
  2598                           
  2599                           ;system.c: 123: TRISDbits.RD5 = 0;
  2600  00065C  9A95               	bcf	3989,5,c	;volatile
  2601                           
  2602                           ;system.c: 124: TRISDbits.RD6 = 0;
  2603  00065E  9C95               	bcf	3989,6,c	;volatile
  2604                           
  2605                           ;system.c: 125: TRISDbits.RD7 = 0;
  2606  000660  9E95               	bcf	3989,7,c	;volatile
  2607                           
  2608                           ;system.c: 128: TRISEbits.RE0 = 0;
  2609  000662  9096               	bcf	3990,0,c	;volatile
  2610                           
  2611                           ;system.c: 129: TRISEbits.RE1 = 0;
  2612  000664  9296               	bcf	3990,1,c	;volatile
  2613                           
  2614                           ;system.c: 130: TRISEbits.RE2 = 0;
  2615  000666  9496               	bcf	3990,2,c	;volatile
  2616                           
  2617                           ;system.c: 138: LATA0 = 0;
  2618  000668  9089               	bcf	3977,0,c	;volatile
  2619                           
  2620                           ;system.c: 139: LATA1 = 0;
  2621  00066A  9289               	bcf	3977,1,c	;volatile
  2622                           
  2623                           ;system.c: 140: LATA2 = 0;
  2624  00066C  9489               	bcf	3977,2,c	;volatile
  2625                           
  2626                           ;system.c: 141: LATA3 = 0;
  2627  00066E  9689               	bcf	3977,3,c	;volatile
  2628                           
  2629                           ;system.c: 142: LATA4 = 0;
  2630  000670  9889               	bcf	3977,4,c	;volatile
  2631                           
  2632                           ;system.c: 143: LATA5 = 0;
  2633  000672  9A89               	bcf	3977,5,c	;volatile
  2634                           
  2635                           ;system.c: 144: LATA6 = 0;
  2636  000674  9C89               	bcf	3977,6,c	;volatile
  2637                           
  2638                           ;system.c: 145: LATA7 = 0;
  2639  000676  9E89               	bcf	3977,7,c	;volatile
  2640                           
  2641                           ;system.c: 148: LATB0 = 0;
  2642  000678  908A               	bcf	3978,0,c	;volatile
  2643                           
  2644                           ;system.c: 149: LATB1 = 0;
  2645  00067A  928A               	bcf	3978,1,c	;volatile
  2646                           
  2647                           ;system.c: 150: LATB2 = 0;
  2648  00067C  948A               	bcf	3978,2,c	;volatile
  2649                           
  2650                           ;system.c: 151: LATB3 = 0;
  2651  00067E  968A               	bcf	3978,3,c	;volatile
  2652                           
  2653                           ;system.c: 152: LATB4 = 0;
  2654  000680  988A               	bcf	3978,4,c	;volatile
  2655                           
  2656                           ;system.c: 153: LATB5 = 0;
  2657  000682  9A8A               	bcf	3978,5,c	;volatile
  2658                           
  2659                           ;system.c: 154: LATB6 = 0;
  2660  000684  9C8A               	bcf	3978,6,c	;volatile
  2661                           
  2662                           ;system.c: 155: LATB7 = 0;
  2663  000686  9E8A               	bcf	3978,7,c	;volatile
  2664                           
  2665                           ;system.c: 158: LATC0 = 0;
  2666  000688  908B               	bcf	3979,0,c	;volatile
  2667                           
  2668                           ;system.c: 159: LATC1 = 0;
  2669  00068A  928B               	bcf	3979,1,c	;volatile
  2670                           
  2671                           ;system.c: 160: LATC2 = 0;
  2672  00068C  948B               	bcf	3979,2,c	;volatile
  2673                           
  2674                           ;system.c: 161: LATC3 = 0;
  2675  00068E  968B               	bcf	3979,3,c	;volatile
  2676                           
  2677                           ;system.c: 162: LATC4 = 0;
  2678  000690  988B               	bcf	3979,4,c	;volatile
  2679                           
  2680                           ;system.c: 163: LATC5 = 0;
  2681  000692  9A8B               	bcf	3979,5,c	;volatile
  2682                           
  2683                           ;system.c: 164: LATC6 = 0;
  2684  000694  9C8B               	bcf	3979,6,c	;volatile
  2685                           
  2686                           ;system.c: 165: LATC7 = 0;
  2687  000696  9E8B               	bcf	3979,7,c	;volatile
  2688                           
  2689                           ;system.c: 168: LATD0 = 0;
  2690  000698  908C               	bcf	3980,0,c	;volatile
  2691                           
  2692                           ;system.c: 169: LATD1 = 0;
  2693  00069A  928C               	bcf	3980,1,c	;volatile
  2694                           
  2695                           ;system.c: 170: LATD2 = 0;
  2696  00069C  948C               	bcf	3980,2,c	;volatile
  2697                           
  2698                           ;system.c: 171: LATD3 = 0;
  2699  00069E  968C               	bcf	3980,3,c	;volatile
  2700                           
  2701                           ;system.c: 172: LATD4 = 0;
  2702  0006A0  988C               	bcf	3980,4,c	;volatile
  2703                           
  2704                           ;system.c: 173: LATD5 = 0;
  2705  0006A2  9A8C               	bcf	3980,5,c	;volatile
  2706                           
  2707                           ;system.c: 174: LATD6 = 0;
  2708  0006A4  9C8C               	bcf	3980,6,c	;volatile
  2709                           
  2710                           ;system.c: 175: LATD7 = 0;
  2711  0006A6  9E8C               	bcf	3980,7,c	;volatile
  2712                           
  2713                           ;system.c: 178: LATE0 = 0;
  2714  0006A8  908D               	bcf	3981,0,c	;volatile
  2715                           
  2716                           ;system.c: 179: LATE1 = 0;
  2717  0006AA  928D               	bcf	3981,1,c	;volatile
  2718                           
  2719                           ;system.c: 180: LATE2 = 0;
  2720  0006AC  948D               	bcf	3981,2,c	;volatile
  2721  0006AE  0012               	return	
  2722  0006B0                     __end_of_ConfigPorts:
  2723                           	opt stack 0
  2724                           tblptru	equ	0xFF8
  2725                           intcon	equ	0xFF2
  2726                           intcon2	equ	0xFF1
  2727                           intcon3	equ	0xFF0
  2728                           postinc0	equ	0xFEE
  2729                           wreg	equ	0xFE8
  2730                           postinc2	equ	0xFDE
  2731                           postdec2	equ	0xFDD
  2732                           fsr2h	equ	0xFDA
  2733                           fsr2l	equ	0xFD9
  2734                           status	equ	0xFD8
  2735                           
  2736 ;; *************** function _low_isr *****************
  2737 ;; Defined at:
  2738 ;;		line 34 in file "interruptions.c"
  2739 ;; Parameters:    Size  Location     Type
  2740 ;;		None
  2741 ;; Auto vars:     Size  Location     Type
  2742 ;;		None
  2743 ;; Return value:  Size  Location     Type
  2744 ;;		None               void
  2745 ;; Registers used:
  2746 ;;		wreg, fsr2l, fsr2h, status,2, status,0, prodl, prodh, cstack
  2747 ;; Tracked objects:
  2748 ;;		On entry : 0/0
  2749 ;;		On exit  : 0/0
  2750 ;;		Unchanged: 0/0
  2751 ;; Data sizes:     COMRAM   BANK0   BANK1   BANK2
  2752 ;;      Params:         0       0       0       0
  2753 ;;      Locals:         0       0       0       0
  2754 ;;      Temps:         18       0       0       0
  2755 ;;      Totals:        18       0       0       0
  2756 ;;Total ram usage:       18 bytes
  2757 ;; Hardware stack levels used:    1
  2758 ;; Hardware stack levels required when called:    5
  2759 ;; This function calls:
  2760 ;;		_subroutine_interruptions
  2761 ;; This function is called by:
  2762 ;;		Interrupt level 1
  2763 ;; This function uses a non-reentrant model
  2764 ;;
  2765                           
  2766                           	psect	intcodelo
  2767  000018                     __pintcodelo:
  2768                           	opt stack 0
  2769  000018                     _low_isr:
  2770                           	opt stack 20
  2771                           
  2772                           ;incstack = 0
  2773  000018  CFD8 F029          	movff	status,??_low_isr+1
  2774  00001C  CFE8 F02A          	movff	wreg,??_low_isr+2
  2775  000020  CFE0 F02B          	movff	bsr,??_low_isr+3
  2776  000024  CFFA F02C          	movff	pclath,??_low_isr+4
  2777  000028  CFFB F02D          	movff	pclatu,??_low_isr+5
  2778  00002C  CFE9 F02E          	movff	fsr0l,??_low_isr+6
  2779  000030  CFEA F02F          	movff	fsr0h,??_low_isr+7
  2780  000034  CFE1 F030          	movff	fsr1l,??_low_isr+8
  2781  000038  CFE2 F031          	movff	fsr1h,??_low_isr+9
  2782  00003C  CFD9 F032          	movff	fsr2l,??_low_isr+10
  2783  000040  CFDA F033          	movff	fsr2h,??_low_isr+11
  2784  000044  CFF3 F034          	movff	prodl,??_low_isr+12
  2785  000048  CFF4 F035          	movff	prodh,??_low_isr+13
  2786  00004C  CFF6 F036          	movff	tblptrl,??_low_isr+14
  2787  000050  CFF7 F037          	movff	tblptrh,??_low_isr+15
  2788  000054  CFF8 F038          	movff	tblptru,??_low_isr+16
  2789  000058  CFF5 F039          	movff	tablat,??_low_isr+17
  2790  00005C                     
  2791                           ;interruptions.c: 35: subroutine_interruptions(0b0);
  2792  00005C  6E28               	movwf	??_low_isr& (0+255),c
  2793  00005E  0E00               	movlw	0
  2794  000060  6E27               	movwf	?_subroutine_interruptions,c
  2795  000062  5028               	movf	??_low_isr& (0+255),w,c
  2796  000064  ECD9  F003         	call	_subroutine_interruptions	;wreg free
  2797  000068  C039  FFF5         	movff	??_low_isr+17,tablat
  2798  00006C  C038  FFF8         	movff	??_low_isr+16,tblptru
  2799  000070  C037  FFF7         	movff	??_low_isr+15,tblptrh
  2800  000074  C036  FFF6         	movff	??_low_isr+14,tblptrl
  2801  000078  C035  FFF4         	movff	??_low_isr+13,prodh
  2802  00007C  C034  FFF3         	movff	??_low_isr+12,prodl
  2803  000080  C033  FFDA         	movff	??_low_isr+11,fsr2h
  2804  000084  C032  FFD9         	movff	??_low_isr+10,fsr2l
  2805  000088  C031  FFE2         	movff	??_low_isr+9,fsr1h
  2806  00008C  C030  FFE1         	movff	??_low_isr+8,fsr1l
  2807  000090  C02F  FFEA         	movff	??_low_isr+7,fsr0h
  2808  000094  C02E  FFE9         	movff	??_low_isr+6,fsr0l
  2809  000098  C02D  FFFB         	movff	??_low_isr+5,pclatu
  2810  00009C  C02C  FFFA         	movff	??_low_isr+4,pclath
  2811  0000A0  C02B  FFE0         	movff	??_low_isr+3,bsr
  2812  0000A4  C02A  FFE8         	movff	??_low_isr+2,wreg
  2813  0000A8  C029  FFD8         	movff	??_low_isr+1,status
  2814  0000AC  0010               	retfie	
  2815  0000AE                     __end_of_low_isr:
  2816                           	opt stack 0
  2817                           pclatu	equ	0xFFB
  2818                           pclath	equ	0xFFA
  2819                           tblptru	equ	0xFF8
  2820                           tblptrh	equ	0xFF7
  2821                           tblptrl	equ	0xFF6
  2822                           tablat	equ	0xFF5
  2823                           prodh	equ	0xFF4
  2824                           prodl	equ	0xFF3
  2825                           intcon	equ	0xFF2
  2826                           intcon2	equ	0xFF1
  2827                           intcon3	equ	0xFF0
  2828                           postinc0	equ	0xFEE
  2829                           fsr0h	equ	0xFEA
  2830                           fsr0l	equ	0xFE9
  2831                           wreg	equ	0xFE8
  2832                           fsr1h	equ	0xFE2
  2833                           fsr1l	equ	0xFE1
  2834                           bsr	equ	0xFE0
  2835                           postinc2	equ	0xFDE
  2836                           postdec2	equ	0xFDD
  2837                           fsr2h	equ	0xFDA
  2838                           fsr2l	equ	0xFD9
  2839                           status	equ	0xFD8
  2840                           
  2841 ;; *************** function _subroutine_interruptions *****************
  2842 ;; Defined at:
  2843 ;;		line 44 in file "interruptions.c"
  2844 ;; Parameters:    Size  Location     Type
  2845 ;;  priorite        1    2[COMRAM] unsigned char 
  2846 ;; Auto vars:     Size  Location     Type
  2847 ;;		None
  2848 ;; Return value:  Size  Location     Type
  2849 ;;		None               void
  2850 ;; Registers used:
  2851 ;;		wreg, fsr2l, fsr2h, status,2, status,0, prodl, prodh, cstack
  2852 ;; Tracked objects:
  2853 ;;		On entry : 0/0
  2854 ;;		On exit  : 0/0
  2855 ;;		Unchanged: 0/0
  2856 ;; Data sizes:     COMRAM   BANK0   BANK1   BANK2
  2857 ;;      Params:         1       0       0       0
  2858 ;;      Locals:         0       0       0       0
  2859 ;;      Temps:          0       0       0       0
  2860 ;;      Totals:         1       0       0       0
  2861 ;;Total ram usage:        1 bytes
  2862 ;; Hardware stack levels used:    1
  2863 ;; Hardware stack levels required when called:    4
  2864 ;; This function calls:
  2865 ;;		_interruption_QEI
  2866 ;;		_interuption_QEI_sens
  2867 ;;		_interruption_timer0
  2868 ;;		_interruption_timer1
  2869 ;;		_interruption_timer2
  2870 ;;		_interruption_INT0
  2871 ;;		_interrupt_RX
  2872 ;;		_interrupt_TX
  2873 ;; This function is called by:
  2874 ;;		_low_isr
  2875 ;; This function uses a non-reentrant model
  2876 ;;
  2877                           
  2878                           	psect	text18
  2879  0007B2                     __ptext18:
  2880                           	opt stack 0
  2881  0007B2                     _subroutine_interruptions:
  2882                           	opt stack 20
  2883                           
  2884                           ;interruptions.c: 45: if ( PIR3bits.IC2QEIF == 1 && 0b1 == 1 && priorite == 0b1)
  2885                           
  2886                           ;incstack = 0
  2887                           ;incstack = 0
  2888  0007B2  A4A4               	btfss	4004,2,c	;volatile
  2889  0007B4  D006               	goto	i1l297
  2890  0007B6  0427               	decf	subroutine_interruptions@priorite,w,c
  2891  0007B8  A4D8               	btfss	status,2,c
  2892  0007BA  D003               	goto	i1l297
  2893                           
  2894                           ;interruptions.c: 46: {
  2895                           ;interruptions.c: 47: interruption_QEI();
  2896  0007BC  ECAD  F005         	call	_interruption_QEI	;wreg free
  2897                           
  2898                           ;interruptions.c: 48: }
  2899  0007C0  D028               	goto	i1l312
  2900  0007C2                     i1l297:
  2901                           
  2902                           ;interruptions.c: 49: else if ( PIR3bits.IC3DRIF == 1 && 0b1 == 1 && priorite == 0b1)
  2903  0007C2  A6A4               	btfss	4004,3,c	;volatile
  2904  0007C4  D006               	goto	i1l299
  2905  0007C6  0427               	decf	subroutine_interruptions@priorite,w,c
  2906  0007C8  A4D8               	btfss	status,2,c
  2907  0007CA  D003               	goto	i1l299
  2908                           
  2909                           ;interruptions.c: 50: {
  2910                           ;interruptions.c: 51: interuption_QEI_sens();
  2911  0007CC  ECAB  F005         	call	_interuption_QEI_sens	;wreg free
  2912                           
  2913                           ;interruptions.c: 52: }
  2914  0007D0  D020               	goto	i1l312
  2915  0007D2                     i1l299:
  2916                           
  2917                           ;interruptions.c: 53: else if ( INTCONbits.TMR0IF == 1 && 0b1 == 1 && priorite == 0b1)
  2918  0007D2  A4F2               	btfss	intcon,2,c	;volatile
  2919  0007D4  D006               	goto	i1l301
  2920  0007D6  0427               	decf	subroutine_interruptions@priorite,w,c
  2921  0007D8  A4D8               	btfss	status,2,c
  2922  0007DA  D003               	goto	i1l301
  2923                           
  2924                           ;interruptions.c: 54: {
  2925                           ;interruptions.c: 55: interruption_timer0();
  2926  0007DC  EC9D  F005         	call	_interruption_timer0	;wreg free
  2927                           
  2928                           ;interruptions.c: 56: }
  2929  0007E0  D018               	goto	i1l312
  2930  0007E2                     i1l301:
  2931                           
  2932                           ;interruptions.c: 57: else if ( PIR1bits.TMR1IF == 1 && 0b1 == 1 && priorite == 0b1)
  2933  0007E2  A09E               	btfss	3998,0,c	;volatile
  2934  0007E4  D006               	goto	i1l303
  2935  0007E6  0427               	decf	subroutine_interruptions@priorite,w,c
  2936  0007E8  A4D8               	btfss	status,2,c
  2937  0007EA  D003               	goto	i1l303
  2938                           
  2939                           ;interruptions.c: 58: {
  2940                           ;interruptions.c: 59: interruption_timer1();
  2941  0007EC  EC3B  F004         	call	_interruption_timer1	;wreg free
  2942                           
  2943                           ;interruptions.c: 60: }
  2944  0007F0  D010               	goto	i1l312
  2945  0007F2                     i1l303:
  2946                           
  2947                           ;interruptions.c: 61: else if ( PIR1bits.TMR2IF == 1 && 0b0 == 1 && priorite == 0b0)
  2948  0007F2  509E               	movf	3998,w,c	;volatile
  2949                           
  2950                           ;interruptions.c: 65: else if (INTCONbits.INT0IF == 1 && 0b1 == 1 && priorite == 0b0)
  2951                           
  2952                           ;interruptions.c: 64: }
  2953                           
  2954                           ;interruptions.c: 62: {
  2955                           ;interruptions.c: 63: interruption_timer2();
  2956  0007F4  A2F2               	btfss	intcon,1,c	;volatile
  2957  0007F6  D005               	goto	i1l307
  2958  0007F8  6627               	tstfsz	subroutine_interruptions@priorite,c
  2959  0007FA  D003               	goto	i1l307
  2960                           
  2961                           ;interruptions.c: 66: {
  2962                           ;interruptions.c: 67: interruption_INT0();
  2963  0007FC  ECA7  F005         	call	_interruption_INT0	;wreg free
  2964                           
  2965                           ;interruptions.c: 68: }
  2966  000800  D008               	goto	i1l312
  2967  000802                     i1l307:
  2968                           
  2969                           ;interruptions.c: 85: else if ( PIR1bits.RCIF == 1 && 0b1 == 1 && priorite == 0b0)
  2970  000802  AA9E               	btfss	3998,5,c	;volatile
  2971  000804  D005               	goto	i1l309
  2972  000806  6627               	tstfsz	subroutine_interruptions@priorite,c
  2973  000808  D003               	goto	i1l309
  2974                           
  2975                           ;interruptions.c: 86: {
  2976                           ;interruptions.c: 87: interrupt_RX();
  2977  00080A  ECCC  F004         	call	_interrupt_RX	;wreg free
  2978                           
  2979                           ;interruptions.c: 88: }
  2980  00080E  D001               	goto	i1l312
  2981  000810                     i1l309:
  2982                           
  2983                           ;interruptions.c: 89: else if (PIR1bits.TXIF == 1 && 0b0 == 1 && priorite == 0b0)
  2984  000810  509E               	movf	3998,w,c	;volatile
  2985  000812                     i1l312:
  2986  000812  0012               	return	
  2987  000814                     __end_of_subroutine_interruptions:
  2988                           	opt stack 0
  2989                           pclatu	equ	0xFFB
  2990                           pclath	equ	0xFFA
  2991                           tblptru	equ	0xFF8
  2992                           tblptrh	equ	0xFF7
  2993                           tblptrl	equ	0xFF6
  2994                           tablat	equ	0xFF5
  2995                           prodh	equ	0xFF4
  2996                           prodl	equ	0xFF3
  2997                           intcon	equ	0xFF2
  2998                           intcon2	equ	0xFF1
  2999                           intcon3	equ	0xFF0
  3000                           postinc0	equ	0xFEE
  3001                           fsr0h	equ	0xFEA
  3002                           fsr0l	equ	0xFE9
  3003                           wreg	equ	0xFE8
  3004                           fsr1h	equ	0xFE2
  3005                           fsr1l	equ	0xFE1
  3006                           bsr	equ	0xFE0
  3007                           postinc2	equ	0xFDE
  3008                           postdec2	equ	0xFDD
  3009                           fsr2h	equ	0xFDA
  3010                           fsr2l	equ	0xFD9
  3011                           status	equ	0xFD8
  3012                           
  3013 ;; *************** function _interrupt_TX *****************
  3014 ;; Defined at:
  3015 ;;		line 194 in file "interruptions.c"
  3016 ;; Parameters:    Size  Location     Type
  3017 ;;		None
  3018 ;; Auto vars:     Size  Location     Type
  3019 ;;		None
  3020 ;; Return value:  Size  Location     Type
  3021 ;;		None               void
  3022 ;; Registers used:
  3023 ;;		None
  3024 ;; Tracked objects:
  3025 ;;		On entry : 0/0
  3026 ;;		On exit  : 0/0
  3027 ;;		Unchanged: 0/0
  3028 ;; Data sizes:     COMRAM   BANK0   BANK1   BANK2
  3029 ;;      Params:         0       0       0       0
  3030 ;;      Locals:         0       0       0       0
  3031 ;;      Temps:          0       0       0       0
  3032 ;;      Totals:         0       0       0       0
  3033 ;;Total ram usage:        0 bytes
  3034 ;; Hardware stack levels used:    1
  3035 ;; Hardware stack levels required when called:    3
  3036 ;; This function calls:
  3037 ;;		Nothing
  3038 ;; This function is called by:
  3039 ;;		_subroutine_interruptions
  3040 ;; This function uses a non-reentrant model
  3041 ;;
  3042                           
  3043                           	psect	text19
  3044  000B4A                     __ptext19:
  3045                           	opt stack 0
  3046  000B4A                     _interrupt_TX:
  3047                           	opt stack 20
  3048                           
  3049                           ;interruptions.c: 195: PIR1bits.TXIF = 0;
  3050                           
  3051                           ;incstack = 0
  3052                           ;incstack = 0
  3053  000B4A  989E               	bcf	3998,4,c	;volatile
  3054  000B4C  0012               	return	
  3055  000B4E                     __end_of_interrupt_TX:
  3056                           	opt stack 0
  3057                           pclatu	equ	0xFFB
  3058                           pclath	equ	0xFFA
  3059                           tblptru	equ	0xFF8
  3060                           tblptrh	equ	0xFF7
  3061                           tblptrl	equ	0xFF6
  3062                           tablat	equ	0xFF5
  3063                           prodh	equ	0xFF4
  3064                           prodl	equ	0xFF3
  3065                           intcon	equ	0xFF2
  3066                           intcon2	equ	0xFF1
  3067                           intcon3	equ	0xFF0
  3068                           postinc0	equ	0xFEE
  3069                           fsr0h	equ	0xFEA
  3070                           fsr0l	equ	0xFE9
  3071                           wreg	equ	0xFE8
  3072                           fsr1h	equ	0xFE2
  3073                           fsr1l	equ	0xFE1
  3074                           bsr	equ	0xFE0
  3075                           postinc2	equ	0xFDE
  3076                           postdec2	equ	0xFDD
  3077                           fsr2h	equ	0xFDA
  3078                           fsr2l	equ	0xFD9
  3079                           status	equ	0xFD8
  3080                           
  3081 ;; *************** function _interrupt_RX *****************
  3082 ;; Defined at:
  3083 ;;		line 177 in file "interruptions.c"
  3084 ;; Parameters:    Size  Location     Type
  3085 ;;		None
  3086 ;; Auto vars:     Size  Location     Type
  3087 ;;  temp            1    1[COMRAM] unsigned char 
  3088 ;; Return value:  Size  Location     Type
  3089 ;;		None               void
  3090 ;; Registers used:
  3091 ;;		wreg, fsr2l, fsr2h, status,2, status,0, prodl, prodh
  3092 ;; Tracked objects:
  3093 ;;		On entry : 0/0
  3094 ;;		On exit  : 0/0
  3095 ;;		Unchanged: 0/0
  3096 ;; Data sizes:     COMRAM   BANK0   BANK1   BANK2
  3097 ;;      Params:         0       0       0       0
  3098 ;;      Locals:         1       0       0       0
  3099 ;;      Temps:          1       0       0       0
  3100 ;;      Totals:         2       0       0       0
  3101 ;;Total ram usage:        2 bytes
  3102 ;; Hardware stack levels used:    1
  3103 ;; Hardware stack levels required when called:    3
  3104 ;; This function calls:
  3105 ;;		Nothing
  3106 ;; This function is called by:
  3107 ;;		_subroutine_interruptions
  3108 ;; This function uses a non-reentrant model
  3109 ;;
  3110                           
  3111                           	psect	text20
  3112  000998                     __ptext20:
  3113                           	opt stack 0
  3114  000998                     _interrupt_RX:
  3115                           	opt stack 20
  3116                           
  3117                           ;interruptions.c: 178: PIR1bits.RCIF = 0;
  3118                           
  3119                           ;incstack = 0
  3120                           ;incstack = 0
  3121  000998  9A9E               	bcf	3998,5,c	;volatile
  3122                           
  3123                           ;interruptions.c: 180: if (uart_reception.indice < 100)
  3124  00099A  0E64               	movlw	100
  3125  00099C  0100               	movlb	0	; () banked
  3126  00099E  0100               	movlb	0	; () banked
  3127  0009A0  61C4               	cpfslt	(_uart_reception+100)& (0+255),b
  3128  0009A2  D012               	goto	i1l2816
  3129                           
  3130                           ; BSR set to: 0
  3131                           ;interruptions.c: 181: {
  3132                           ;interruptions.c: 182: uart_reception.buffer_reeption[uart_reception.indice] = RCREG;
  3133  0009A4  0100               	movlb	0	; () banked
  3134  0009A6  0100               	movlb	0	; () banked
  3135  0009A8  51C4               	movf	(_uart_reception+100)& (0+255),w,b
  3136  0009AA  0D01               	mullw	1
  3137  0009AC  0100               	movlb	0	; () banked
  3138  0009AE  0E60               	movlw	low _uart_reception
  3139  0009B0  24F3               	addwf	prodl,w,c
  3140  0009B2  6ED9               	movwf	fsr2l,c
  3141  0009B4  0100               	movlb	0	; () banked
  3142  0009B6  0E00               	movlw	high _uart_reception
  3143  0009B8  20F4               	addwfc	prodh,w,c
  3144  0009BA  6EDA               	movwf	fsr2h,c
  3145  0009BC  CFAE FFDF          	movff	4014,indf2	;volatile
  3146                           
  3147                           ; BSR set to: 0
  3148                           ;interruptions.c: 183: uart_reception.indice++;
  3149  0009C0  0100               	movlb	0	; () banked
  3150  0009C2  0100               	movlb	0	; () banked
  3151  0009C4  2BC4               	incf	(_uart_reception+100)& (0+255),f,b
  3152                           
  3153                           ;interruptions.c: 184: }
  3154  0009C6  D008               	goto	i1l350
  3155  0009C8                     i1l2816:
  3156                           
  3157                           ; BSR set to: 0
  3158                           ;interruptions.c: 185: else
  3159                           ;interruptions.c: 186: {
  3160                           ;interruptions.c: 187: uart_reception.buffer_plein = 1;
  3161  0009C8  6E25               	movwf	??_interrupt_RX& (0+255),c
  3162  0009CA  0E01               	movlw	1
  3163  0009CC  0100               	movlb	0	; () banked
  3164  0009CE  0100               	movlb	0	; () banked
  3165  0009D0  6FC5               	movwf	(_uart_reception+101)& (0+255),b
  3166  0009D2  5025               	movf	??_interrupt_RX& (0+255),w,c
  3167                           
  3168                           ; BSR set to: 0
  3169                           ;interruptions.c: 188: uint8_t temp = RCREG;
  3170  0009D4  CFAE F026          	movff	4014,interrupt_RX@temp	;volatile
  3171  0009D8                     i1l350:
  3172                           
  3173                           ; BSR set to: 0
  3174  0009D8  0012               	return	
  3175  0009DA                     __end_of_interrupt_RX:
  3176                           	opt stack 0
  3177                           pclatu	equ	0xFFB
  3178                           pclath	equ	0xFFA
  3179                           tblptru	equ	0xFF8
  3180                           tblptrh	equ	0xFF7
  3181                           tblptrl	equ	0xFF6
  3182                           tablat	equ	0xFF5
  3183                           prodh	equ	0xFF4
  3184                           prodl	equ	0xFF3
  3185                           intcon	equ	0xFF2
  3186                           intcon2	equ	0xFF1
  3187                           intcon3	equ	0xFF0
  3188                           postinc0	equ	0xFEE
  3189                           fsr0h	equ	0xFEA
  3190                           fsr0l	equ	0xFE9
  3191                           wreg	equ	0xFE8
  3192                           fsr1h	equ	0xFE2
  3193                           fsr1l	equ	0xFE1
  3194                           bsr	equ	0xFE0
  3195                           indf2	equ	0xFDF
  3196                           postinc2	equ	0xFDE
  3197                           postdec2	equ	0xFDD
  3198                           fsr2h	equ	0xFDA
  3199                           fsr2l	equ	0xFD9
  3200                           status	equ	0xFD8
  3201                           
  3202 ;; *************** function _interruption_INT0 *****************
  3203 ;; Defined at:
  3204 ;;		line 140 in file "interruptions.c"
  3205 ;; Parameters:    Size  Location     Type
  3206 ;;		None
  3207 ;; Auto vars:     Size  Location     Type
  3208 ;;		None
  3209 ;; Return value:  Size  Location     Type
  3210 ;;		None               void
  3211 ;; Registers used:
  3212 ;;		None
  3213 ;; Tracked objects:
  3214 ;;		On entry : 0/0
  3215 ;;		On exit  : 0/0
  3216 ;;		Unchanged: 0/0
  3217 ;; Data sizes:     COMRAM   BANK0   BANK1   BANK2
  3218 ;;      Params:         0       0       0       0
  3219 ;;      Locals:         0       0       0       0
  3220 ;;      Temps:          0       0       0       0
  3221 ;;      Totals:         0       0       0       0
  3222 ;;Total ram usage:        0 bytes
  3223 ;; Hardware stack levels used:    1
  3224 ;; Hardware stack levels required when called:    3
  3225 ;; This function calls:
  3226 ;;		Nothing
  3227 ;; This function is called by:
  3228 ;;		_subroutine_interruptions
  3229 ;; This function uses a non-reentrant model
  3230 ;;
  3231                           
  3232                           	psect	text21
  3233  000B4E                     __ptext21:
  3234                           	opt stack 0
  3235  000B4E                     _interruption_INT0:
  3236                           	opt stack 20
  3237                           
  3238                           ;interruptions.c: 141: INTCONbits.INT0IF = 0;
  3239                           
  3240                           ; BSR set to: 0
  3241                           ;incstack = 0
  3242                           ;incstack = 0
  3243  000B4E  92F2               	bcf	intcon,1,c	;volatile
  3244  000B50  0012               	return	
  3245  000B52                     __end_of_interruption_INT0:
  3246                           	opt stack 0
  3247                           pclatu	equ	0xFFB
  3248                           pclath	equ	0xFFA
  3249                           tblptru	equ	0xFF8
  3250                           tblptrh	equ	0xFF7
  3251                           tblptrl	equ	0xFF6
  3252                           tablat	equ	0xFF5
  3253                           prodh	equ	0xFF4
  3254                           prodl	equ	0xFF3
  3255                           intcon	equ	0xFF2
  3256                           intcon2	equ	0xFF1
  3257                           intcon3	equ	0xFF0
  3258                           postinc0	equ	0xFEE
  3259                           fsr0h	equ	0xFEA
  3260                           fsr0l	equ	0xFE9
  3261                           wreg	equ	0xFE8
  3262                           fsr1h	equ	0xFE2
  3263                           fsr1l	equ	0xFE1
  3264                           bsr	equ	0xFE0
  3265                           indf2	equ	0xFDF
  3266                           postinc2	equ	0xFDE
  3267                           postdec2	equ	0xFDD
  3268                           fsr2h	equ	0xFDA
  3269                           fsr2l	equ	0xFD9
  3270                           status	equ	0xFD8
  3271                           
  3272 ;; *************** function _interruption_timer2 *****************
  3273 ;; Defined at:
  3274 ;;		line 128 in file "interruptions.c"
  3275 ;; Parameters:    Size  Location     Type
  3276 ;;		None
  3277 ;; Auto vars:     Size  Location     Type
  3278 ;;		None
  3279 ;; Return value:  Size  Location     Type
  3280 ;;		None               void
  3281 ;; Registers used:
  3282 ;;		None
  3283 ;; Tracked objects:
  3284 ;;		On entry : 0/0
  3285 ;;		On exit  : 0/0
  3286 ;;		Unchanged: 0/0
  3287 ;; Data sizes:     COMRAM   BANK0   BANK1   BANK2
  3288 ;;      Params:         0       0       0       0
  3289 ;;      Locals:         0       0       0       0
  3290 ;;      Temps:          0       0       0       0
  3291 ;;      Totals:         0       0       0       0
  3292 ;;Total ram usage:        0 bytes
  3293 ;; Hardware stack levels used:    1
  3294 ;; Hardware stack levels required when called:    3
  3295 ;; This function calls:
  3296 ;;		Nothing
  3297 ;; This function is called by:
  3298 ;;		_subroutine_interruptions
  3299 ;; This function uses a non-reentrant model
  3300 ;;
  3301                           
  3302                           	psect	text22
  3303  000B52                     __ptext22:
  3304                           	opt stack 0
  3305  000B52                     _interruption_timer2:
  3306                           	opt stack 20
  3307                           
  3308                           ;interruptions.c: 129: PIR1bits.TMR2IF = 0;
  3309                           
  3310                           ;incstack = 0
  3311                           ;incstack = 0
  3312  000B52  929E               	bcf	3998,1,c	;volatile
  3313  000B54  0012               	return	
  3314  000B56                     __end_of_interruption_timer2:
  3315                           	opt stack 0
  3316                           pclatu	equ	0xFFB
  3317                           pclath	equ	0xFFA
  3318                           tblptru	equ	0xFF8
  3319                           tblptrh	equ	0xFF7
  3320                           tblptrl	equ	0xFF6
  3321                           tablat	equ	0xFF5
  3322                           prodh	equ	0xFF4
  3323                           prodl	equ	0xFF3
  3324                           intcon	equ	0xFF2
  3325                           intcon2	equ	0xFF1
  3326                           intcon3	equ	0xFF0
  3327                           postinc0	equ	0xFEE
  3328                           fsr0h	equ	0xFEA
  3329                           fsr0l	equ	0xFE9
  3330                           wreg	equ	0xFE8
  3331                           fsr1h	equ	0xFE2
  3332                           fsr1l	equ	0xFE1
  3333                           bsr	equ	0xFE0
  3334                           indf2	equ	0xFDF
  3335                           postinc2	equ	0xFDE
  3336                           postdec2	equ	0xFDD
  3337                           fsr2h	equ	0xFDA
  3338                           fsr2l	equ	0xFD9
  3339                           status	equ	0xFD8
  3340                           
  3341 ;; *************** function _interruption_timer1 *****************
  3342 ;; Defined at:
  3343 ;;		line 111 in file "interruptions.c"
  3344 ;; Parameters:    Size  Location     Type
  3345 ;;		None
  3346 ;; Auto vars:     Size  Location     Type
  3347 ;;		None
  3348 ;; Return value:  Size  Location     Type
  3349 ;;		None               void
  3350 ;; Registers used:
  3351 ;;		wreg, fsr2l, fsr2h, status,2, status,0, prodl, prodh
  3352 ;; Tracked objects:
  3353 ;;		On entry : 0/0
  3354 ;;		On exit  : 0/0
  3355 ;;		Unchanged: 0/0
  3356 ;; Data sizes:     COMRAM   BANK0   BANK1   BANK2
  3357 ;;      Params:         0       0       0       0
  3358 ;;      Locals:         0       0       0       0
  3359 ;;      Temps:          1       0       0       0
  3360 ;;      Totals:         1       0       0       0
  3361 ;;Total ram usage:        1 bytes
  3362 ;; Hardware stack levels used:    1
  3363 ;; Hardware stack levels required when called:    3
  3364 ;; This function calls:
  3365 ;;		Nothing
  3366 ;; This function is called by:
  3367 ;;		_subroutine_interruptions
  3368 ;; This function uses a non-reentrant model
  3369 ;;
  3370                           
  3371                           	psect	text23
  3372  000876                     __ptext23:
  3373                           	opt stack 0
  3374  000876                     _interruption_timer1:
  3375                           	opt stack 20
  3376                           
  3377                           ;interruptions.c: 112: PIR1bits.TMR1IF = 0;
  3378                           
  3379                           ;incstack = 0
  3380                           ;incstack = 0
  3381  000876  909E               	bcf	3998,0,c	;volatile
  3382                           
  3383                           ;interruptions.c: 113: TMR1 = 65535 - 810;
  3384  000878  0EFC               	movlw	252
  3385  00087A  6ECF               	movwf	4047,c	;volatile
  3386  00087C  0ED5               	movlw	213
  3387  00087E  6ECE               	movwf	4046,c	;volatile
  3388                           
  3389                           ;interruptions.c: 115: if (uart_logiciel.transmission_en_cours == 1)
  3390  000880  041B               	decf	_uart_logiciel+11,w,c
  3391  000882  A4D8               	btfss	status,2,c
  3392  000884  D01C               	goto	i1l318
  3393                           
  3394                           ;interruptions.c: 116: {
  3395                           ;interruptions.c: 117: PORTCbits.RC5 = uart_logiciel.buffer_uart[uart_logiciel.indice];
  3396  000886  501C               	movf	_uart_logiciel+12,w,c
  3397  000888  0D01               	mullw	1
  3398  00088A  0E10               	movlw	low _uart_logiciel
  3399  00088C  24F3               	addwf	prodl,w,c
  3400  00088E  6ED9               	movwf	fsr2l,c
  3401  000890  0E00               	movlw	high _uart_logiciel
  3402  000892  20F4               	addwfc	prodh,w,c
  3403  000894  6EDA               	movwf	fsr2h,c
  3404  000896  50DF               	movf	indf2,w,c
  3405  000898  6E25               	movwf	??_interruption_timer1& (0+255),c
  3406  00089A  3A25               	swapf	??_interruption_timer1,f,c
  3407  00089C  4625               	rlncf	??_interruption_timer1,f,c
  3408  00089E  5082               	movf	3970,w,c	;volatile
  3409  0008A0  1825               	xorwf	??_interruption_timer1,w,c
  3410  0008A2  0BDF               	andlw	-33
  3411  0008A4  1825               	xorwf	??_interruption_timer1,w,c
  3412  0008A6  6E82               	movwf	3970,c	;volatile
  3413                           
  3414                           ;interruptions.c: 118: uart_logiciel.indice++;
  3415  0008A8  2A1C               	incf	_uart_logiciel+12,f,c
  3416                           
  3417                           ;interruptions.c: 120: if (uart_logiciel.indice > 10)
  3418  0008AA  EE20  F01C         	lfsr	2,_uart_logiciel+12
  3419  0008AE  0E0A               	movlw	10
  3420  0008B0  64DF               	cpfsgt	indf2,c
  3421  0008B2  D006               	goto	i1l321
  3422                           
  3423                           ;interruptions.c: 121: uart_logiciel.transmission_en_cours = 0;
  3424  0008B4  6E25               	movwf	??_interruption_timer1& (0+255),c
  3425  0008B6  0E00               	movlw	0
  3426  0008B8  6E1B               	movwf	_uart_logiciel+11,c
  3427  0008BA  5025               	movf	??_interruption_timer1& (0+255),w,c
  3428  0008BC  D001               	goto	i1l321
  3429  0008BE                     i1l318:
  3430                           
  3431                           ;interruptions.c: 123: else
  3432                           ;interruptions.c: 124: PORTCbits.RC5 = 1;
  3433  0008BE  8A82               	bsf	3970,5,c	;volatile
  3434  0008C0                     i1l321:
  3435  0008C0  0012               	return	
  3436  0008C2                     __end_of_interruption_timer1:
  3437                           	opt stack 0
  3438                           pclatu	equ	0xFFB
  3439                           pclath	equ	0xFFA
  3440                           tblptru	equ	0xFF8
  3441                           tblptrh	equ	0xFF7
  3442                           tblptrl	equ	0xFF6
  3443                           tablat	equ	0xFF5
  3444                           prodh	equ	0xFF4
  3445                           prodl	equ	0xFF3
  3446                           intcon	equ	0xFF2
  3447                           intcon2	equ	0xFF1
  3448                           intcon3	equ	0xFF0
  3449                           postinc0	equ	0xFEE
  3450                           fsr0h	equ	0xFEA
  3451                           fsr0l	equ	0xFE9
  3452                           wreg	equ	0xFE8
  3453                           fsr1h	equ	0xFE2
  3454                           fsr1l	equ	0xFE1
  3455                           bsr	equ	0xFE0
  3456                           indf2	equ	0xFDF
  3457                           postinc2	equ	0xFDE
  3458                           postdec2	equ	0xFDD
  3459                           fsr2h	equ	0xFDA
  3460                           fsr2l	equ	0xFD9
  3461                           status	equ	0xFD8
  3462                           
  3463 ;; *************** function _interruption_timer0 *****************
  3464 ;; Defined at:
  3465 ;;		line 105 in file "interruptions.c"
  3466 ;; Parameters:    Size  Location     Type
  3467 ;;		None
  3468 ;; Auto vars:     Size  Location     Type
  3469 ;;		None
  3470 ;; Return value:  Size  Location     Type
  3471 ;;		None               void
  3472 ;; Registers used:
  3473 ;;		wreg, status,2
  3474 ;; Tracked objects:
  3475 ;;		On entry : 0/0
  3476 ;;		On exit  : 0/0
  3477 ;;		Unchanged: 0/0
  3478 ;; Data sizes:     COMRAM   BANK0   BANK1   BANK2
  3479 ;;      Params:         0       0       0       0
  3480 ;;      Locals:         0       0       0       0
  3481 ;;      Temps:          0       0       0       0
  3482 ;;      Totals:         0       0       0       0
  3483 ;;Total ram usage:        0 bytes
  3484 ;; Hardware stack levels used:    1
  3485 ;; Hardware stack levels required when called:    3
  3486 ;; This function calls:
  3487 ;;		Nothing
  3488 ;; This function is called by:
  3489 ;;		_subroutine_interruptions
  3490 ;; This function uses a non-reentrant model
  3491 ;;
  3492                           
  3493                           	psect	text24
  3494  000B3A                     __ptext24:
  3495                           	opt stack 0
  3496  000B3A                     _interruption_timer0:
  3497                           	opt stack 20
  3498                           
  3499                           ;interruptions.c: 106: INTCONbits.TMR0IF = 0;
  3500                           
  3501                           ;incstack = 0
  3502                           ;incstack = 0
  3503  000B3A  94F2               	bcf	intcon,2,c	;volatile
  3504                           
  3505                           ;interruptions.c: 107: TMR0L = 131;
  3506  000B3C  0E83               	movlw	131
  3507  000B3E  6ED6               	movwf	4054,c	;volatile
  3508  000B40  0012               	return	
  3509  000B42                     __end_of_interruption_timer0:
  3510                           	opt stack 0
  3511                           pclatu	equ	0xFFB
  3512                           pclath	equ	0xFFA
  3513                           tblptru	equ	0xFF8
  3514                           tblptrh	equ	0xFF7
  3515                           tblptrl	equ	0xFF6
  3516                           tablat	equ	0xFF5
  3517                           prodh	equ	0xFF4
  3518                           prodl	equ	0xFF3
  3519                           intcon	equ	0xFF2
  3520                           intcon2	equ	0xFF1
  3521                           intcon3	equ	0xFF0
  3522                           postinc0	equ	0xFEE
  3523                           fsr0h	equ	0xFEA
  3524                           fsr0l	equ	0xFE9
  3525                           wreg	equ	0xFE8
  3526                           fsr1h	equ	0xFE2
  3527                           fsr1l	equ	0xFE1
  3528                           bsr	equ	0xFE0
  3529                           indf2	equ	0xFDF
  3530                           postinc2	equ	0xFDE
  3531                           postdec2	equ	0xFDD
  3532                           fsr2h	equ	0xFDA
  3533                           fsr2l	equ	0xFD9
  3534                           status	equ	0xFD8
  3535                           
  3536 ;; *************** function _interuption_QEI_sens *****************
  3537 ;; Defined at:
  3538 ;;		line 163 in file "interruptions.c"
  3539 ;; Parameters:    Size  Location     Type
  3540 ;;		None
  3541 ;; Auto vars:     Size  Location     Type
  3542 ;;		None
  3543 ;; Return value:  Size  Location     Type
  3544 ;;		None               void
  3545 ;; Registers used:
  3546 ;;		None
  3547 ;; Tracked objects:
  3548 ;;		On entry : 0/0
  3549 ;;		On exit  : 0/0
  3550 ;;		Unchanged: 0/0
  3551 ;; Data sizes:     COMRAM   BANK0   BANK1   BANK2
  3552 ;;      Params:         0       0       0       0
  3553 ;;      Locals:         0       0       0       0
  3554 ;;      Temps:          0       0       0       0
  3555 ;;      Totals:         0       0       0       0
  3556 ;;Total ram usage:        0 bytes
  3557 ;; Hardware stack levels used:    1
  3558 ;; Hardware stack levels required when called:    3
  3559 ;; This function calls:
  3560 ;;		Nothing
  3561 ;; This function is called by:
  3562 ;;		_subroutine_interruptions
  3563 ;; This function uses a non-reentrant model
  3564 ;;
  3565                           
  3566                           	psect	text25
  3567  000B56                     __ptext25:
  3568                           	opt stack 0
  3569  000B56                     _interuption_QEI_sens:
  3570                           	opt stack 20
  3571                           
  3572                           ;interruptions.c: 164: PIR3bits.IC3DRIF = 0;
  3573                           
  3574                           ;incstack = 0
  3575                           ;incstack = 0
  3576  000B56  96A4               	bcf	4004,3,c	;volatile
  3577  000B58  0012               	return	
  3578  000B5A                     __end_of_interuption_QEI_sens:
  3579                           	opt stack 0
  3580                           pclatu	equ	0xFFB
  3581                           pclath	equ	0xFFA
  3582                           tblptru	equ	0xFF8
  3583                           tblptrh	equ	0xFF7
  3584                           tblptrl	equ	0xFF6
  3585                           tablat	equ	0xFF5
  3586                           prodh	equ	0xFF4
  3587                           prodl	equ	0xFF3
  3588                           intcon	equ	0xFF2
  3589                           intcon2	equ	0xFF1
  3590                           intcon3	equ	0xFF0
  3591                           postinc0	equ	0xFEE
  3592                           fsr0h	equ	0xFEA
  3593                           fsr0l	equ	0xFE9
  3594                           wreg	equ	0xFE8
  3595                           fsr1h	equ	0xFE2
  3596                           fsr1l	equ	0xFE1
  3597                           bsr	equ	0xFE0
  3598                           indf2	equ	0xFDF
  3599                           postinc2	equ	0xFDE
  3600                           postdec2	equ	0xFDD
  3601                           fsr2h	equ	0xFDA
  3602                           fsr2l	equ	0xFD9
  3603                           status	equ	0xFD8
  3604                           
  3605 ;; *************** function _interruption_QEI *****************
  3606 ;; Defined at:
  3607 ;;		line 157 in file "interruptions.c"
  3608 ;; Parameters:    Size  Location     Type
  3609 ;;		None
  3610 ;; Auto vars:     Size  Location     Type
  3611 ;;		None
  3612 ;; Return value:  Size  Location     Type
  3613 ;;		None               void
  3614 ;; Registers used:
  3615 ;;		None
  3616 ;; Tracked objects:
  3617 ;;		On entry : 0/0
  3618 ;;		On exit  : 0/0
  3619 ;;		Unchanged: 0/0
  3620 ;; Data sizes:     COMRAM   BANK0   BANK1   BANK2
  3621 ;;      Params:         0       0       0       0
  3622 ;;      Locals:         0       0       0       0
  3623 ;;      Temps:          0       0       0       0
  3624 ;;      Totals:         0       0       0       0
  3625 ;;Total ram usage:        0 bytes
  3626 ;; Hardware stack levels used:    1
  3627 ;; Hardware stack levels required when called:    3
  3628 ;; This function calls:
  3629 ;;		Nothing
  3630 ;; This function is called by:
  3631 ;;		_subroutine_interruptions
  3632 ;; This function uses a non-reentrant model
  3633 ;;
  3634                           
  3635                           	psect	text26
  3636  000B5A                     __ptext26:
  3637                           	opt stack 0
  3638  000B5A                     _interruption_QEI:
  3639                           	opt stack 20
  3640                           
  3641                           ;interruptions.c: 158: PIR3bits.IC2QEIF = 0;
  3642                           
  3643                           ;incstack = 0
  3644                           ;incstack = 0
  3645  000B5A  94A4               	bcf	4004,2,c	;volatile
  3646  000B5C  0012               	return	
  3647  000B5E                     __end_of_interruption_QEI:
  3648                           	opt stack 0
  3649                           pclatu	equ	0xFFB
  3650                           pclath	equ	0xFFA
  3651                           tblptru	equ	0xFF8
  3652                           tblptrh	equ	0xFF7
  3653                           tblptrl	equ	0xFF6
  3654                           tablat	equ	0xFF5
  3655                           prodh	equ	0xFF4
  3656                           prodl	equ	0xFF3
  3657                           intcon	equ	0xFF2
  3658                           intcon2	equ	0xFF1
  3659                           intcon3	equ	0xFF0
  3660                           postinc0	equ	0xFEE
  3661                           fsr0h	equ	0xFEA
  3662                           fsr0l	equ	0xFE9
  3663                           wreg	equ	0xFE8
  3664                           fsr1h	equ	0xFE2
  3665                           fsr1l	equ	0xFE1
  3666                           bsr	equ	0xFE0
  3667                           indf2	equ	0xFDF
  3668                           postinc2	equ	0xFDE
  3669                           postdec2	equ	0xFDD
  3670                           fsr2h	equ	0xFDA
  3671                           fsr2l	equ	0xFD9
  3672                           status	equ	0xFD8
  3673                           
  3674 ;; *************** function _high_isr *****************
  3675 ;; Defined at:
  3676 ;;		line 28 in file "interruptions.c"
  3677 ;; Parameters:    Size  Location     Type
  3678 ;;		None
  3679 ;; Auto vars:     Size  Location     Type
  3680 ;;		None
  3681 ;; Return value:  Size  Location     Type
  3682 ;;		None               void
  3683 ;; Registers used:
  3684 ;;		wreg, status,2, status,0, cstack
  3685 ;; Tracked objects:
  3686 ;;		On entry : 0/0
  3687 ;;		On exit  : 0/0
  3688 ;;		Unchanged: 0/0
  3689 ;; Data sizes:     COMRAM   BANK0   BANK1   BANK2
  3690 ;;      Params:         0       0       0       0
  3691 ;;      Locals:         0       0       0       0
  3692 ;;      Temps:          0      15       0       0
  3693 ;;      Totals:         0      15       0       0
  3694 ;;Total ram usage:       15 bytes
  3695 ;; Hardware stack levels used:    1
  3696 ;; Hardware stack levels required when called:    2
  3697 ;; This function calls:
  3698 ;;		i2_subroutine_interruptions
  3699 ;; This function is called by:
  3700 ;;		Interrupt level 2
  3701 ;; This function uses a non-reentrant model
  3702 ;;
  3703                           
  3704                           	psect	intcode
  3705  000008                     __pintcode:
  3706                           	opt stack 0
  3707  000008                     _high_isr:
  3708                           	opt stack 20
  3709                           
  3710                           ;incstack = 0
  3711  000008  CFFA F0C8          	movff	pclath,??_high_isr+1
  3712  00000C  CFFB F0C9          	movff	pclatu,??_high_isr+2
  3713  000010  EF9C  F003         	goto	int_func
  3714                           pclatu	equ	0xFFB
  3715                           pclath	equ	0xFFA
  3716                           tblptru	equ	0xFF8
  3717                           tblptrh	equ	0xFF7
  3718                           tblptrl	equ	0xFF6
  3719                           tablat	equ	0xFF5
  3720                           prodh	equ	0xFF4
  3721                           prodl	equ	0xFF3
  3722                           intcon	equ	0xFF2
  3723                           intcon2	equ	0xFF1
  3724                           intcon3	equ	0xFF0
  3725                           postinc0	equ	0xFEE
  3726                           fsr0h	equ	0xFEA
  3727                           fsr0l	equ	0xFE9
  3728                           wreg	equ	0xFE8
  3729                           fsr1h	equ	0xFE2
  3730                           fsr1l	equ	0xFE1
  3731                           bsr	equ	0xFE0
  3732                           indf2	equ	0xFDF
  3733                           postinc2	equ	0xFDE
  3734                           postdec2	equ	0xFDD
  3735                           fsr2h	equ	0xFDA
  3736                           fsr2l	equ	0xFD9
  3737                           status	equ	0xFD8
  3738                           
  3739                           	psect	intcode_body
  3740  000738                     __pintcode_body:
  3741                           	opt stack 20
  3742  000738                     int_func:
  3743                           	opt stack 20
  3744  000738  CFE9 F0CA          	movff	fsr0l,??_high_isr+3
  3745  00073C  CFEA F0CB          	movff	fsr0h,??_high_isr+4
  3746  000740  CFE1 F0CC          	movff	fsr1l,??_high_isr+5
  3747  000744  CFE2 F0CD          	movff	fsr1h,??_high_isr+6
  3748  000748  CFD9 F0CE          	movff	fsr2l,??_high_isr+7
  3749  00074C  CFDA F0CF          	movff	fsr2h,??_high_isr+8
  3750  000750  CFF3 F0D0          	movff	prodl,??_high_isr+9
  3751  000754  CFF4 F0D1          	movff	prodh,??_high_isr+10
  3752  000758  CFF6 F0D2          	movff	tblptrl,??_high_isr+11
  3753  00075C  CFF7 F0D3          	movff	tblptrh,??_high_isr+12
  3754  000760  CFF8 F0D4          	movff	tblptru,??_high_isr+13
  3755  000764  CFF5 F0D5          	movff	tablat,??_high_isr+14
  3756  000768                     
  3757                           ;interruptions.c: 29: subroutine_interruptions(0b1);
  3758  000768  0100               	movlb	0	; () banked
  3759  00076A  6FC7               	movwf	??_high_isr& (0+255),b
  3760  00076C  0E01               	movlw	1
  3761  00076E  6E3C               	movwf	?i2_subroutine_interruptions,c
  3762  000770  0100               	movlb	0	; () banked
  3763  000772  51C7               	movf	??_high_isr& (0+255),w,b
  3764  000774  EC0A  F004         	call	i2_subroutine_interruptions	;wreg free
  3765  000778  C0D5  FFF5         	movff	??_high_isr+14,tablat
  3766  00077C  C0D4  FFF8         	movff	??_high_isr+13,tblptru
  3767  000780  C0D3  FFF7         	movff	??_high_isr+12,tblptrh
  3768  000784  C0D2  FFF6         	movff	??_high_isr+11,tblptrl
  3769  000788  C0D1  FFF4         	movff	??_high_isr+10,prodh
  3770  00078C  C0D0  FFF3         	movff	??_high_isr+9,prodl
  3771  000790  C0CF  FFDA         	movff	??_high_isr+8,fsr2h
  3772  000794  C0CE  FFD9         	movff	??_high_isr+7,fsr2l
  3773  000798  C0CD  FFE2         	movff	??_high_isr+6,fsr1h
  3774  00079C  C0CC  FFE1         	movff	??_high_isr+5,fsr1l
  3775  0007A0  C0CB  FFEA         	movff	??_high_isr+4,fsr0h
  3776  0007A4  C0CA  FFE9         	movff	??_high_isr+3,fsr0l
  3777  0007A8  C0C9  FFFB         	movff	??_high_isr+2,pclatu
  3778  0007AC  C0C8  FFFA         	movff	??_high_isr+1,pclath
  3779  0007B0  0011               	retfie		f
  3780  0007B2                     __end_of_high_isr:
  3781                           	opt stack 0
  3782                           pclatu	equ	0xFFB
  3783                           pclath	equ	0xFFA
  3784                           tblptru	equ	0xFF8
  3785                           tblptrh	equ	0xFF7
  3786                           tblptrl	equ	0xFF6
  3787                           tablat	equ	0xFF5
  3788                           prodh	equ	0xFF4
  3789                           prodl	equ	0xFF3
  3790                           intcon	equ	0xFF2
  3791                           intcon2	equ	0xFF1
  3792                           intcon3	equ	0xFF0
  3793                           postinc0	equ	0xFEE
  3794                           fsr0h	equ	0xFEA
  3795                           fsr0l	equ	0xFE9
  3796                           wreg	equ	0xFE8
  3797                           fsr1h	equ	0xFE2
  3798                           fsr1l	equ	0xFE1
  3799                           bsr	equ	0xFE0
  3800                           indf2	equ	0xFDF
  3801                           postinc2	equ	0xFDE
  3802                           postdec2	equ	0xFDD
  3803                           fsr2h	equ	0xFDA
  3804                           fsr2l	equ	0xFD9
  3805                           status	equ	0xFD8
  3806                           
  3807 ;; *************** function i2_subroutine_interruptions *****************
  3808 ;; Defined at:
  3809 ;;		line 44 in file "interruptions.c"
  3810 ;; Parameters:    Size  Location     Type
  3811 ;;  priorite        1   23[COMRAM] unsigned char 
  3812 ;; Auto vars:     Size  Location     Type
  3813 ;;		None
  3814 ;; Return value:  Size  Location     Type
  3815 ;;		None               void
  3816 ;; Registers used:
  3817 ;;		wreg, status,2, status,0, cstack
  3818 ;; Tracked objects:
  3819 ;;		On entry : 0/0
  3820 ;;		On exit  : 0/0
  3821 ;;		Unchanged: 0/0
  3822 ;; Data sizes:     COMRAM   BANK0   BANK1   BANK2
  3823 ;;      Params:         1       0       0       0
  3824 ;;      Locals:         0       0       0       0
  3825 ;;      Temps:          0       0       0       0
  3826 ;;      Totals:         1       0       0       0
  3827 ;;Total ram usage:        1 bytes
  3828 ;; Hardware stack levels used:    1
  3829 ;; Hardware stack levels required when called:    1
  3830 ;; This function calls:
  3831 ;;		i2_interruption_timer0
  3832 ;;		i2_interruption_timer1
  3833 ;;		i2_interruption_timer2
  3834 ;;		i2_interruption_INT0
  3835 ;;		i2_interruption_QEI
  3836 ;;		i2_interuption_QEI_sens
  3837 ;;		i2_interrupt_RX
  3838 ;;		i2_interrupt_TX
  3839 ;; This function is called by:
  3840 ;;		_high_isr
  3841 ;; This function uses a non-reentrant model
  3842 ;;
  3843                           
  3844                           	psect	text28
  3845  000814                     __ptext28:
  3846                           	opt stack 0
  3847  000814                     i2_subroutine_interruptions:
  3848                           	opt stack 20
  3849                           
  3850                           ;interruptions.c: 45: if ( PIR3bits.IC2QEIF == 1 && 0b1 == 1 && priorite == 0b1)
  3851                           
  3852                           ;incstack = 0
  3853                           ;incstack = 0
  3854  000814  A4A4               	btfss	4004,2,c	;volatile
  3855  000816  D006               	goto	i2l297
  3856  000818  043C               	decf	i2subroutine_interruptions@priorite,w,c
  3857  00081A  A4D8               	btfss	status,2,c
  3858  00081C  D003               	goto	i2l297
  3859                           
  3860                           ;interruptions.c: 46: {
  3861                           ;interruptions.c: 47: interruption_QEI();
  3862  00081E  ECB3  F005         	call	i2_interruption_QEI	;wreg free
  3863                           
  3864                           ;interruptions.c: 48: }
  3865  000822  D028               	goto	i2l312
  3866  000824                     i2l297:
  3867                           
  3868                           ;interruptions.c: 49: else if ( PIR3bits.IC3DRIF == 1 && 0b1 == 1 && priorite == 0b1)
  3869  000824  A6A4               	btfss	4004,3,c	;volatile
  3870  000826  D006               	goto	i2l299
  3871  000828  043C               	decf	i2subroutine_interruptions@priorite,w,c
  3872  00082A  A4D8               	btfss	status,2,c
  3873  00082C  D003               	goto	i2l299
  3874                           
  3875                           ;interruptions.c: 50: {
  3876                           ;interruptions.c: 51: interuption_QEI_sens();
  3877  00082E  ECB1  F005         	call	i2_interuption_QEI_sens	;wreg free
  3878                           
  3879                           ;interruptions.c: 52: }
  3880  000832  D020               	goto	i2l312
  3881  000834                     i2l299:
  3882                           
  3883                           ;interruptions.c: 53: else if ( INTCONbits.TMR0IF == 1 && 0b1 == 1 && priorite == 0b1)
  3884  000834  A4F2               	btfss	intcon,2,c	;volatile
  3885  000836  D006               	goto	i2l301
  3886  000838  043C               	decf	i2subroutine_interruptions@priorite,w,c
  3887  00083A  A4D8               	btfss	status,2,c
  3888  00083C  D003               	goto	i2l301
  3889                           
  3890                           ;interruptions.c: 54: {
  3891                           ;interruptions.c: 55: interruption_timer0();
  3892  00083E  ECA1  F005         	call	i2_interruption_timer0	;wreg free
  3893                           
  3894                           ;interruptions.c: 56: }
  3895  000842  D018               	goto	i2l312
  3896  000844                     i2l301:
  3897                           
  3898                           ;interruptions.c: 57: else if ( PIR1bits.TMR1IF == 1 && 0b1 == 1 && priorite == 0b1)
  3899  000844  A09E               	btfss	3998,0,c	;volatile
  3900  000846  D006               	goto	i2l303
  3901  000848  043C               	decf	i2subroutine_interruptions@priorite,w,c
  3902  00084A  A4D8               	btfss	status,2,c
  3903  00084C  D003               	goto	i2l303
  3904                           
  3905                           ;interruptions.c: 58: {
  3906                           ;interruptions.c: 59: interruption_timer1();
  3907  00084E  EC61  F004         	call	i2_interruption_timer1	;wreg free
  3908                           
  3909                           ;interruptions.c: 60: }
  3910  000852  D010               	goto	i2l312
  3911  000854                     i2l303:
  3912                           
  3913                           ;interruptions.c: 61: else if ( PIR1bits.TMR2IF == 1 && 0b0 == 1 && priorite == 0b0)
  3914  000854  509E               	movf	3998,w,c	;volatile
  3915                           
  3916                           ;interruptions.c: 65: else if (INTCONbits.INT0IF == 1 && 0b1 == 1 && priorite == 0b0)
  3917                           
  3918                           ;interruptions.c: 64: }
  3919                           
  3920                           ;interruptions.c: 62: {
  3921                           ;interruptions.c: 63: interruption_timer2();
  3922  000856  A2F2               	btfss	intcon,1,c	;volatile
  3923  000858  D005               	goto	i2l307
  3924  00085A  663C               	tstfsz	i2subroutine_interruptions@priorite,c
  3925  00085C  D003               	goto	i2l307
  3926                           
  3927                           ;interruptions.c: 66: {
  3928                           ;interruptions.c: 67: interruption_INT0();
  3929  00085E  ECB5  F005         	call	i2_interruption_INT0	;wreg free
  3930                           
  3931                           ;interruptions.c: 68: }
  3932  000862  D008               	goto	i2l312
  3933  000864                     i2l307:
  3934                           
  3935                           ;interruptions.c: 85: else if ( PIR1bits.RCIF == 1 && 0b1 == 1 && priorite == 0b0)
  3936  000864  AA9E               	btfss	3998,5,c	;volatile
  3937  000866  D005               	goto	i2l309
  3938  000868  663C               	tstfsz	i2subroutine_interruptions@priorite,c
  3939  00086A  D003               	goto	i2l309
  3940                           
  3941                           ;interruptions.c: 86: {
  3942                           ;interruptions.c: 87: interrupt_RX();
  3943  00086C  ECED  F004         	call	i2_interrupt_RX	;wreg free
  3944                           
  3945                           ;interruptions.c: 88: }
  3946  000870  D001               	goto	i2l312
  3947  000872                     i2l309:
  3948                           
  3949                           ;interruptions.c: 89: else if (PIR1bits.TXIF == 1 && 0b0 == 1 && priorite == 0b0)
  3950  000872  509E               	movf	3998,w,c	;volatile
  3951  000874                     i2l312:
  3952  000874  0012               	return	
  3953  000876                     __end_ofi2_subroutine_interruptions:
  3954                           	opt stack 0
  3955                           pclatu	equ	0xFFB
  3956                           pclath	equ	0xFFA
  3957                           tblptru	equ	0xFF8
  3958                           tblptrh	equ	0xFF7
  3959                           tblptrl	equ	0xFF6
  3960                           tablat	equ	0xFF5
  3961                           prodh	equ	0xFF4
  3962                           prodl	equ	0xFF3
  3963                           intcon	equ	0xFF2
  3964                           intcon2	equ	0xFF1
  3965                           intcon3	equ	0xFF0
  3966                           postinc0	equ	0xFEE
  3967                           fsr0h	equ	0xFEA
  3968                           fsr0l	equ	0xFE9
  3969                           wreg	equ	0xFE8
  3970                           fsr1h	equ	0xFE2
  3971                           fsr1l	equ	0xFE1
  3972                           bsr	equ	0xFE0
  3973                           indf2	equ	0xFDF
  3974                           postinc2	equ	0xFDE
  3975                           postdec2	equ	0xFDD
  3976                           fsr2h	equ	0xFDA
  3977                           fsr2l	equ	0xFD9
  3978                           status	equ	0xFD8
  3979                           
  3980 ;; *************** function i2_interrupt_TX *****************
  3981 ;; Defined at:
  3982 ;;		line 194 in file "interruptions.c"
  3983 ;; Parameters:    Size  Location     Type
  3984 ;;		None
  3985 ;; Auto vars:     Size  Location     Type
  3986 ;;		None
  3987 ;; Return value:  Size  Location     Type
  3988 ;;		None               void
  3989 ;; Registers used:
  3990 ;;		None
  3991 ;; Tracked objects:
  3992 ;;		On entry : 0/0
  3993 ;;		On exit  : 0/0
  3994 ;;		Unchanged: 0/0
  3995 ;; Data sizes:     COMRAM   BANK0   BANK1   BANK2
  3996 ;;      Params:         0       0       0       0
  3997 ;;      Locals:         0       0       0       0
  3998 ;;      Temps:          0       0       0       0
  3999 ;;      Totals:         0       0       0       0
  4000 ;;Total ram usage:        0 bytes
  4001 ;; Hardware stack levels used:    1
  4002 ;; This function calls:
  4003 ;;		Nothing
  4004 ;; This function is called by:
  4005 ;;		i2_subroutine_interruptions
  4006 ;; This function uses a non-reentrant model
  4007 ;;
  4008                           
  4009                           	psect	text29
  4010  000B5E                     __ptext29:
  4011                           	opt stack 0
  4012  000B5E                     i2_interrupt_TX:
  4013                           	opt stack 20
  4014                           
  4015                           ;interruptions.c: 195: PIR1bits.TXIF = 0;
  4016                           
  4017                           ;incstack = 0
  4018                           ;incstack = 0
  4019  000B5E  989E               	bcf	3998,4,c	;volatile
  4020  000B60  0012               	return	
  4021  000B62                     __end_ofi2_interrupt_TX:
  4022                           	opt stack 0
  4023                           pclatu	equ	0xFFB
  4024                           pclath	equ	0xFFA
  4025                           tblptru	equ	0xFF8
  4026                           tblptrh	equ	0xFF7
  4027                           tblptrl	equ	0xFF6
  4028                           tablat	equ	0xFF5
  4029                           prodh	equ	0xFF4
  4030                           prodl	equ	0xFF3
  4031                           intcon	equ	0xFF2
  4032                           intcon2	equ	0xFF1
  4033                           intcon3	equ	0xFF0
  4034                           postinc0	equ	0xFEE
  4035                           fsr0h	equ	0xFEA
  4036                           fsr0l	equ	0xFE9
  4037                           wreg	equ	0xFE8
  4038                           fsr1h	equ	0xFE2
  4039                           fsr1l	equ	0xFE1
  4040                           bsr	equ	0xFE0
  4041                           indf2	equ	0xFDF
  4042                           postinc2	equ	0xFDE
  4043                           postdec2	equ	0xFDD
  4044                           fsr2h	equ	0xFDA
  4045                           fsr2l	equ	0xFD9
  4046                           status	equ	0xFD8
  4047                           
  4048 ;; *************** function i2_interrupt_RX *****************
  4049 ;; Defined at:
  4050 ;;		line 177 in file "interruptions.c"
  4051 ;; Parameters:    Size  Location     Type
  4052 ;;		None
  4053 ;; Auto vars:     Size  Location     Type
  4054 ;;  interrupt_RX    1   22[COMRAM] unsigned char 
  4055 ;; Return value:  Size  Location     Type
  4056 ;;		None               void
  4057 ;; Registers used:
  4058 ;;		wreg, fsr2l, fsr2h, status,2, status,0, prodl, prodh
  4059 ;; Tracked objects:
  4060 ;;		On entry : 0/0
  4061 ;;		On exit  : 0/0
  4062 ;;		Unchanged: 0/0
  4063 ;; Data sizes:     COMRAM   BANK0   BANK1   BANK2
  4064 ;;      Params:         0       0       0       0
  4065 ;;      Locals:         1       0       0       0
  4066 ;;      Temps:          1       0       0       0
  4067 ;;      Totals:         2       0       0       0
  4068 ;;Total ram usage:        2 bytes
  4069 ;; Hardware stack levels used:    1
  4070 ;; This function calls:
  4071 ;;		Nothing
  4072 ;; This function is called by:
  4073 ;;		i2_subroutine_interruptions
  4074 ;; This function uses a non-reentrant model
  4075 ;;
  4076                           
  4077                           	psect	text30
  4078  0009DA                     __ptext30:
  4079                           	opt stack 0
  4080  0009DA                     i2_interrupt_RX:
  4081                           	opt stack 20
  4082                           
  4083                           ;interruptions.c: 178: PIR1bits.RCIF = 0;
  4084                           
  4085                           ;incstack = 0
  4086                           ;incstack = 0
  4087  0009DA  9A9E               	bcf	3998,5,c	;volatile
  4088                           
  4089                           ;interruptions.c: 180: if (uart_reception.indice < 100)
  4090  0009DC  0E64               	movlw	100
  4091  0009DE  0100               	movlb	0	; () banked
  4092  0009E0  0100               	movlb	0	; () banked
  4093  0009E2  61C4               	cpfslt	(_uart_reception+100)& (0+255),b
  4094  0009E4  D012               	goto	i2l3140
  4095                           
  4096                           ; BSR set to: 0
  4097                           ;interruptions.c: 181: {
  4098                           ;interruptions.c: 182: uart_reception.buffer_reeption[uart_reception.indice] = RCREG;
  4099  0009E6  0100               	movlb	0	; () banked
  4100  0009E8  0100               	movlb	0	; () banked
  4101  0009EA  51C4               	movf	(_uart_reception+100)& (0+255),w,b
  4102  0009EC  0D01               	mullw	1
  4103  0009EE  0100               	movlb	0	; () banked
  4104  0009F0  0E60               	movlw	low _uart_reception
  4105  0009F2  24F3               	addwf	prodl,w,c
  4106  0009F4  6ED9               	movwf	fsr2l,c
  4107  0009F6  0100               	movlb	0	; () banked
  4108  0009F8  0E00               	movlw	high _uart_reception
  4109  0009FA  20F4               	addwfc	prodh,w,c
  4110  0009FC  6EDA               	movwf	fsr2h,c
  4111  0009FE  CFAE FFDF          	movff	4014,indf2	;volatile
  4112                           
  4113                           ; BSR set to: 0
  4114                           ;interruptions.c: 183: uart_reception.indice++;
  4115  000A02  0100               	movlb	0	; () banked
  4116  000A04  0100               	movlb	0	; () banked
  4117  000A06  2BC4               	incf	(_uart_reception+100)& (0+255),f,b
  4118                           
  4119                           ;interruptions.c: 184: }
  4120  000A08  D008               	goto	i2l350
  4121  000A0A                     i2l3140:
  4122                           
  4123                           ; BSR set to: 0
  4124                           ;interruptions.c: 185: else
  4125                           ;interruptions.c: 186: {
  4126                           ;interruptions.c: 187: uart_reception.buffer_plein = 1;
  4127  000A0A  6E3A               	movwf	??i2_interrupt_RX& (0+255),c
  4128  000A0C  0E01               	movlw	1
  4129  000A0E  0100               	movlb	0	; () banked
  4130  000A10  0100               	movlb	0	; () banked
  4131  000A12  6FC5               	movwf	(_uart_reception+101)& (0+255),b
  4132  000A14  503A               	movf	??i2_interrupt_RX& (0+255),w,c
  4133                           
  4134                           ; BSR set to: 0
  4135                           ;interruptions.c: 188: uint8_t temp = RCREG;
  4136  000A16  CFAE F03B          	movff	4014,i2interrupt_RX@temp	;volatile
  4137  000A1A                     i2l350:
  4138                           
  4139                           ; BSR set to: 0
  4140  000A1A  0012               	return	
  4141  000A1C                     __end_ofi2_interrupt_RX:
  4142                           	opt stack 0
  4143                           pclatu	equ	0xFFB
  4144                           pclath	equ	0xFFA
  4145                           tblptru	equ	0xFF8
  4146                           tblptrh	equ	0xFF7
  4147                           tblptrl	equ	0xFF6
  4148                           tablat	equ	0xFF5
  4149                           prodh	equ	0xFF4
  4150                           prodl	equ	0xFF3
  4151                           intcon	equ	0xFF2
  4152                           intcon2	equ	0xFF1
  4153                           intcon3	equ	0xFF0
  4154                           postinc0	equ	0xFEE
  4155                           fsr0h	equ	0xFEA
  4156                           fsr0l	equ	0xFE9
  4157                           wreg	equ	0xFE8
  4158                           fsr1h	equ	0xFE2
  4159                           fsr1l	equ	0xFE1
  4160                           bsr	equ	0xFE0
  4161                           indf2	equ	0xFDF
  4162                           postinc2	equ	0xFDE
  4163                           postdec2	equ	0xFDD
  4164                           fsr2h	equ	0xFDA
  4165                           fsr2l	equ	0xFD9
  4166                           status	equ	0xFD8
  4167                           
  4168 ;; *************** function i2_interuption_QEI_sens *****************
  4169 ;; Defined at:
  4170 ;;		line 163 in file "interruptions.c"
  4171 ;; Parameters:    Size  Location     Type
  4172 ;;		None
  4173 ;; Auto vars:     Size  Location     Type
  4174 ;;		None
  4175 ;; Return value:  Size  Location     Type
  4176 ;;		None               void
  4177 ;; Registers used:
  4178 ;;		None
  4179 ;; Tracked objects:
  4180 ;;		On entry : 0/0
  4181 ;;		On exit  : 0/0
  4182 ;;		Unchanged: 0/0
  4183 ;; Data sizes:     COMRAM   BANK0   BANK1   BANK2
  4184 ;;      Params:         0       0       0       0
  4185 ;;      Locals:         0       0       0       0
  4186 ;;      Temps:          0       0       0       0
  4187 ;;      Totals:         0       0       0       0
  4188 ;;Total ram usage:        0 bytes
  4189 ;; Hardware stack levels used:    1
  4190 ;; This function calls:
  4191 ;;		Nothing
  4192 ;; This function is called by:
  4193 ;;		i2_subroutine_interruptions
  4194 ;; This function uses a non-reentrant model
  4195 ;;
  4196                           
  4197                           	psect	text31
  4198  000B62                     __ptext31:
  4199                           	opt stack 0
  4200  000B62                     i2_interuption_QEI_sens:
  4201                           	opt stack 20
  4202                           
  4203                           ;interruptions.c: 164: PIR3bits.IC3DRIF = 0;
  4204                           
  4205                           ; BSR set to: 0
  4206                           ;incstack = 0
  4207                           ;incstack = 0
  4208  000B62  96A4               	bcf	4004,3,c	;volatile
  4209  000B64  0012               	return	
  4210  000B66                     __end_ofi2_interuption_QEI_sens:
  4211                           	opt stack 0
  4212                           pclatu	equ	0xFFB
  4213                           pclath	equ	0xFFA
  4214                           tblptru	equ	0xFF8
  4215                           tblptrh	equ	0xFF7
  4216                           tblptrl	equ	0xFF6
  4217                           tablat	equ	0xFF5
  4218                           prodh	equ	0xFF4
  4219                           prodl	equ	0xFF3
  4220                           intcon	equ	0xFF2
  4221                           intcon2	equ	0xFF1
  4222                           intcon3	equ	0xFF0
  4223                           postinc0	equ	0xFEE
  4224                           fsr0h	equ	0xFEA
  4225                           fsr0l	equ	0xFE9
  4226                           wreg	equ	0xFE8
  4227                           fsr1h	equ	0xFE2
  4228                           fsr1l	equ	0xFE1
  4229                           bsr	equ	0xFE0
  4230                           indf2	equ	0xFDF
  4231                           postinc2	equ	0xFDE
  4232                           postdec2	equ	0xFDD
  4233                           fsr2h	equ	0xFDA
  4234                           fsr2l	equ	0xFD9
  4235                           status	equ	0xFD8
  4236                           
  4237 ;; *************** function i2_interruption_QEI *****************
  4238 ;; Defined at:
  4239 ;;		line 157 in file "interruptions.c"
  4240 ;; Parameters:    Size  Location     Type
  4241 ;;		None
  4242 ;; Auto vars:     Size  Location     Type
  4243 ;;		None
  4244 ;; Return value:  Size  Location     Type
  4245 ;;		None               void
  4246 ;; Registers used:
  4247 ;;		None
  4248 ;; Tracked objects:
  4249 ;;		On entry : 0/0
  4250 ;;		On exit  : 0/0
  4251 ;;		Unchanged: 0/0
  4252 ;; Data sizes:     COMRAM   BANK0   BANK1   BANK2
  4253 ;;      Params:         0       0       0       0
  4254 ;;      Locals:         0       0       0       0
  4255 ;;      Temps:          0       0       0       0
  4256 ;;      Totals:         0       0       0       0
  4257 ;;Total ram usage:        0 bytes
  4258 ;; Hardware stack levels used:    1
  4259 ;; This function calls:
  4260 ;;		Nothing
  4261 ;; This function is called by:
  4262 ;;		i2_subroutine_interruptions
  4263 ;; This function uses a non-reentrant model
  4264 ;;
  4265                           
  4266                           	psect	text32
  4267  000B66                     __ptext32:
  4268                           	opt stack 0
  4269  000B66                     i2_interruption_QEI:
  4270                           	opt stack 20
  4271                           
  4272                           ;interruptions.c: 158: PIR3bits.IC2QEIF = 0;
  4273                           
  4274                           ;incstack = 0
  4275                           ;incstack = 0
  4276  000B66  94A4               	bcf	4004,2,c	;volatile
  4277  000B68  0012               	return	
  4278  000B6A                     __end_ofi2_interruption_QEI:
  4279                           	opt stack 0
  4280                           pclatu	equ	0xFFB
  4281                           pclath	equ	0xFFA
  4282                           tblptru	equ	0xFF8
  4283                           tblptrh	equ	0xFF7
  4284                           tblptrl	equ	0xFF6
  4285                           tablat	equ	0xFF5
  4286                           prodh	equ	0xFF4
  4287                           prodl	equ	0xFF3
  4288                           intcon	equ	0xFF2
  4289                           intcon2	equ	0xFF1
  4290                           intcon3	equ	0xFF0
  4291                           postinc0	equ	0xFEE
  4292                           fsr0h	equ	0xFEA
  4293                           fsr0l	equ	0xFE9
  4294                           wreg	equ	0xFE8
  4295                           fsr1h	equ	0xFE2
  4296                           fsr1l	equ	0xFE1
  4297                           bsr	equ	0xFE0
  4298                           indf2	equ	0xFDF
  4299                           postinc2	equ	0xFDE
  4300                           postdec2	equ	0xFDD
  4301                           fsr2h	equ	0xFDA
  4302                           fsr2l	equ	0xFD9
  4303                           status	equ	0xFD8
  4304                           
  4305 ;; *************** function i2_interruption_INT0 *****************
  4306 ;; Defined at:
  4307 ;;		line 140 in file "interruptions.c"
  4308 ;; Parameters:    Size  Location     Type
  4309 ;;		None
  4310 ;; Auto vars:     Size  Location     Type
  4311 ;;		None
  4312 ;; Return value:  Size  Location     Type
  4313 ;;		None               void
  4314 ;; Registers used:
  4315 ;;		None
  4316 ;; Tracked objects:
  4317 ;;		On entry : 0/0
  4318 ;;		On exit  : 0/0
  4319 ;;		Unchanged: 0/0
  4320 ;; Data sizes:     COMRAM   BANK0   BANK1   BANK2
  4321 ;;      Params:         0       0       0       0
  4322 ;;      Locals:         0       0       0       0
  4323 ;;      Temps:          0       0       0       0
  4324 ;;      Totals:         0       0       0       0
  4325 ;;Total ram usage:        0 bytes
  4326 ;; Hardware stack levels used:    1
  4327 ;; This function calls:
  4328 ;;		Nothing
  4329 ;; This function is called by:
  4330 ;;		i2_subroutine_interruptions
  4331 ;; This function uses a non-reentrant model
  4332 ;;
  4333                           
  4334                           	psect	text33
  4335  000B6A                     __ptext33:
  4336                           	opt stack 0
  4337  000B6A                     i2_interruption_INT0:
  4338                           	opt stack 20
  4339                           
  4340                           ;interruptions.c: 141: INTCONbits.INT0IF = 0;
  4341                           
  4342                           ;incstack = 0
  4343                           ;incstack = 0
  4344  000B6A  92F2               	bcf	intcon,1,c	;volatile
  4345  000B6C  0012               	return	
  4346  000B6E                     __end_ofi2_interruption_INT0:
  4347                           	opt stack 0
  4348                           pclatu	equ	0xFFB
  4349                           pclath	equ	0xFFA
  4350                           tblptru	equ	0xFF8
  4351                           tblptrh	equ	0xFF7
  4352                           tblptrl	equ	0xFF6
  4353                           tablat	equ	0xFF5
  4354                           prodh	equ	0xFF4
  4355                           prodl	equ	0xFF3
  4356                           intcon	equ	0xFF2
  4357                           intcon2	equ	0xFF1
  4358                           intcon3	equ	0xFF0
  4359                           postinc0	equ	0xFEE
  4360                           fsr0h	equ	0xFEA
  4361                           fsr0l	equ	0xFE9
  4362                           wreg	equ	0xFE8
  4363                           fsr1h	equ	0xFE2
  4364                           fsr1l	equ	0xFE1
  4365                           bsr	equ	0xFE0
  4366                           indf2	equ	0xFDF
  4367                           postinc2	equ	0xFDE
  4368                           postdec2	equ	0xFDD
  4369                           fsr2h	equ	0xFDA
  4370                           fsr2l	equ	0xFD9
  4371                           status	equ	0xFD8
  4372                           
  4373 ;; *************** function i2_interruption_timer2 *****************
  4374 ;; Defined at:
  4375 ;;		line 128 in file "interruptions.c"
  4376 ;; Parameters:    Size  Location     Type
  4377 ;;		None
  4378 ;; Auto vars:     Size  Location     Type
  4379 ;;		None
  4380 ;; Return value:  Size  Location     Type
  4381 ;;		None               void
  4382 ;; Registers used:
  4383 ;;		None
  4384 ;; Tracked objects:
  4385 ;;		On entry : 0/0
  4386 ;;		On exit  : 0/0
  4387 ;;		Unchanged: 0/0
  4388 ;; Data sizes:     COMRAM   BANK0   BANK1   BANK2
  4389 ;;      Params:         0       0       0       0
  4390 ;;      Locals:         0       0       0       0
  4391 ;;      Temps:          0       0       0       0
  4392 ;;      Totals:         0       0       0       0
  4393 ;;Total ram usage:        0 bytes
  4394 ;; Hardware stack levels used:    1
  4395 ;; This function calls:
  4396 ;;		Nothing
  4397 ;; This function is called by:
  4398 ;;		i2_subroutine_interruptions
  4399 ;; This function uses a non-reentrant model
  4400 ;;
  4401                           
  4402                           	psect	text34
  4403  000B6E                     __ptext34:
  4404                           	opt stack 0
  4405  000B6E                     i2_interruption_timer2:
  4406                           	opt stack 20
  4407                           
  4408                           ;interruptions.c: 129: PIR1bits.TMR2IF = 0;
  4409                           
  4410                           ;incstack = 0
  4411                           ;incstack = 0
  4412  000B6E  929E               	bcf	3998,1,c	;volatile
  4413  000B70  0012               	return	
  4414  000B72                     __end_ofi2_interruption_timer2:
  4415                           	opt stack 0
  4416                           pclatu	equ	0xFFB
  4417                           pclath	equ	0xFFA
  4418                           tblptru	equ	0xFF8
  4419                           tblptrh	equ	0xFF7
  4420                           tblptrl	equ	0xFF6
  4421                           tablat	equ	0xFF5
  4422                           prodh	equ	0xFF4
  4423                           prodl	equ	0xFF3
  4424                           intcon	equ	0xFF2
  4425                           intcon2	equ	0xFF1
  4426                           intcon3	equ	0xFF0
  4427                           postinc0	equ	0xFEE
  4428                           fsr0h	equ	0xFEA
  4429                           fsr0l	equ	0xFE9
  4430                           wreg	equ	0xFE8
  4431                           fsr1h	equ	0xFE2
  4432                           fsr1l	equ	0xFE1
  4433                           bsr	equ	0xFE0
  4434                           indf2	equ	0xFDF
  4435                           postinc2	equ	0xFDE
  4436                           postdec2	equ	0xFDD
  4437                           fsr2h	equ	0xFDA
  4438                           fsr2l	equ	0xFD9
  4439                           status	equ	0xFD8
  4440                           
  4441 ;; *************** function i2_interruption_timer1 *****************
  4442 ;; Defined at:
  4443 ;;		line 111 in file "interruptions.c"
  4444 ;; Parameters:    Size  Location     Type
  4445 ;;		None
  4446 ;; Auto vars:     Size  Location     Type
  4447 ;;		None
  4448 ;; Return value:  Size  Location     Type
  4449 ;;		None               void
  4450 ;; Registers used:
  4451 ;;		wreg, fsr2l, fsr2h, status,2, status,0, prodl, prodh
  4452 ;; Tracked objects:
  4453 ;;		On entry : 0/0
  4454 ;;		On exit  : 0/0
  4455 ;;		Unchanged: 0/0
  4456 ;; Data sizes:     COMRAM   BANK0   BANK1   BANK2
  4457 ;;      Params:         0       0       0       0
  4458 ;;      Locals:         0       0       0       0
  4459 ;;      Temps:          1       0       0       0
  4460 ;;      Totals:         1       0       0       0
  4461 ;;Total ram usage:        1 bytes
  4462 ;; Hardware stack levels used:    1
  4463 ;; This function calls:
  4464 ;;		Nothing
  4465 ;; This function is called by:
  4466 ;;		i2_subroutine_interruptions
  4467 ;; This function uses a non-reentrant model
  4468 ;;
  4469                           
  4470                           	psect	text35
  4471  0008C2                     __ptext35:
  4472                           	opt stack 0
  4473  0008C2                     i2_interruption_timer1:
  4474                           	opt stack 20
  4475                           
  4476                           ;interruptions.c: 112: PIR1bits.TMR1IF = 0;
  4477                           
  4478                           ;incstack = 0
  4479                           ;incstack = 0
  4480  0008C2  909E               	bcf	3998,0,c	;volatile
  4481                           
  4482                           ;interruptions.c: 113: TMR1 = 65535 - 810;
  4483  0008C4  0EFC               	movlw	252
  4484  0008C6  6ECF               	movwf	4047,c	;volatile
  4485  0008C8  0ED5               	movlw	213
  4486  0008CA  6ECE               	movwf	4046,c	;volatile
  4487                           
  4488                           ;interruptions.c: 115: if (uart_logiciel.transmission_en_cours == 1)
  4489  0008CC  041B               	decf	_uart_logiciel+11,w,c
  4490  0008CE  A4D8               	btfss	status,2,c
  4491  0008D0  D01C               	goto	i2l318
  4492                           
  4493                           ;interruptions.c: 116: {
  4494                           ;interruptions.c: 117: PORTCbits.RC5 = uart_logiciel.buffer_uart[uart_logiciel.indice];
  4495  0008D2  501C               	movf	_uart_logiciel+12,w,c
  4496  0008D4  0D01               	mullw	1
  4497  0008D6  0E10               	movlw	low _uart_logiciel
  4498  0008D8  24F3               	addwf	prodl,w,c
  4499  0008DA  6ED9               	movwf	fsr2l,c
  4500  0008DC  0E00               	movlw	high _uart_logiciel
  4501  0008DE  20F4               	addwfc	prodh,w,c
  4502  0008E0  6EDA               	movwf	fsr2h,c
  4503  0008E2  50DF               	movf	indf2,w,c
  4504  0008E4  6E3A               	movwf	??i2_interruption_timer1& (0+255),c
  4505  0008E6  3A3A               	swapf	??i2_interruption_timer1,f,c
  4506  0008E8  463A               	rlncf	??i2_interruption_timer1,f,c
  4507  0008EA  5082               	movf	3970,w,c	;volatile
  4508  0008EC  183A               	xorwf	??i2_interruption_timer1,w,c
  4509  0008EE  0BDF               	andlw	-33
  4510  0008F0  183A               	xorwf	??i2_interruption_timer1,w,c
  4511  0008F2  6E82               	movwf	3970,c	;volatile
  4512                           
  4513                           ;interruptions.c: 118: uart_logiciel.indice++;
  4514  0008F4  2A1C               	incf	_uart_logiciel+12,f,c
  4515                           
  4516                           ;interruptions.c: 120: if (uart_logiciel.indice > 10)
  4517  0008F6  EE20  F01C         	lfsr	2,_uart_logiciel+12
  4518  0008FA  0E0A               	movlw	10
  4519  0008FC  64DF               	cpfsgt	indf2,c
  4520  0008FE  D006               	goto	i2l321
  4521                           
  4522                           ;interruptions.c: 121: uart_logiciel.transmission_en_cours = 0;
  4523  000900  6E3A               	movwf	??i2_interruption_timer1& (0+255),c
  4524  000902  0E00               	movlw	0
  4525  000904  6E1B               	movwf	_uart_logiciel+11,c
  4526  000906  503A               	movf	??i2_interruption_timer1& (0+255),w,c
  4527  000908  D001               	goto	i2l321
  4528  00090A                     i2l318:
  4529                           
  4530                           ;interruptions.c: 123: else
  4531                           ;interruptions.c: 124: PORTCbits.RC5 = 1;
  4532  00090A  8A82               	bsf	3970,5,c	;volatile
  4533  00090C                     i2l321:
  4534  00090C  0012               	return	
  4535  00090E                     __end_ofi2_interruption_timer1:
  4536                           	opt stack 0
  4537                           pclatu	equ	0xFFB
  4538                           pclath	equ	0xFFA
  4539                           tblptru	equ	0xFF8
  4540                           tblptrh	equ	0xFF7
  4541                           tblptrl	equ	0xFF6
  4542                           tablat	equ	0xFF5
  4543                           prodh	equ	0xFF4
  4544                           prodl	equ	0xFF3
  4545                           intcon	equ	0xFF2
  4546                           intcon2	equ	0xFF1
  4547                           intcon3	equ	0xFF0
  4548                           postinc0	equ	0xFEE
  4549                           fsr0h	equ	0xFEA
  4550                           fsr0l	equ	0xFE9
  4551                           wreg	equ	0xFE8
  4552                           fsr1h	equ	0xFE2
  4553                           fsr1l	equ	0xFE1
  4554                           bsr	equ	0xFE0
  4555                           indf2	equ	0xFDF
  4556                           postinc2	equ	0xFDE
  4557                           postdec2	equ	0xFDD
  4558                           fsr2h	equ	0xFDA
  4559                           fsr2l	equ	0xFD9
  4560                           status	equ	0xFD8
  4561                           
  4562 ;; *************** function i2_interruption_timer0 *****************
  4563 ;; Defined at:
  4564 ;;		line 105 in file "interruptions.c"
  4565 ;; Parameters:    Size  Location     Type
  4566 ;;		None
  4567 ;; Auto vars:     Size  Location     Type
  4568 ;;		None
  4569 ;; Return value:  Size  Location     Type
  4570 ;;		None               void
  4571 ;; Registers used:
  4572 ;;		wreg, status,2
  4573 ;; Tracked objects:
  4574 ;;		On entry : 0/0
  4575 ;;		On exit  : 0/0
  4576 ;;		Unchanged: 0/0
  4577 ;; Data sizes:     COMRAM   BANK0   BANK1   BANK2
  4578 ;;      Params:         0       0       0       0
  4579 ;;      Locals:         0       0       0       0
  4580 ;;      Temps:          0       0       0       0
  4581 ;;      Totals:         0       0       0       0
  4582 ;;Total ram usage:        0 bytes
  4583 ;; Hardware stack levels used:    1
  4584 ;; This function calls:
  4585 ;;		Nothing
  4586 ;; This function is called by:
  4587 ;;		i2_subroutine_interruptions
  4588 ;; This function uses a non-reentrant model
  4589 ;;
  4590                           
  4591                           	psect	text36
  4592  000B42                     __ptext36:
  4593                           	opt stack 0
  4594  000B42                     i2_interruption_timer0:
  4595                           	opt stack 20
  4596                           
  4597                           ;interruptions.c: 106: INTCONbits.TMR0IF = 0;
  4598                           
  4599                           ;incstack = 0
  4600                           ;incstack = 0
  4601  000B42  94F2               	bcf	intcon,2,c	;volatile
  4602                           
  4603                           ;interruptions.c: 107: TMR0L = 131;
  4604  000B44  0E83               	movlw	131
  4605  000B46  6ED6               	movwf	4054,c	;volatile
  4606  000B48  0012               	return	
  4607  000B4A                     __end_ofi2_interruption_timer0:
  4608                           	opt stack 0
  4609  0000                     pclatu	equ	0xFFB
  4610                           pclath	equ	0xFFA
  4611                           tblptru	equ	0xFF8
  4612                           tblptrh	equ	0xFF7
  4613                           tblptrl	equ	0xFF6
  4614                           tablat	equ	0xFF5
  4615                           prodh	equ	0xFF4
  4616                           prodl	equ	0xFF3
  4617                           intcon	equ	0xFF2
  4618                           intcon2	equ	0xFF1
  4619                           intcon3	equ	0xFF0
  4620                           postinc0	equ	0xFEE
  4621                           fsr0h	equ	0xFEA
  4622                           fsr0l	equ	0xFE9
  4623                           wreg	equ	0xFE8
  4624                           fsr1h	equ	0xFE2
  4625                           fsr1l	equ	0xFE1
  4626                           bsr	equ	0xFE0
  4627                           indf2	equ	0xFDF
  4628                           postinc2	equ	0xFDE
  4629                           postdec2	equ	0xFDD
  4630                           fsr2h	equ	0xFDA
  4631                           fsr2l	equ	0xFD9
  4632                           status	equ	0xFD8
  4633                           pclatu	equ	0xFFB
  4634                           pclath	equ	0xFFA
  4635                           tblptru	equ	0xFF8
  4636                           tblptrh	equ	0xFF7
  4637                           tblptrl	equ	0xFF6
  4638                           tablat	equ	0xFF5
  4639                           prodh	equ	0xFF4
  4640                           prodl	equ	0xFF3
  4641                           intcon	equ	0xFF2
  4642                           intcon2	equ	0xFF1
  4643                           intcon3	equ	0xFF0
  4644                           postinc0	equ	0xFEE
  4645                           fsr0h	equ	0xFEA
  4646                           fsr0l	equ	0xFE9
  4647                           wreg	equ	0xFE8
  4648                           fsr1h	equ	0xFE2
  4649                           fsr1l	equ	0xFE1
  4650                           bsr	equ	0xFE0
  4651                           indf2	equ	0xFDF
  4652                           postinc2	equ	0xFDE
  4653                           postdec2	equ	0xFDD
  4654                           fsr2h	equ	0xFDA
  4655                           fsr2l	equ	0xFD9
  4656                           status	equ	0xFD8
  4657                           
  4658                           	psect	rparam
  4659  0000                     pclatu	equ	0xFFB
  4660                           pclath	equ	0xFFA
  4661                           tblptru	equ	0xFF8
  4662                           tblptrh	equ	0xFF7
  4663                           tblptrl	equ	0xFF6
  4664                           tablat	equ	0xFF5
  4665                           prodh	equ	0xFF4
  4666                           prodl	equ	0xFF3
  4667                           intcon	equ	0xFF2
  4668                           intcon2	equ	0xFF1
  4669                           intcon3	equ	0xFF0
  4670                           postinc0	equ	0xFEE
  4671                           fsr0h	equ	0xFEA
  4672                           fsr0l	equ	0xFE9
  4673                           wreg	equ	0xFE8
  4674                           fsr1h	equ	0xFE2
  4675                           fsr1l	equ	0xFE1
  4676                           bsr	equ	0xFE0
  4677                           indf2	equ	0xFDF
  4678                           postinc2	equ	0xFDE
  4679                           postdec2	equ	0xFDD
  4680                           fsr2h	equ	0xFDA
  4681                           fsr2l	equ	0xFD9
  4682                           status	equ	0xFD8


Data Sizes:
    Strings     0
    Constant    0
    Data        0
    BSS         139
    Persistent  0
    Stack       0

Auto Spaces:
    Space          Size  Autos    Used
    COMRAM           95     35      71
    BANK0           160     40     143
    BANK1           256      8       8
    BANK2           239      0       0

Pointer List with Targets:

    ?___ftmul	float  size(2) Largest target is 0

    ?___ftpack	float  size(2) Largest target is 0

    ?___fttol	long  size(2) Largest target is 0

    ?___asftmul	float  size(2) Largest target is 0

    ?___ftneg	float  size(2) Largest target is 0

    __asftmul@f1p	PTR float  size(2) Largest target is 3
		 -> envoit_pwm@abs_valeur(BANK1[3]), 

    sp__LongToC	PTR unsigned char  size(2) Largest target is 15
		 -> LongToC@out(COMRAM[15]), 

    sp__IntToC	PTR unsigned char  size(2) Largest target is 8
		 -> IntToC@out(COMRAM[8]), 


Critical Paths under _main in COMRAM

    _envoit_pwm->___ftge
    _envoit_pwm->___fttol
    ___ftmul->___ftpack
    _init_system->_init_uart_logiciel
    _init_system->_init_uart_reception

Critical Paths under _high_isr in COMRAM

    _high_isr->i2_subroutine_interruptions
    i2_subroutine_interruptions->i2_interrupt_RX

Critical Paths under _low_isr in COMRAM

    _low_isr->_subroutine_interruptions
    _subroutine_interruptions->_interrupt_RX

Critical Paths under _main in BANK0

    _main->_envoit_pwm
    _envoit_pwm->___asftmul
    ___asftmul->___ftmul

Critical Paths under _high_isr in BANK0

    None.

Critical Paths under _low_isr in BANK0

    None.

Critical Paths under _main in BANK1

    _main->_envoit_pwm

Critical Paths under _high_isr in BANK1

    None.

Critical Paths under _low_isr in BANK1

    None.

Critical Paths under _main in BANK2

    None.

Critical Paths under _high_isr in BANK2

    None.

Critical Paths under _low_isr in BANK2

    None.

Call Graph Tables:

 ---------------------------------------------------------------------------------
 (Depth) Function   	        Calls       Base Space   Used Autos Params    Refs
 ---------------------------------------------------------------------------------
 (0) _main                                                 7     2      5    1796
                                             33 COMRAM     2     2      0
                                              3 BANK1      5     0      5
                        _init_system
                        _config_uart
                         _config_pwm
                         _envoit_pwm
 ---------------------------------------------------------------------------------
 (1) _envoit_pwm                                           6     3      3    1793
                                             37 BANK0      3     0      3
                                              0 BANK1      3     3      0
                          ___asftmul
                             ___ftge
                            ___ftneg
                            ___fttol
 ---------------------------------------------------------------------------------
 (2) ___fttol                                             15    11      4     371
                                             24 COMRAM     9     5      4
                                             15 BANK0      6     6      0
 ---------------------------------------------------------------------------------
 (2) ___ftneg                                              3     0      3      65
                                             24 COMRAM     3     0      3
 ---------------------------------------------------------------------------------
 (2) ___ftge                                               9     3      6     198
                                             24 COMRAM     9     3      6
 ---------------------------------------------------------------------------------
 (2) ___asftmul                                            5     0      5     893
                                             32 BANK0      5     0      5
                            ___ftmul
 ---------------------------------------------------------------------------------
 (3) ___ftmul                                             17    11      6     800
                                             15 BANK0     17    11      6
                           ___ftpack
 ---------------------------------------------------------------------------------
 (4) ___ftpack                                             8     3      5     312
                                             24 COMRAM     8     3      5
 ---------------------------------------------------------------------------------
 (1) _config_pwm                                           0     0      0       0
 ---------------------------------------------------------------------------------
 (1) _config_uart                                          2     0      2       0
                                             24 COMRAM     2     0      2
 ---------------------------------------------------------------------------------
 (1) _init_system                                          0     0      0       0
                        _ConfigPorts
                    _ConfigInterrupt
                       _init_timer_0
                 _init_uart_logiciel
                _init_uart_reception
 ---------------------------------------------------------------------------------
 (2) _init_uart_reception                                  1     1      0       0
                                             24 COMRAM     1     1      0
 ---------------------------------------------------------------------------------
 (2) _init_uart_logiciel                                   1     1      0       0
                                             24 COMRAM     1     1      0
                       _init_timer_1
 ---------------------------------------------------------------------------------
 (3) _init_timer_1                                         0     0      0       0
 ---------------------------------------------------------------------------------
 (2) _init_timer_0                                         0     0      0       0
 ---------------------------------------------------------------------------------
 (2) _ConfigInterrupt                                      0     0      0       0
 ---------------------------------------------------------------------------------
 (2) _ConfigPorts                                          0     0      0       0
 ---------------------------------------------------------------------------------
 Estimated maximum stack depth 4
 ---------------------------------------------------------------------------------
 (Depth) Function   	        Calls       Base Space   Used Autos Params    Refs
 ---------------------------------------------------------------------------------
 (5) _low_isr                                             18    18      0     120
                                              3 COMRAM    18    18      0
           _subroutine_interruptions
 ---------------------------------------------------------------------------------
 (6) _subroutine_interruptions                             1     0      1     120
                                              2 COMRAM     1     0      1
                   _interruption_QEI
               _interuption_QEI_sens
                _interruption_timer0
                _interruption_timer1
                _interruption_timer2
                  _interruption_INT0
                       _interrupt_RX
                       _interrupt_TX
 ---------------------------------------------------------------------------------
 (7) _interrupt_TX                                         0     0      0       0
 ---------------------------------------------------------------------------------
 (7) _interrupt_RX                                         2     2      0       0
                                              0 COMRAM     2     2      0
 ---------------------------------------------------------------------------------
 (7) _interruption_INT0                                    0     0      0       0
 ---------------------------------------------------------------------------------
 (7) _interruption_timer2                                  0     0      0       0
 ---------------------------------------------------------------------------------
 (7) _interruption_timer1                                  1     1      0       0
                                              0 COMRAM     1     1      0
 ---------------------------------------------------------------------------------
 (7) _interruption_timer0                                  0     0      0       0
 ---------------------------------------------------------------------------------
 (7) _interuption_QEI_sens                                 0     0      0       0
 ---------------------------------------------------------------------------------
 (7) _interruption_QEI                                     0     0      0       0
 ---------------------------------------------------------------------------------
 Estimated maximum stack depth 7
 ---------------------------------------------------------------------------------
 (Depth) Function   	        Calls       Base Space   Used Autos Params    Refs
 ---------------------------------------------------------------------------------
 (8) _high_isr                                            15    15      0     480
                                              0 BANK0     15    15      0
         i2_subroutine_interruptions
 ---------------------------------------------------------------------------------
 (9) i2_subroutine_interruptions                           1     0      1     480
                                             23 COMRAM     1     0      1
              i2_interruption_timer0
              i2_interruption_timer1
              i2_interruption_timer2
                i2_interruption_INT0
                 i2_interruption_QEI
             i2_interuption_QEI_sens
                     i2_interrupt_RX
                     i2_interrupt_TX
 ---------------------------------------------------------------------------------
 (10) i2_interrupt_TX                                      0     0      0       0
 ---------------------------------------------------------------------------------
 (10) i2_interrupt_RX                                      2     2      0       0
                                             21 COMRAM     2     2      0
 ---------------------------------------------------------------------------------
 (10) i2_interuption_QEI_sens                              0     0      0       0
 ---------------------------------------------------------------------------------
 (10) i2_interruption_QEI                                  0     0      0       0
 ---------------------------------------------------------------------------------
 (10) i2_interruption_INT0                                 0     0      0       0
 ---------------------------------------------------------------------------------
 (10) i2_interruption_timer2                               0     0      0       0
 ---------------------------------------------------------------------------------
 (10) i2_interruption_timer1                               1     1      0       0
                                             21 COMRAM     1     1      0
 ---------------------------------------------------------------------------------
 (10) i2_interruption_timer0                               0     0      0       0
 ---------------------------------------------------------------------------------
 Estimated maximum stack depth 10
 ---------------------------------------------------------------------------------

 Call Graph Graphs:

 _main (ROOT)
   _init_system
     _ConfigPorts
     _ConfigInterrupt
     _init_timer_0
     _init_uart_logiciel
       _init_timer_1
     _init_uart_reception
   _config_uart
   _config_pwm
   _envoit_pwm
     ___asftmul
       ___ftmul
         ___ftpack
     ___ftge
     ___ftneg
     ___fttol

 _low_isr (ROOT)
   _subroutine_interruptions
     _interruption_QEI
     _interuption_QEI_sens
     _interruption_timer0
     _interruption_timer1
     _interruption_timer2
     _interruption_INT0
     _interrupt_RX
     _interrupt_TX

 _high_isr (ROOT)
   i2_subroutine_interruptions
     i2_interruption_timer0
     i2_interruption_timer1
     i2_interruption_timer2
     i2_interruption_INT0
     i2_interruption_QEI
     i2_interuption_QEI_sens
     i2_interrupt_RX
     i2_interrupt_TX

 Address spaces:
Name               Size   Autos  Total    Cost      Usage
BIGRAM             2EE      0       0      10        0.0%
EEDATA             100      0       0       0        0.0%
BITBANK1           100      0       0       6        0.0%
BANK1              100      8       8       7        3.1%
BITBANK2            EF      0       0       8        0.0%
BANK2               EF      0       0       9        0.0%
BITBANK0            A0      0       0       3        0.0%
BANK0               A0     28      8F       4       89.4%
BITCOMRAM           5F      0       0       0        0.0%
COMRAM              5F     23      47       1       74.7%
BITSFR_5             0      0       0      40        0.0%
SFR_5                0      0       0      40        0.0%
BITSFR_4             0      0       0      40        0.0%
SFR_4                0      0       0      40        0.0%
BITSFR_3             0      0       0      40        0.0%
SFR_3                0      0       0      40        0.0%
BITSFR_2             0      0       0      40        0.0%
SFR_2                0      0       0      40        0.0%
BITSFR_1             0      0       0      40        0.0%
SFR_1                0      0       0      40        0.0%
BITSFR               0      0       0      40        0.0%
SFR                  0      0       0      40        0.0%
STACK                0      0      16       2        0.0%
NULL                 0      0       0       0        0.0%
ABS                  0      0      DE       5        0.0%
DATA                 0      0      F4      11        0.0%
CODE                 0      0       0       0        0.0%


Microchip Technology PIC18 Macro Assembler V1.21 build 54009 
Symbol Table                                                                                   Thu Apr 09 09:51:57 2015

             __end_ofi2_interrupt_RX 0A1C               __end_ofi2_interrupt_TX 0B62  
                                 l11 0A54                                   bsr 000FE0  
               ?_init_uart_reception 0025                         ___asftmul@f2 00E9  
                       __CFG_CP0$OFF 000000                         __CFG_CP1$OFF 000000  
                       __CFG_CP2$OFF 000000                         __CFG_CP3$OFF 000000  
                                l393 0414                                  l802 03D6  
                                l396 04A8                                  l782 029E  
                                l776 0620                                  l792 0A6E  
                                l698 0590                         __CFG_CPB$OFF 000000  
                       __CFG_CPD$OFF 000000                                  prod 000FF3  
                                wreg 000FE8  __size_ofi2_subroutine_interruptions 0062  
                      ___asftmul@f1p 00E7                         __CFG_LVP$OFF 000000  
                               l3410 0420                                 l3420 04AA  
                               l3502 0252                                 l3440 0536  
                               l3432 04F8                                 l3416 0486  
                               l3442 0554                                 l3434 0502  
                               l3514 05C2                                 l3444 055E  
                               l3436 0520                                 l3428 04EA  
                               l3524 061E                                 l3518 05F2  
                               l3560 035E                                 l3474 0152  
                               l3570 039C                                 l3538 02D2  
                               l3492 01EE                                 l3468 00F6  
                               l3556 0340                                 l3574 03C6  
                               l3566 037A                                 l3488 01C2  
                               l3568 0394                                 l3498 0226  
                               u1300 0122                                 u1205 04A0  
                               u1310 0138                                 u1400 02F0  
                               u1305 0118                                 u1405 02E8  
                               u1430 0368                                 u1280 00DE  
                               u1185 03F2                                 u1380 02BE  
                               u1285 00D4                                 u1385 02B6  
                               _TMR1 000FCE                                 _main 0A1C  
                       ___ftpack@arg 003D                         ___ftpack@exp 0040  
                               fsr0h 000FEA                                 fsr1h 000FE2  
                               fsr0l 000FE9                                 fsr2h 000FDA  
                               fsr1l 000FE1                                 indf2 000FDF  
                               fsr2l 000FD9                                 pclat 000FFA  
                               prodh 000FF4                                 prodl 000FF3  
                               start 00AE                        __CFG_IESO$OFF 000000  
                      __CFG_MCLRE$ON 000000                         ___ftmul@cntr 00E5  
                       ___ftmul@sign 00E6                  __end_of_ConfigPorts 06B0  
            ??i2_interruption_timer0 003A              ??i2_interruption_timer1 003A  
            ??i2_interruption_timer2 003A                      ?i2_interrupt_RX 0025  
                    ?i2_interrupt_TX 0025                         ___fttol@exp1 00DB  
                       ___fttol@lval 00D7                ??_init_uart_reception 003D  
            __end_of_ConfigInterrupt 0738                                ?_main 0103  
                    __end_of___ftneg 0A7C                      __end_of___ftmul 02A0  
                    __end_of___fttol 03D8                                _LATA0 007C48  
                              _LATA1 007C49                                _LATB0 007C50  
                              _LATA2 007C4A                                _LATB1 007C51  
                              _LATA3 007C4B                                _LATC0 007C58  
                              _LATB2 007C52                                _LATA4 007C4C  
                              _LATC1 007C59                                _LATB3 007C53  
                              _LATA5 007C4D                                _LATD0 007C60  
                              _LATC2 007C5A                                _LATB4 007C54  
                              _LATA6 007C4E                                _LATD1 007C61  
                              _LATC3 007C5B                                _LATB5 007C55  
                              _LATA7 007C4F                                _LATE0 007C68  
                              _LATD2 007C62                                _LATC4 007C5C  
                              _LATB6 007C56                                _LATE1 007C69  
                              _LATD3 007C63                                _LATC5 007C5D  
                              _LATB7 007C57                                _LATE2 007C6A  
                              _LATD4 007C64                                _LATC6 007C5E  
                              _PDC0H 000F78                                _LATD5 007C65  
                              _LATC7 007C5F                                _LATD6 007C66  
                              _PDC1H 000F76                                _LATD7 007C67  
                              _PDC2H 000F74                                _PDC0L 000F79  
                              _PDC3H 000F72                                _PDC1L 000F77  
                              _PDC2L 000F75                                _PDC3L 000F73  
                              i1l301 07E2                                i1l303 07F2  
                              i1l312 0812                                i1l321 08C0  
                              i1l307 0802                                i1l309 0810  
                              i1l318 08BE                                i1l350 09D8  
                              i2l301 0844                                i1l294 0068  
                              i2l303 0854                                i2l312 0874  
                              i2l321 090C                                i1l297 07C2  
                              i2l307 0864                                i1l299 07D2  
                              i2l309 0872                                i2l318 090A  
                              i2l350 0A1A                                i2l291 0778  
                              i2l297 0824                                i2l299 0834  
                              _RCREG 000FAE             __end_of_interruption_QEI 0B5E  
                              _TMR0L 000FD6                                _SPBRG 000FAF  
                              _TXREG 000FAD                        __CFG_WRT0$OFF 000000  
                      __CFG_WRT1$OFF 000000                        __CFG_WRT2$OFF 000000  
                      __CFG_WRT3$OFF 000000                           LongToC@out 0001  
                     __CFG_EBTR0$OFF 000000                       __CFG_FCMEN$OFF 000000  
                     __CFG_EBTR1$OFF 000000                       __CFG_EBTR2$OFF 000000  
                     __CFG_EBTR3$OFF 000000                        __CFG_WRTB$OFF 000000  
             config_uart@vitesse_com 003D                        __CFG_WRTC$OFF 000000  
                      __CFG_WRTD$OFF 000000                         ?_init_system 0025  
                     __CFG_EBTRB$OFF 000000           ??_subroutine_interruptions 0028  
                      ___ftpack@sign 0041                                main@i 0046  
           ??i2_interuption_QEI_sens 003A                      __end_of_low_isr 00AE  
                     __CFG_BOREN$OFF 000000                                tablat 000FF5  
                              status 000FD8                      __initialization 0AA2  
                     __CFG_HPOL$HIGH 000000                         __end_of_main 0A56  
                     __CFG_OSC$HSPLL 000000                       __CFG_LPOL$HIGH 000000  
                             ??_main 0046                        ___fttol@sign1 00D6  
                      __activetblptr 000002                   i2interrupt_RX@temp 003B  
                   __end_of___ftpack 0592         __size_ofi2_interruption_INT0 0004  
                             i1l3186 005C                               i1l2816 09C8  
                             i2l3140 0A0A                               i2l3422 0768  
                     __CFG_WDTEN$OFF 000000                       __CFG_WINEN$OFF 000000  
                             _TMR0ON 007EAF                               _TMR1ON 007E68  
                             _PTPERH 000F7A                               _PTPERL 000F7B  
                        _ConfigPorts 0622                        ?_init_timer_0 0025  
                      ?_init_timer_1 0025           __end_of_init_uart_logiciel 0B24  
                     __CFG_SSPMX$RC7 000000                     __end_of_high_isr 07B2  
                             ___ftge 0592                   i2_interruption_QEI 0B66  
                          ??___ftneg 0040                 __size_of_config_uart 001C  
                          ??___ftmul 00DC                            ??___fttol 0041  
                             clear_0 0AA8                               clear_1 0AB4  
                   ?_ConfigInterrupt 0025                ___ftmul@f3_as_product 00E2  
                ?i2_interruption_QEI 0025                            ??_low_isr 0028  
                             tblptrh 000FF7                               tblptrl 000FF6  
                             tblptru 000FF8                   __size_of___asftmul 0042  
    __size_ofi2_interuption_QEI_sens 0004                           __accesstop 0060  
            __end_of__initialization 0ABA                      __CFG_FLTAMX$RC1 000000  
                         ___ftge@ff1 003D                 ??i2_interruption_QEI 003A  
                         ___ftge@ff2 0040                       ??_init_timer_0 003D  
                     ??_init_timer_1 003D                           ___ftneg@f1 003D  
                         ___ftmul@f1 00D6                           ___ftmul@f2 00D9  
                         ___fttol@f1 003D                       __pcstackCOMRAM 0025  
                      ?_interrupt_RX 0025                        ?_interrupt_TX 0025  
      __size_of_interuption_QEI_sens 0004     __end_of_subroutine_interruptions 0814  
        __end_of_interruption_timer0 0B42          __end_of_interruption_timer1 08C2  
        __end_of_interruption_timer2 0B56                           __pbssBANK0 0060  
               __size_of_init_system 0016                     ??i2_interrupt_RX 003A  
                   ??i2_interrupt_TX 003A                       ??_interrupt_RX 0025  
                     ??_interrupt_TX 0025                              ?___ftge 003D  
                    __CFG_WDPS$32768 000000               i2_interuption_QEI_sens 0B62  
     __size_ofi2_interruption_timer0 0008       __size_ofi2_interruption_timer1 004C  
     __size_ofi2_interruption_timer2 0004        __end_ofi2_interruption_timer0 0B4A  
      __end_ofi2_interruption_timer1 090E        __end_ofi2_interruption_timer2 0B72  
                  __end_of___asftmul 0998                            ?___ftpack 003D  
                    __CFG_PWM4MX$RB5 000000                    ?_interruption_QEI 0025  
                         _config_pwm 090E                   ??_interruption_QEI 0025  
                          ?_high_isr 0025                      __CFG_PWMPIN$OFF 000000  
                    __CFG_PWRTEN$OFF 000000         ??i2_subroutine_interruptions 003D  
                            __Hparam 0000          __end_of_init_uart_reception 0AA2  
                            __Lparam 0000                      __size_of___ftge 0090  
                            ___ftneg 0A56                              ___ftmul 00B2  
                            ___fttol 02A0                           _envoit_pwm 03D8  
                i2_interruption_INT0 0B6A                      __CFG_STVREN$OFF 000000  
                            __pcinit 0AA2                           ??___ftpack 0042  
                            __ramtop 0300                              __ptext0 0A1C  
                            __ptext1 03D8                              __ptext2 02A0  
                            __ptext3 0A56                              __ptext4 0592  
                            __ptext5 0956                              __ptext6 00B2  
                            __ptext7 04DA                              __ptext8 090E  
                            __ptext9 0AC4                            _T0CONbits 000FD5  
                          _T1CONbits 000FCD                 __end_of_init_timer_0 0B3A  
               __end_of_init_timer_1 0AF8                              _low_isr 0018  
                         ??_high_isr 00C7                       __pintcode_body 0738  
               end_of_initialization 0ABA                 ?i2_interruption_INT0 0025  
                      __Lmediumconst 0000                              int_func 0738  
                       ?_ConfigPorts 0025    __size_of_subroutine_interruptions 0062  
                          _RCSTAbits 000FAB            ?_subroutine_interruptions 0027  
                            postdec2 000FDD                              postinc0 000FEE  
                            postinc2 000FDE                            _PORTCbits 000F82  
                          _PORTDbits 000F83                   _init_uart_logiciel 0B0E  
                          _TRISAbits 000F92                            _TRISBbits 000F93  
                          _TRISCbits 000F94                          ?_config_pwm 0025  
                          _TRISDbits 000F95                            _TRISEbits 000F96  
               __end_of_interrupt_RX 09DA                 __end_of_interrupt_TX 0B4E  
                ?_init_uart_logiciel 0025                     envoit_pwm@valeur 00EC  
              ??i2_interruption_INT0 003A                            IntToC@out 001D  
                          _TXSTAbits 000FAC                     __CFG_T1OSCMX$OFF 000000  
                      ??_config_uart 003F                          ___ftmul@exp 00E1  
               ??_init_uart_logiciel 003D                          ?_envoit_pwm 00EC  
                     __end_of___ftge 0622                     __CFG_EXCLKMX$RC3 000000  
                        _BAUDCONbits 000FAA                  start_initialization 0AA2  
           __size_of_ConfigInterrupt 0088         __end_of_interuption_QEI_sens 0B5A  
 __end_ofi2_subroutine_interruptions 0876           i2_subroutine_interruptions 0814  
        __size_ofi2_interruption_QEI 0004              ?i2_interuption_QEI_sens 0025  
                           ??___ftge 0043                  __size_of_config_pwm 0048  
              __size_of_init_timer_0 0016                __size_of_init_timer_1 0018  
                __end_of_config_uart 0AE0                          _DFLTCONbits 000F60  
                  __size_of___ftpack 00B8                            ___asftmul 0956  
                        __pbssCOMRAM 0001                        __pcstackBANK0 00C7  
                      __pcstackBANK1 0100                        ??_init_system 003E  
                __size_of_envoit_pwm 0102                    __size_of_high_isr 07AA  
 i2subroutine_interruptions@priorite 003C     subroutine_interruptions@priorite 0027  
       __size_of_interruption_timer0 0008         __size_of_interruption_timer1 004C  
       __size_of_interruption_timer2 0004            __size_of_interruption_QEI 0004  
     __end_ofi2_interuption_QEI_sens 0B66                 __size_of_ConfigPorts 008E  
                       _init_timer_0 0B24                         _init_timer_1 0AE0  
                          __pintcode 0008                             ?___ftneg 003D  
                           ?___ftmul 00D6                             ?___fttol 003D  
                        __pintcodelo 0018                       _uart_reception 0060  
              i2_interruption_timer0 0B42                i2_interruption_timer1 08C2  
              i2_interruption_timer2 0B6E                __size_of_interrupt_RX 0042  
              __size_of_interrupt_TX 0004                           ?___asftmul 00E7  
                           ?_low_isr 0025                    _interruption_INT0 0B4E  
                __end_of_init_system 0B0E                   ?_interruption_INT0 0025  
                  ??_ConfigInterrupt 003D                             _IPR1bits 000F9F  
                           _IPR2bits 000FA2                             _PIE1bits 000F9D  
                           _IPR3bits 000FA5                             _PIE2bits 000FA0  
                           _PIE3bits 000FA3                             _PIR1bits 000F9E  
                           _PIR2bits 000FA1                             _PIR3bits 000FA4  
                        _config_uart 0AC4                             _RCONbits 000FD0  
                ??_interruption_INT0 0025                         _interrupt_RX 0998  
                       _interrupt_TX 0B4A                 _interuption_QEI_sens 0B56  
       __size_of_init_uart_reception 0026              __size_ofi2_interrupt_RX 0042  
            __size_ofi2_interrupt_TX 0004                         ??_config_pwm 003D  
          __end_of_interruption_INT0 0B52                          _INTCON2bits 000FF1  
                        _INTCON3bits 000FF0                             __Hrparam 0000  
                           __Lrparam 0000                   __end_of_config_pwm 0956  
                       ??_envoit_pwm 0046                     interrupt_RX@temp 0026  
              ?_interuption_QEI_sens 0025                     __size_of___ftneg 0026  
                   __size_of___ftmul 01EE                     __size_of___fttol 0138  
                           ___ftpack 04DA               ?i2_interruption_timer0 0025  
             ?i2_interruption_timer1 0025               ?i2_interruption_timer2 0025  
                        ??___asftmul 0045          __end_ofi2_interruption_INT0 0B6E  
                   __size_of_low_isr 0096                             __ptext10 0AF8  
                           __ptext11 0A7C                             __ptext20 0998  
                           __ptext12 0B0E                             __ptext21 0B4E  
                           __ptext13 0AE0                             __ptext30 09DA  
                           __ptext22 0B52                             __ptext14 0B24  
                           __ptext31 0B62                             __ptext23 0876  
                           __ptext15 06B0                             __ptext32 0B66  
                           __ptext24 0B3A                             __ptext16 0622  
                           __ptext33 0B6A                             __ptext25 0B56  
                           __ptext34 0B6E                             __ptext26 0B5A  
                           __ptext18 07B2                             __ptext35 08C2  
                           __ptext19 0B4A                             __ptext36 0B42  
                           __ptext28 0814                             __ptext29 0B5E  
                        _init_system 0AF8                        _uart_logiciel 0010  
                           _high_isr 0008                   __end_of_envoit_pwm 04DA  
                      __size_of_main 003A                     _interruption_QEI 0B5A  
        ?i2_subroutine_interruptions 003C             _subroutine_interruptions 07B2  
        __size_of_init_uart_logiciel 0016                             main@argc 0103  
                           main@argv 0105                  _interruption_timer0 0B3A  
                _interruption_timer1 0876                  _interruption_timer2 0B52  
                         _INTCONbits 000FF2                           _QEICONbits 000FB6  
         __size_of_interruption_INT0 0004                             intlevel1 0000  
                           intlevel2 0000           __end_ofi2_interruption_QEI 0B6A  
               ?_interruption_timer0 0025                 ?_interruption_timer1 0025  
               ?_interruption_timer2 0025                           _OSCCONbits 000FD3  
                        _PWMCON0bits 000F6F                          _PWMCON1bits 000F6E  
             ??_interuption_QEI_sens 0025                 envoit_pwm@abs_valeur 0100  
                         _PTCON0bits 000F7F                           _PTCON1bits 000F7E  
                     i2_interrupt_RX 09DA                       i2_interrupt_TX 0B5E  
                    _ConfigInterrupt 06B0                  _init_uart_reception 0A7C  
                      ??_ConfigPorts 003D                ??_interruption_timer0 0025  
              ??_interruption_timer1 0025                ??_interruption_timer2 0025  
                       ?_config_uart 003D  
